

Microchip MPLAB XC8 Assembler V2.10 build 88905656 
                                                                                               Thu Apr 30 00:50:23 2020

Microchip MPLAB XC8 C Compiler v2.10 (Free license) build 20190730164152 Og1 
     1                           	processor	18F252
     2                           	fnconf	rparam,??,?,0
     3                           	opt	pw 120
     4                           	opt	flic
     5                           	psect	idataBANK0,global,class=CODE,delta=1,noexec
     6                           	psect	smallconst,global,reloc=2,class=SMALLCONST,delta=1,noexec
     7                           	psect	cinit,global,reloc=2,class=CODE,delta=1
     8                           	psect	bssCOMRAM,global,class=COMRAM,space=1,delta=1,noexec
     9                           	psect	bssBANK0,global,class=BANK0,space=1,delta=1,lowdata,noexec
    10                           	psect	dataBANK0,global,class=BANK0,space=1,delta=1,lowdata,noexec
    11                           	psect	cstackBANK0,global,class=BANK0,space=1,delta=1,noexec
    12                           	psect	cstackCOMRAM,global,class=COMRAM,space=1,delta=1,noexec
    13                           	psect	text0,global,reloc=2,class=CODE,delta=1
    14                           	psect	text1,global,reloc=2,class=CODE,delta=1
    15                           	psect	text2,global,reloc=2,class=CODE,delta=1
    16                           	psect	text3,global,reloc=2,class=CODE,delta=1
    17                           	psect	text4,global,reloc=2,class=CODE,delta=1,group=2
    18                           	psect	text5,global,reloc=2,class=CODE,delta=1,group=1
    19                           	psect	text6,global,reloc=2,class=CODE,delta=1,group=1
    20                           	psect	text7,global,reloc=2,class=CODE,delta=1,group=1
    21                           	psect	text8,global,reloc=2,class=CODE,delta=1,group=1
    22                           	psect	text9,global,reloc=2,class=CODE,delta=1,group=1
    23                           	psect	text10,global,reloc=2,class=CODE,delta=1
    24                           	psect	text11,global,reloc=2,class=CODE,delta=1
    25                           	psect	text12,global,reloc=2,class=CODE,delta=1
    26                           	psect	text13,global,reloc=2,class=CODE,delta=1
    27                           	psect	text14,global,reloc=2,class=CODE,delta=1
    28                           	psect	text15,global,reloc=2,class=CODE,delta=1
    29                           	psect	text16,global,reloc=2,class=CODE,delta=1
    30                           	psect	text17,global,reloc=2,class=CODE,delta=1
    31                           	psect	text18,global,reloc=2,class=CODE,delta=1
    32                           	psect	text19,global,reloc=2,class=CODE,delta=1
    33                           	psect	text20,global,reloc=2,class=CODE,delta=1
    34                           	psect	text21,global,reloc=2,class=CODE,delta=1
    35                           	psect	text22,global,reloc=2,class=CODE,delta=1
    36                           	psect	intcode,global,reloc=2,class=CODE,delta=1
    37                           	psect	text24,global,reloc=2,class=CODE,delta=1
    38                           	psect	text25,global,reloc=2,class=CODE,delta=1
    39                           	psect	text26,global,reloc=2,class=CODE,delta=1
    40                           	psect	text27,global,reloc=2,class=CODE,delta=1
    41                           	psect	text28,global,reloc=2,class=CODE,delta=1
    42                           	psect	text29,global,reloc=2,class=CODE,delta=1
    43                           	psect	text30,global,reloc=2,class=CODE,delta=1,group=1
    44                           	psect	text31,global,reloc=2,class=CODE,delta=1,group=1
    45                           	psect	text32,global,reloc=2,class=CODE,delta=1
    46                           	psect	text33,global,reloc=2,class=CODE,delta=1
    47                           	psect	text34,global,reloc=2,class=CODE,delta=1
    48                           	psect	text35,global,reloc=2,class=CODE,delta=1
    49                           	psect	intsave_regs,global,class=BIGRAM,space=1,delta=1,noexec
    50                           	psect	rparam,global,class=COMRAM,space=1,delta=1,noexec
    51                           	psect	temp,global,ovrld,common,class=COMRAM,space=1,delta=1
    52  0000                     
    53                           ; Version 2.10
    54                           ; Generated 31/07/2019 GMT
    55                           ; 
    56                           ; Copyright © 2019, Microchip Technology Inc. and its subsidiaries ("Microchip")
    57                           ; All rights reserved.
    58                           ; 
    59                           ; This software is developed by Microchip Technology Inc. and its subsidiaries ("Microch
      +                          ip").
    60                           ; 
    61                           ; Redistribution and use in source and binary forms, with or without modification, are
    62                           ; permitted provided that the following conditions are met:
    63                           ; 
    64                           ;     1. Redistributions of source code must retain the above copyright notice, this lis
      +                          t of
    65                           ;        conditions and the following disclaimer.
    66                           ; 
    67                           ;     2. Redistributions in binary form must reproduce the above copyright notice, this 
      +                          list
    68                           ;        of conditions and the following disclaimer in the documentation and/or other
    69                           ;        materials provided with the distribution.
    70                           ; 
    71                           ;     3. Microchip's name may not be used to endorse or promote products derived from th
      +                          is
    72                           ;        software without specific prior written permission.
    73                           ; 
    74                           ; THIS SOFTWARE IS PROVIDED BY MICROCHIP "AS IS" AND ANY EXPRESS OR IMPLIED WARRANTIES,
    75                           ; INCLUDING, BUT NOT LIMITED TO, THE IMPLIED WARRANTIES OF MERCHANTABILITY AND FITNESS F
      +                          OR
    76                           ; PURPOSE ARE DISCLAIMED.  IN NO EVENT SHALL MICROCHIP BE LIABLE FOR ANY DIRECT, INDIREC
      +                          T,
    77                           ; INCIDENTAL, SPECIAL, EXEMPLARY, OR CONSEQUENTIAL DAMAGES (INCLUDING BUT NOT LIMITED TO
    78                           ; PROCUREMENT OF SUBSTITUTE GOODS OR SERVICES; LOSS OF USE, DATA OR PROFITS; OR BUSINESS
    79                           ; INTERRUPTION) HOWSOEVER CAUSED AND ON ANY THEORY OF LIABILITY, WHETHER IN CONTRACT, ST
      +                          RICT
    80                           ; LIABILITY, OR TORT (INCLUDING NEGLIGENCE OR OTHERWISE) ARISING IN ANY WAY OUT OF THE U
      +                          SE OF
    81                           ; THIS SOFTWARE, EVEN IF ADVISED OF THE POSSIBILITY OF SUCH DAMAGE.
    82                           ; 
    83                           ; 
    84                           ; Code-generator required, PIC18F252 Definitions
    85                           ; 
    86                           ; SFR Addresses
    87  0000                     
    88                           	psect	idataBANK0
    89  0027EC                     __pidataBANK0:
    90                           	opt callstack 0
    91                           
    92                           ;initializer for uart_write_date@F3039
    93  0027EC  2C                 	db	low STR_17
    94  0027ED  06                 	db	high STR_17
    95  0027EE  1D                 	db	low STR_18
    96  0027EF  06                 	db	high STR_18
    97  0027F0  01                 	db	low STR_19
    98  0027F1  06                 	db	high STR_19
    99  0027F2  14                 	db	low STR_20
   100  0027F3  06                 	db	high STR_20
   101  0027F4  25                 	db	low STR_21
   102  0027F5  06                 	db	high STR_21
   103  0027F6  0B                 	db	low STR_22
   104  0027F7  06                 	db	high STR_22
   105  0027F8  33                 	db	low STR_23
   106  0027F9  06                 	db	high STR_23
   107                           
   108                           ;initializer for main@F2662
   109  0027FA  40                 	db	64
   110  0027FB  79                 	db	121
   111  0027FC  24                 	db	36
   112  0027FD  30                 	db	48
   113  0027FE  19                 	db	25
   114  0027FF  12                 	db	18
   115  002800  02                 	db	2
   116  002801  78                 	db	120
   117  002802  00                 	db	0
   118  002803  10                 	db	16
   119  002804  3F                 	db	63
   120  0000                     _TXREG	set	4013
   121  0000                     _RCREG	set	4014
   122  0000                     _TRISCbits	set	3988
   123  0000                     _RCSTAbits	set	4011
   124  0000                     _TXSTAbits	set	4012
   125  0000                     _SPBRG	set	4015
   126  0000                     _CCPR2L	set	4027
   127  0000                     _CCPR1L	set	4030
   128  0000                     _CCP2CONbits	set	4026
   129  0000                     _CCP1CONbits	set	4029
   130  0000                     _T0CONbits	set	4053
   131  0000                     _INTCON	set	4082
   132  0000                     _PIE1	set	3997
   133  0000                     _RCONbits	set	4048
   134  0000                     _PR2	set	4043
   135  0000                     _INTCONbits	set	4082
   136  0000                     _PIE1bits	set	3997
   137  0000                     _SSPCON2	set	4037
   138  0000                     _SSPBUF	set	4041
   139  0000                     _SSPCON2bits	set	4037
   140  0000                     _SSPSTATbits	set	4039
   141  0000                     _SSPADD	set	4040
   142  0000                     _SSPCON1bits	set	4038
   143  0000                     _PORTBbits	set	3969
   144  0000                     _PORTCbits	set	3970
   145  0000                     _ADCON1	set	4033
   146  0000                     _TRISC	set	3988
   147  0000                     _TRISB	set	3987
   148  0000                     _TRISA	set	3986
   149  0000                     _LATCbits	set	3979
   150  0000                     _PIR1bits	set	3998
   151  0000                     _T2CONbits	set	4042
   152                           
   153                           	psect	smallconst
   154  000600                     __psmallconst:
   155                           	opt callstack 0
   156  000600  00                 	db	0
   157  000601                     STR_19:
   158  000601  57                 	db	87	;'W'
   159  000602  65                 	db	101	;'e'
   160  000603  64                 	db	100	;'d'
   161  000604  6E                 	db	110	;'n'
   162  000605  65                 	db	101	;'e'
   163  000606  73                 	db	115	;'s'
   164  000607  64                 	db	100	;'d'
   165  000608  61                 	db	97	;'a'
   166  000609  79                 	db	121	;'y'
   167  00060A  00                 	db	0
   168  00060B                     STR_22:
   169  00060B  53                 	db	83	;'S'
   170  00060C  61                 	db	97	;'a'
   171  00060D  74                 	db	116	;'t'
   172  00060E  75                 	db	117	;'u'
   173  00060F  72                 	db	114	;'r'
   174  000610  64                 	db	100	;'d'
   175  000611  61                 	db	97	;'a'
   176  000612  79                 	db	121	;'y'
   177  000613  00                 	db	0
   178  000614                     STR_20:
   179  000614  54                 	db	84	;'T'
   180  000615  68                 	db	104	;'h'
   181  000616  75                 	db	117	;'u'
   182  000617  72                 	db	114	;'r'
   183  000618  73                 	db	115	;'s'
   184  000619  64                 	db	100	;'d'
   185  00061A  61                 	db	97	;'a'
   186  00061B  79                 	db	121	;'y'
   187  00061C  00                 	db	0
   188  00061D                     STR_18:
   189  00061D  54                 	db	84	;'T'
   190  00061E  75                 	db	117	;'u'
   191  00061F  65                 	db	101	;'e'
   192  000620  73                 	db	115	;'s'
   193  000621  64                 	db	100	;'d'
   194  000622  61                 	db	97	;'a'
   195  000623  79                 	db	121	;'y'
   196  000624  00                 	db	0
   197  000625                     STR_21:
   198  000625  46                 	db	70	;'F'
   199  000626  72                 	db	114	;'r'
   200  000627  69                 	db	105	;'i'
   201  000628  64                 	db	100	;'d'
   202  000629  61                 	db	97	;'a'
   203  00062A  79                 	db	121	;'y'
   204  00062B  00                 	db	0
   205  00062C                     STR_17:
   206  00062C  4D                 	db	77	;'M'
   207  00062D  6F                 	db	111	;'o'
   208  00062E  6E                 	db	110	;'n'
   209  00062F  64                 	db	100	;'d'
   210  000630  61                 	db	97	;'a'
   211  000631  79                 	db	121	;'y'
   212  000632  00                 	db	0
   213  000633                     STR_23:
   214  000633  53                 	db	83	;'S'
   215  000634  75                 	db	117	;'u'
   216  000635  6E                 	db	110	;'n'
   217  000636  64                 	db	100	;'d'
   218  000637  61                 	db	97	;'a'
   219  000638  79                 	db	121	;'y'
   220  000639  00                 	db	0
   221  00063A  30                 	db	48	;'0'
   222  00063B  30                 	db	48	;'0'
   223  00063C  30                 	db	48	;'0'
   224  00063D  30                 	db	48	;'0'
   225  00063E  00                 	db	0
   226  00063F  31                 	db	49	;'1'
   227  000640  30                 	db	48	;'0'
   228  000641  30                 	db	48	;'0'
   229  000642  30                 	db	48	;'0'
   230  000643  00                 	db	0
   231  000644  30                 	db	48	;'0'
   232  000645  31                 	db	49	;'1'
   233  000646  30                 	db	48	;'0'
   234  000647  30                 	db	48	;'0'
   235  000648  00                 	db	0
   236  000649  31                 	db	49	;'1'
   237  00064A  31                 	db	49	;'1'
   238  00064B  30                 	db	48	;'0'
   239  00064C  30                 	db	48	;'0'
   240  00064D  00                 	db	0
   241  00064E  30                 	db	48	;'0'
   242  00064F  30                 	db	48	;'0'
   243  000650  31                 	db	49	;'1'
   244  000651  30                 	db	48	;'0'
   245  000652  00                 	db	0
   246  000653  31                 	db	49	;'1'
   247  000654  30                 	db	48	;'0'
   248  000655  31                 	db	49	;'1'
   249  000656  30                 	db	48	;'0'
   250  000657  00                 	db	0
   251  000658  30                 	db	48	;'0'
   252  000659  31                 	db	49	;'1'
   253  00065A  31                 	db	49	;'1'
   254  00065B  30                 	db	48	;'0'
   255  00065C  00                 	db	0
   256  00065D  31                 	db	49	;'1'
   257  00065E  31                 	db	49	;'1'
   258  00065F  31                 	db	49	;'1'
   259  000660  30                 	db	48	;'0'
   260  000661  00                 	db	0
   261  000662  30                 	db	48	;'0'
   262  000663  30                 	db	48	;'0'
   263  000664  30                 	db	48	;'0'
   264  000665  31                 	db	49	;'1'
   265  000666  00                 	db	0
   266  000667  31                 	db	49	;'1'
   267  000668  30                 	db	48	;'0'
   268  000669  30                 	db	48	;'0'
   269  00066A  31                 	db	49	;'1'
   270  00066B  00                 	db	0
   271  00066C  30                 	db	48	;'0'
   272  00066D  31                 	db	49	;'1'
   273  00066E  30                 	db	48	;'0'
   274  00066F  31                 	db	49	;'1'
   275  000670  00                 	db	0
   276  000671  31                 	db	49	;'1'
   277  000672  31                 	db	49	;'1'
   278  000673  30                 	db	48	;'0'
   279  000674  31                 	db	49	;'1'
   280  000675  00                 	db	0
   281  000676  30                 	db	48	;'0'
   282  000677  30                 	db	48	;'0'
   283  000678  31                 	db	49	;'1'
   284  000679  31                 	db	49	;'1'
   285  00067A  00                 	db	0
   286  00067B  31                 	db	49	;'1'
   287  00067C  30                 	db	48	;'0'
   288  00067D  31                 	db	49	;'1'
   289  00067E  31                 	db	49	;'1'
   290  00067F  00                 	db	0
   291  000680  30                 	db	48	;'0'
   292  000681  31                 	db	49	;'1'
   293  000682  31                 	db	49	;'1'
   294  000683  31                 	db	49	;'1'
   295  000684  00                 	db	0
   296  000685  31                 	db	49	;'1'
   297  000686  31                 	db	49	;'1'
   298  000687  31                 	db	49	;'1'
   299  000688  31                 	db	49	;'1'
   300  000689  00                 	db	0
   301                           
   302                           ; #config settings
   303  00068A  00                 	db	0	; dummy byte at the end
   304  0000                     
   305                           	psect	cinit
   306  0026B2                     __pcinit:
   307                           	opt callstack 0
   308  0026B2                     start_initialization:
   309                           	opt callstack 0
   310  0026B2                     __initialization:
   311                           	opt callstack 0
   312                           
   313                           ; Initialize objects allocated to BANK0 (25 bytes)
   314                           ; load TBLPTR registers with __pidataBANK0
   315  0026B2  0EEC               	movlw	low __pidataBANK0
   316  0026B4  6EF6               	movwf	tblptrl,c
   317  0026B6  0E27               	movlw	high __pidataBANK0
   318  0026B8  6EF7               	movwf	tblptrh,c
   319  0026BA  0E00               	movlw	low (__pidataBANK0 shr (0+16))
   320  0026BC  6EF8               	movwf	tblptru,c
   321  0026BE  EE00  F0D1         	lfsr	0,__pdataBANK0
   322  0026C2  EE10 F019          	lfsr	1,25
   323  0026C6                     copy_data0:
   324  0026C6  0009               	tblrd		*+
   325  0026C8  CFF5 FFEE          	movff	tablat,postinc0
   326  0026CC  50E5               	movf	postdec1,w,c
   327  0026CE  50E1               	movf	fsr1l,w,c
   328  0026D0  E1FA               	bnz	copy_data0
   329                           
   330                           ; Clear objects allocated to BANK0 (5 bytes)
   331  0026D2  0100               	movlb	0
   332  0026D4  6BEE               	clrf	(__pbssBANK0+4)& (0+255),b
   333  0026D6  6BED               	clrf	(__pbssBANK0+3)& (0+255),b
   334  0026D8  6BEC               	clrf	(__pbssBANK0+2)& (0+255),b
   335  0026DA  6BEB               	clrf	(__pbssBANK0+1)& (0+255),b
   336  0026DC  6BEA               	clrf	__pbssBANK0& (0+255),b
   337                           
   338                           ; Clear objects allocated to COMRAM (19 bytes)
   339  0026DE  EE00  F04E         	lfsr	0,__pbssCOMRAM
   340  0026E2  0E13               	movlw	19
   341  0026E4                     clear_0:
   342  0026E4  6AEE               	clrf	postinc0,c
   343  0026E6  06E8               	decf	wreg,f,c
   344  0026E8  E1FD               	bnz	clear_0
   345  0026EA                     end_of_initialization:
   346                           	opt callstack 0
   347  0026EA                     __end_of__initialization:
   348                           	opt callstack 0
   349  0026EA  9061               	bcf	int$flags,0,c	;clear compiler interrupt flag (level 1)
   350  0026EC  9261               	bcf	int$flags,1,c	;clear compiler interrupt flag (level 2)
   351  0026EE  0E00               	movlw	low (__Lmediumconst shr (0+16))
   352  0026F0  6EF8               	movwf	tblptru,c
   353  0026F2  0100               	movlb	0
   354  0026F4  EFAA  F010         	goto	_main	;jump to C main() function
   355                           
   356                           	psect	bssCOMRAM
   357  00004E                     __pbssCOMRAM:
   358                           	opt callstack 0
   359  00004E                     timer2_irq@CntTmrIncSec:
   360                           	opt callstack 0
   361  00004E                     	ds	4
   362  000052                     timer2_irq@CntTmrLedSec:
   363                           	opt callstack 0
   364  000052                     	ds	4
   365  000056                     _addr_ptr:
   366                           	opt callstack 0
   367  000056                     	ds	1
   368  000057                     _data_flag:
   369                           	opt callstack 0
   370  000057                     	ds	1
   371  000058                     _addr_flag:
   372                           	opt callstack 0
   373  000058                     	ds	1
   374  000059                     _time_has_changed:
   375                           	opt callstack 0
   376  000059                     	ds	1
   377  00005A                     _t:
   378                           	opt callstack 0
   379  00005A                     	ds	7
   380                           
   381                           	psect	bssBANK0
   382  0000EA                     __pbssBANK0:
   383                           	opt callstack 0
   384  0000EA                     ceilf@F524:
   385                           	opt callstack 0
   386  0000EA                     	ds	4
   387  0000EE                     _update_7seg:
   388                           	opt callstack 0
   389  0000EE                     	ds	1
   390                           
   391                           	psect	dataBANK0
   392  0000D1                     __pdataBANK0:
   393                           	opt callstack 0
   394  0000D1                     uart_write_date@F3039:
   395                           	opt callstack 0
   396  0000D1                     	ds	14
   397  0000DF                     main@F2662:
   398                           	opt callstack 0
   399  0000DF                     	ds	11
   400                           
   401                           	psect	cstackBANK0
   402  000080                     __pcstackBANK0:
   403                           	opt callstack 0
   404  000080                     ??___fldiv:
   405                           
   406                           ; 1 bytes @ 0x0
   407  000080                     	ds	4
   408  000084                     ___fldiv@rem:
   409                           	opt callstack 0
   410                           
   411                           ; 4 bytes @ 0x4
   412  000084                     	ds	4
   413  000088                     ___fldiv@sign:
   414                           	opt callstack 0
   415                           
   416                           ; 1 bytes @ 0x8
   417  000088                     	ds	1
   418  000089                     ___fldiv@new_exp:
   419                           	opt callstack 0
   420                           
   421                           ; 2 bytes @ 0x9
   422  000089                     	ds	2
   423  00008B                     ___fldiv@grs:
   424                           	opt callstack 0
   425                           
   426                           ; 4 bytes @ 0xB
   427  00008B                     	ds	4
   428  00008F                     ___fldiv@bexp:
   429                           	opt callstack 0
   430                           
   431                           ; 1 bytes @ 0xF
   432  00008F                     	ds	1
   433  000090                     ___fldiv@aexp:
   434                           	opt callstack 0
   435                           
   436                           ; 1 bytes @ 0x10
   437  000090                     	ds	1
   438  000091                     ?___fladd:
   439                           	opt callstack 0
   440  000091                     ___fladd@b:
   441                           	opt callstack 0
   442                           
   443                           ; 4 bytes @ 0x11
   444  000091                     	ds	4
   445  000095                     ___fladd@a:
   446                           	opt callstack 0
   447                           
   448                           ; 4 bytes @ 0x15
   449  000095                     	ds	4
   450  000099                     ??___fladd:
   451                           
   452                           ; 1 bytes @ 0x19
   453  000099                     	ds	4
   454  00009D                     ___fladd@signs:
   455                           	opt callstack 0
   456                           
   457                           ; 1 bytes @ 0x1D
   458  00009D                     	ds	1
   459  00009E                     ___fladd@aexp:
   460                           	opt callstack 0
   461                           
   462                           ; 1 bytes @ 0x1E
   463  00009E                     	ds	1
   464  00009F                     ___fladd@bexp:
   465                           	opt callstack 0
   466                           
   467                           ; 1 bytes @ 0x1F
   468  00009F                     	ds	1
   469  0000A0                     ___fladd@grs:
   470                           	opt callstack 0
   471                           
   472                           ; 1 bytes @ 0x20
   473  0000A0                     	ds	1
   474  0000A1                     ?_ceilf:
   475                           	opt callstack 0
   476  0000A1                     ceilf@x:
   477                           	opt callstack 0
   478                           
   479                           ; 4 bytes @ 0x21
   480  0000A1                     	ds	4
   481  0000A5                     ??_ceilf:
   482                           
   483                           ; 1 bytes @ 0x25
   484  0000A5                     	ds	6
   485  0000AB                     ceilf@m:
   486                           	opt callstack 0
   487                           
   488                           ; 4 bytes @ 0x2B
   489  0000AB                     	ds	4
   490  0000AF                     ceilf@e:
   491                           	opt callstack 0
   492                           
   493                           ; 2 bytes @ 0x2F
   494  0000AF                     	ds	2
   495  0000B1                     ceilf@u:
   496                           	opt callstack 0
   497                           
   498                           ; 4 bytes @ 0x31
   499  0000B1                     	ds	4
   500  0000B5                     uart_init@baudrate:
   501                           	opt callstack 0
   502                           
   503                           ; 4 bytes @ 0x35
   504  0000B5                     	ds	4
   505  0000B9                     uart_init@opt:
   506                           	opt callstack 0
   507                           
   508                           ; 2 bytes @ 0x39
   509  0000B9                     	ds	2
   510  0000BB                     uart_init@UART_BRG:
   511                           	opt callstack 0
   512                           
   513                           ; 4 bytes @ 0x3B
   514  0000BB                     	ds	4
   515  0000BF                     uart_init@uart_id:
   516                           	opt callstack 0
   517                           
   518                           ; 1 bytes @ 0x3F
   519  0000BF                     	ds	1
   520  0000C0                     ??_main:
   521                           
   522                           ; 1 bytes @ 0x40
   523  0000C0                     	ds	1
   524  0000C1                     main@segments:
   525                           	opt callstack 0
   526                           
   527                           ; 11 bytes @ 0x41
   528  0000C1                     	ds	11
   529  0000CC                     main@bcd:
   530                           	opt callstack 0
   531                           
   532                           ; 5 bytes @ 0x4C
   533  0000CC                     	ds	5
   534                           
   535                           	psect	cstackCOMRAM
   536  000001                     __pcstackCOMRAM:
   537                           	opt callstack 0
   538  000001                     ?___awdiv:
   539                           	opt callstack 0
   540  000001                     ?___awmod:
   541                           	opt callstack 0
   542  000001                     i2i2c_wait_ack@i:
   543                           	opt callstack 0
   544  000001                     ___awdiv@dividend:
   545                           	opt callstack 0
   546  000001                     ___awmod@dividend:
   547                           	opt callstack 0
   548  000001                     i2datetime_increase_days@t:
   549                           	opt callstack 0
   550                           
   551                           ; 2 bytes @ 0x0
   552  000001                     	ds	1
   553  000002                     i2i2c_write@data:
   554                           	opt callstack 0
   555                           
   556                           ; 1 bytes @ 0x1
   557  000002                     	ds	1
   558  000003                     i2i2c_write@bus_id:
   559                           	opt callstack 0
   560  000003                     ___awdiv@divisor:
   561                           	opt callstack 0
   562  000003                     ___awmod@divisor:
   563                           	opt callstack 0
   564                           
   565                           ; 2 bytes @ 0x2
   566  000003                     	ds	1
   567  000004                     i2i2c_write@result:
   568                           	opt callstack 0
   569  000004                     i2datetime_increase_hours@t:
   570                           	opt callstack 0
   571                           
   572                           ; 2 bytes @ 0x3
   573  000004                     	ds	1
   574  000005                     ___awdiv@counter:
   575                           	opt callstack 0
   576  000005                     ___awmod@counter:
   577                           	opt callstack 0
   578                           
   579                           ; 1 bytes @ 0x4
   580  000005                     	ds	1
   581  000006                     ___awdiv@sign:
   582                           	opt callstack 0
   583  000006                     ___awmod@sign:
   584                           	opt callstack 0
   585                           
   586                           ; 1 bytes @ 0x5
   587  000006                     	ds	1
   588  000007                     ___awdiv@quotient:
   589                           	opt callstack 0
   590  000007                     i2datetime_increase_minutes@t:
   591                           	opt callstack 0
   592                           
   593                           ; 2 bytes @ 0x6
   594  000007                     	ds	2
   595  000009                     bin_2_bcd@bcd:
   596                           	opt callstack 0
   597                           
   598                           ; 2 bytes @ 0x8
   599  000009                     	ds	1
   600  00000A                     datetime_increase_seconds@t:
   601                           	opt callstack 0
   602                           
   603                           ; 2 bytes @ 0x9
   604  00000A                     	ds	1
   605  00000B                     ??_bin_2_bcd:
   606                           
   607                           ; 1 bytes @ 0xA
   608  00000B                     	ds	1
   609  00000C                     
   610                           ; 1 bytes @ 0xB
   611  00000C                     	ds	1
   612  00000D                     bin_2_bcd@bin:
   613                           	opt callstack 0
   614                           
   615                           ; 1 bytes @ 0xC
   616  00000D                     	ds	1
   617  00000E                     ds1307_set_time@adr_chip:
   618                           	opt callstack 0
   619                           
   620                           ; 1 bytes @ 0xD
   621  00000E                     	ds	1
   622  00000F                     ds1307_set_time@t:
   623                           	opt callstack 0
   624                           
   625                           ; 7 bytes @ 0xE
   626  00000F                     	ds	7
   627  000016                     ds1307_set_time@i2c_bus_id:
   628                           	opt callstack 0
   629                           
   630                           ; 1 bytes @ 0x15
   631  000016                     	ds	1
   632  000017                     ds1307_set_time@tmp:
   633                           	opt callstack 0
   634                           
   635                           ; 1 bytes @ 0x16
   636  000017                     	ds	1
   637  000018                     ??_timer2_irq:
   638                           
   639                           ; 1 bytes @ 0x17
   640  000018                     	ds	7
   641  00001F                     ?___fltol:
   642                           	opt callstack 0
   643  00001F                     ?___xxtofl:
   644                           	opt callstack 0
   645  00001F                     i2c_wait_ack@i:
   646                           	opt callstack 0
   647  00001F                     uart_write@data:
   648                           	opt callstack 0
   649  00001F                     delay_ms@loop:
   650                           	opt callstack 0
   651  00001F                     pwm_set_duty@duty:
   652                           	opt callstack 0
   653  00001F                     dec_2_bcd@dec:
   654                           	opt callstack 0
   655  00001F                     datetime_decrease_days@t:
   656                           	opt callstack 0
   657  00001F                     datetime_increase_days@t:
   658                           	opt callstack 0
   659  00001F                     ___fltol@f1:
   660                           	opt callstack 0
   661  00001F                     ___xxtofl@val:
   662                           	opt callstack 0
   663                           
   664                           ; 4 bytes @ 0x1E
   665  00001F                     	ds	1
   666  000020                     i2c_write@data:
   667                           	opt callstack 0
   668  000020                     uart_write@uart_id:
   669                           	opt callstack 0
   670                           
   671                           ; 1 bytes @ 0x1F
   672  000020                     	ds	1
   673  000021                     ??_pwm_set_duty:
   674  000021                     i2c_write@bus_id:
   675                           	opt callstack 0
   676  000021                     delay_ms@i:
   677                           	opt callstack 0
   678  000021                     dec_2_bcd@bcd:
   679                           	opt callstack 0
   680  000021                     datetime_decrease_hours@t:
   681                           	opt callstack 0
   682                           
   683                           ; 2 bytes @ 0x20
   684  000021                     	ds	1
   685  000022                     i2c_write@result:
   686                           	opt callstack 0
   687  000022                     datetime_increase_hours@t:
   688                           	opt callstack 0
   689                           
   690                           ; 2 bytes @ 0x21
   691  000022                     	ds	1
   692  000023                     ??___fltol:
   693  000023                     ??___xxtofl:
   694  000023                     pwm_set_duty@pwm_id:
   695                           	opt callstack 0
   696  000023                     pcf8574_write_port@adr_chip:
   697                           	opt callstack 0
   698  000023                     delay_ms@k:
   699                           	opt callstack 0
   700  000023                     datetime_decrease_minutes@t:
   701                           	opt callstack 0
   702                           
   703                           ; 2 bytes @ 0x22
   704  000023                     	ds	1
   705  000024                     pcf8574_write_port@data:
   706                           	opt callstack 0
   707                           
   708                           ; 1 bytes @ 0x23
   709  000024                     	ds	1
   710  000025                     pcf8574_write_port@i2c_bus_id:
   711                           	opt callstack 0
   712  000025                     datetime_increase_minutes@t:
   713                           	opt callstack 0
   714                           
   715                           ; 2 bytes @ 0x24
   716  000025                     	ds	2
   717  000027                     ___fltol@sign1:
   718                           	opt callstack 0
   719  000027                     ___xxtofl@sign:
   720                           	opt callstack 0
   721                           
   722                           ; 1 bytes @ 0x26
   723  000027                     	ds	1
   724  000028                     ___fltol@exp1:
   725                           	opt callstack 0
   726  000028                     ___xxtofl@exp:
   727                           	opt callstack 0
   728                           
   729                           ; 1 bytes @ 0x27
   730  000028                     	ds	1
   731  000029                     ___xxtofl@arg:
   732                           	opt callstack 0
   733                           
   734                           ; 4 bytes @ 0x28
   735  000029                     	ds	4
   736  00002D                     ?___flmul:
   737                           	opt callstack 0
   738  00002D                     ___flmul@b:
   739                           	opt callstack 0
   740                           
   741                           ; 4 bytes @ 0x2C
   742  00002D                     	ds	4
   743  000031                     ___flmul@a:
   744                           	opt callstack 0
   745                           
   746                           ; 4 bytes @ 0x30
   747  000031                     	ds	4
   748  000035                     ??___flmul:
   749                           
   750                           ; 1 bytes @ 0x34
   751  000035                     	ds	4
   752  000039                     ___flmul@sign:
   753                           	opt callstack 0
   754                           
   755                           ; 1 bytes @ 0x38
   756  000039                     	ds	1
   757  00003A                     ___flmul@grs:
   758                           	opt callstack 0
   759                           
   760                           ; 4 bytes @ 0x39
   761  00003A                     	ds	4
   762  00003E                     ___flmul@aexp:
   763                           	opt callstack 0
   764                           
   765                           ; 1 bytes @ 0x3D
   766  00003E                     	ds	1
   767  00003F                     ___flmul@bexp:
   768                           	opt callstack 0
   769                           
   770                           ; 1 bytes @ 0x3E
   771  00003F                     	ds	1
   772  000040                     ___flmul@prod:
   773                           	opt callstack 0
   774                           
   775                           ; 4 bytes @ 0x3F
   776  000040                     	ds	4
   777  000044                     ___flmul@temp:
   778                           	opt callstack 0
   779                           
   780                           ; 2 bytes @ 0x43
   781  000044                     	ds	2
   782  000046                     ?___fldiv:
   783                           	opt callstack 0
   784  000046                     ___fldiv@b:
   785                           	opt callstack 0
   786                           
   787                           ; 4 bytes @ 0x45
   788  000046                     	ds	4
   789  00004A                     ___fldiv@a:
   790                           	opt callstack 0
   791                           
   792                           ; 4 bytes @ 0x49
   793  00004A                     	ds	4
   794  00004E                     
   795                           ; 1 bytes @ 0x4D
   796 ;;
   797 ;;Main: autosize = 0, tempsize = 1, incstack = 0, save=0
   798 ;;
   799 ;; *************** function _main *****************
   800 ;; Defined at:
   801 ;;		line 103 in file "main.c"
   802 ;; Parameters:    Size  Location     Type
   803 ;;		None
   804 ;; Auto vars:     Size  Location     Type
   805 ;;  segments       11   65[BANK0 ] unsigned char [11]
   806 ;;  bcd             5   76[BANK0 ] unsigned char [5]
   807 ;; Return value:  Size  Location     Type
   808 ;;                  1    wreg      void 
   809 ;; Registers used:
   810 ;;		wreg, fsr1l, fsr1h, fsr2l, fsr2h, status,2, status,0, prodl, prodh, cstack
   811 ;; Tracked objects:
   812 ;;		On entry : 0/0
   813 ;;		On exit  : 0/0
   814 ;;		Unchanged: 0/0
   815 ;; Data sizes:     COMRAM   BANK0   BANK1   BANK2   BANK3   BANK4   BANK5
   816 ;;      Params:         0       0       0       0       0       0       0
   817 ;;      Locals:         0      16       0       0       0       0       0
   818 ;;      Temps:          0       1       0       0       0       0       0
   819 ;;      Totals:         0      17       0       0       0       0       0
   820 ;;Total ram usage:       17 bytes
   821 ;; Hardware stack levels required when called:    8
   822 ;; This function calls:
   823 ;;		_datetime_decrease_hours
   824 ;;		_datetime_decrease_minutes
   825 ;;		_datetime_increase_hours
   826 ;;		_datetime_increase_minutes
   827 ;;		_dec_2_bcd
   828 ;;		_delay_ms
   829 ;;		_pcf8574_write_port
   830 ;;		_pwm_set_duty
   831 ;;		_uart_init
   832 ;;		_uart_write
   833 ;; This function is called by:
   834 ;;		Startup code after reset
   835 ;; This function uses a non-reentrant model
   836 ;;
   837                           
   838                           	psect	text0
   839  002154                     __ptext0:
   840                           	opt callstack 0
   841  002154                     _main:
   842                           	opt callstack 23
   843  002154  FFFF               	dw	65535	; assembler added errata NOP
   844                           
   845                           ;main.c: 105:     u8 bcd[5];;main.c: 106:     u8 segments[11] = {
   846  002156  EE20  F0DF         	lfsr	2,main@F2662
   847  00215A  EE10  F0C1         	lfsr	1,main@segments
   848  00215E  0E0A               	movlw	10
   849  002160                     u5791:
   850  002160  CFDB FFE3          	movff	plusw2,plusw1
   851  002164  06E8               	decf	wreg,f,c
   852  002166  E2FC               	bc	u5791
   853  002168                     
   854                           ;main.c: 110:     t.hrs = 22;
   855  002168  0E16               	movlw	22
   856  00216A  6E5A               	movwf	_t^0,c
   857  00216C                     
   858                           ;main.c: 111:     t.min = 17;
   859  00216C  0E11               	movlw	17
   860  00216E  6E5B               	movwf	(_t+1)^0,c
   861  002170                     
   862                           ;main.c: 112:     t.sec = 0;
   863  002170  0E00               	movlw	0
   864  002172  6E5C               	movwf	(_t+2)^0,c
   865  002174                     
   866                           ;main.c: 113:     t.dow = 6;
   867  002174  0E06               	movlw	6
   868  002176  6E5D               	movwf	(_t+3)^0,c
   869  002178                     
   870                           ;main.c: 114:     t.day = 19;
   871  002178  0E13               	movlw	19
   872  00217A  6E5E               	movwf	(_t+4)^0,c
   873  00217C                     
   874                           ;main.c: 115:     t.mth = 04;
   875  00217C  0E04               	movlw	4
   876  00217E  6E5F               	movwf	(_t+5)^0,c
   877  002180                     
   878                           ;main.c: 116:     t.yrs = 20;
   879  002180  0E14               	movlw	20
   880  002182  6E60               	movwf	(_t+6)^0,c
   881  002184                     
   882                           ;main.c: 119:     TRISA = 0x01;
   883  002184  0E01               	movlw	1
   884  002186  6E92               	movwf	146,c	;volatile
   885  002188                     
   886                           ;main.c: 120:     TRISB = 0b00011000;
   887  002188  0E18               	movlw	24
   888  00218A  6E93               	movwf	147,c	;volatile
   889  00218C                     
   890                           ;main.c: 121:     TRISC = 0b01110000;
   891  00218C  0E70               	movlw	112
   892  00218E  6E94               	movwf	148,c	;volatile
   893  002190                     
   894                           ;main.c: 122:     ADCON1 = 0x0E;
   895  002190  0E0E               	movlw	14
   896  002192  6EC1               	movwf	193,c	;volatile
   897  002194                     
   898                           ;main.c: 125:     uart_init(UART_ID_1, 115200, 0);
   899  002194  0E00               	movlw	0
   900  002196  0100               	movlb	0	; () banked
   901  002198  6FB5               	movwf	uart_init@baudrate& (0+255),b
   902  00219A  0EC2               	movlw	194
   903  00219C  6FB6               	movwf	(uart_init@baudrate+1)& (0+255),b
   904  00219E  0E01               	movlw	1
   905  0021A0  6FB7               	movwf	(uart_init@baudrate+2)& (0+255),b
   906  0021A2  0E00               	movlw	0
   907  0021A4  6FB8               	movwf	(uart_init@baudrate+3)& (0+255),b
   908  0021A6  0E00               	movlw	0
   909  0021A8  6FBA               	movwf	(uart_init@opt+1)& (0+255),b
   910  0021AA  0E00               	movlw	0
   911  0021AC  6FB9               	movwf	uart_init@opt& (0+255),b
   912  0021AE  0E00               	movlw	0
   913  0021B0  ECD4  F00E         	call	_uart_init
   914  0021B4                     l5337:
   915  0021B4  FFFF               	dw	65535	; assembler added errata NOP
   916                           
   917                           ;main.c: 148:         LATCbits.LATC0 = !LATCbits.LATC0;
   918  0021B6  A08B               	btfss	139,0,c	;volatile
   919  0021B8  EFE0  F010         	goto	u5801
   920  0021BC  EFE6  F010         	goto	u5800
   921  0021C0                     u5801:
   922  0021C0  FFFF               	dw	65535	; assembler added errata NOP
   923  0021C2  0100               	movlb	0	; () banked
   924  0021C4  6BC0               	clrf	??_main& (0+255),b
   925  0021C6  2BC0               	incf	??_main& (0+255),f,b
   926  0021C8  EFE9  F010         	goto	u5818
   927  0021CC                     u5800:
   928  0021CC  FFFF               	dw	65535	; assembler added errata NOP
   929  0021CE  0100               	movlb	0	; () banked
   930  0021D0  6BC0               	clrf	??_main& (0+255),b
   931  0021D2                     u5818:
   932  0021D2  FFFF               	dw	65535	; assembler added errata NOP
   933  0021D4  508B               	movf	139,w,c	;volatile
   934  0021D6  19C0               	xorwf	??_main& (0+255),w,b
   935  0021D8  0BFE               	andlw	-2
   936  0021DA  19C0               	xorwf	??_main& (0+255),w,b
   937  0021DC  6E8B               	movwf	139,c	;volatile
   938  0021DE                     
   939                           ; BSR set to: 0
   940                           ;main.c: 149:         delay_ms(100);
   941  0021DE  0E00               	movlw	0
   942  0021E0  6E20               	movwf	(delay_ms@loop+1)^0,c
   943  0021E2  0E64               	movlw	100
   944  0021E4  6E1F               	movwf	delay_ms@loop^0,c
   945  0021E6  EC3C  F011         	call	_delay_ms	;wreg free
   946  0021EA                     
   947                           ;main.c: 150:         uart_write(UART_ID_1, 'f');
   948  0021EA  0E66               	movlw	102
   949  0021EC  6E1F               	movwf	uart_write@data^0,c
   950  0021EE  0E00               	movlw	0
   951  0021F0  EC9F  F013         	call	_uart_write
   952  0021F4  EFDA  F010         	goto	l5337
   953  0021F8  EF99  F001         	goto	start
   954  0021FC                     __end_of_main:
   955                           	opt callstack 0
   956                           
   957 ;; *************** function _uart_write *****************
   958 ;; Defined at:
   959 ;;		line 212 in file "../../lib_pic/uart.c"
   960 ;; Parameters:    Size  Location     Type
   961 ;;  uart_id         1    wreg     enum E2932
   962 ;;  data            1   30[COMRAM] unsigned char 
   963 ;; Auto vars:     Size  Location     Type
   964 ;;  uart_id         1   31[COMRAM] enum E2932
   965 ;; Return value:  Size  Location     Type
   966 ;;                  1    wreg      enum E2383
   967 ;; Registers used:
   968 ;;		wreg, status,2
   969 ;; Tracked objects:
   970 ;;		On entry : 0/0
   971 ;;		On exit  : 0/0
   972 ;;		Unchanged: 0/0
   973 ;; Data sizes:     COMRAM   BANK0   BANK1   BANK2   BANK3   BANK4   BANK5
   974 ;;      Params:         1       0       0       0       0       0       0
   975 ;;      Locals:         1       0       0       0       0       0       0
   976 ;;      Temps:          0       0       0       0       0       0       0
   977 ;;      Totals:         2       0       0       0       0       0       0
   978 ;;Total ram usage:        2 bytes
   979 ;; Hardware stack levels used:    1
   980 ;; Hardware stack levels required when called:    5
   981 ;; This function calls:
   982 ;;		Nothing
   983 ;; This function is called by:
   984 ;;		_main
   985 ;;		_uart_write_char
   986 ;;		_uart_write_hexa_u8
   987 ;;		_uart_write_u8
   988 ;;		_uart_write_hexa_u16
   989 ;;		_uart_write_u16
   990 ;;		_uart_write_hexa_u32
   991 ;;		_uart_write_u32
   992 ;;		_uart_write_date
   993 ;;		_uart_write_temperature
   994 ;; This function uses a non-reentrant model
   995 ;;
   996                           
   997                           	psect	text1
   998  00273E                     __ptext1:
   999                           	opt callstack 0
  1000  00273E                     _uart_write:
  1001                           	opt callstack 0
  1002  00273E  FFFF               	dw	65535	; assembler added errata NOP
  1003                           
  1004                           ;incstack = 0
  1005                           ;uart_write@uart_id stored from wreg
  1006  002740  6E20               	movwf	uart_write@uart_id^0,c
  1007  002742                     
  1008                           ;../../lib_pic/uart.c: 212: result_t uart_write (UART_ID uart_id, u8 data);../../lib_pic
      +                          /uart.c: 213: {;../../lib_pic/uart.c: 216:         if (uart_id == UART_ID_1){
  1009  002742  5020               	movf	uart_write@uart_id^0,w,c
  1010  002744  A4D8               	btfss	status,2,c
  1011  002746  EFA7  F013         	goto	u4601
  1012  00274A  EFAA  F013         	goto	u4600
  1013  00274E                     u4601:
  1014  00274E  FFFF               	dw	65535	; assembler added errata NOP
  1015  002750  EFB7  F013         	goto	l665
  1016  002754                     u4600:
  1017  002754  FFFF               	dw	65535	; assembler added errata NOP
  1018  002756                     l662:
  1019  002756  FFFF               	dw	65535	; assembler added errata NOP
  1020  002758  A2AC               	btfss	172,1,c	;volatile
  1021  00275A  EFB1  F013         	goto	u4611
  1022  00275E  EFB4  F013         	goto	u4610
  1023  002762                     u4611:
  1024  002762  FFFF               	dw	65535	; assembler added errata NOP
  1025  002764  EFAB  F013         	goto	l662
  1026  002768                     u4610:
  1027  002768  FFFF               	dw	65535	; assembler added errata NOP
  1028  00276A                     
  1029                           ;../../lib_pic/uart.c: 218:             TXREG = data;
  1030  00276A  C01F  FFAD         	movff	uart_write@data,4013	;volatile
  1031  00276E                     l665:
  1032  00276E  FFFF               	dw	65535	; assembler added errata NOP
  1033  002770  0012               	return		;funcret
  1034  002772  FFFF               	dw	65535	; errata NOP
  1035  002774                     __end_of_uart_write:
  1036                           	opt callstack 0
  1037                           
  1038 ;; *************** function _uart_init *****************
  1039 ;; Defined at:
  1040 ;;		line 37 in file "../../lib_pic/uart.c"
  1041 ;; Parameters:    Size  Location     Type
  1042 ;;  uart_id         1    wreg     enum E2932
  1043 ;;  baudrate        4   53[BANK0 ] unsigned long 
  1044 ;;  opt             2   57[BANK0 ] unsigned short 
  1045 ;; Auto vars:     Size  Location     Type
  1046 ;;  uart_id         1   63[BANK0 ] enum E2932
  1047 ;;  UART_BRG        4   59[BANK0 ] float 
  1048 ;; Return value:  Size  Location     Type
  1049 ;;                  1    wreg      enum E2383
  1050 ;; Registers used:
  1051 ;;		wreg, status,2, status,0, prodl, prodh, cstack
  1052 ;; Tracked objects:
  1053 ;;		On entry : 0/0
  1054 ;;		On exit  : 0/0
  1055 ;;		Unchanged: 0/0
  1056 ;; Data sizes:     COMRAM   BANK0   BANK1   BANK2   BANK3   BANK4   BANK5
  1057 ;;      Params:         0       6       0       0       0       0       0
  1058 ;;      Locals:         0       5       0       0       0       0       0
  1059 ;;      Temps:          0       0       0       0       0       0       0
  1060 ;;      Totals:         0      11       0       0       0       0       0
  1061 ;;Total ram usage:       11 bytes
  1062 ;; Hardware stack levels used:    1
  1063 ;; Hardware stack levels required when called:    6
  1064 ;; This function calls:
  1065 ;;		___fladd
  1066 ;;		___fldiv
  1067 ;;		___flmul
  1068 ;;		___fltol
  1069 ;;		___xxtofl
  1070 ;;		_ceilf
  1071 ;;		_delay_ms
  1072 ;; This function is called by:
  1073 ;;		_main
  1074 ;; This function uses a non-reentrant model
  1075 ;;
  1076                           
  1077                           	psect	text2
  1078  001DA8                     __ptext2:
  1079                           	opt callstack 0
  1080  001DA8                     _uart_init:
  1081                           	opt callstack 0
  1082  001DA8  FFFF               	dw	65535	; assembler added errata NOP
  1083                           
  1084                           ;incstack = 0
  1085                           ;uart_init@uart_id stored from wreg
  1086  001DAA  0100               	movlb	0	; () banked
  1087  001DAC  6FBF               	movwf	uart_init@uart_id& (0+255),b
  1088  001DAE                     
  1089                           ;../../lib_pic/uart.c: 37: result_t uart_init (UART_ID uart_id, u32 baudrate, u16 opt);.
      +                          ./../lib_pic/uart.c: 38: {;../../lib_pic/uart.c: 41:         float UART_BRG = ceilf(((fl
      +                          oat)16000000L / (16.0 * baudrate)) - 1);
  1090  001DAE  0E00               	movlw	0
  1091  001DB0  6E31               	movwf	___flmul@a^0,c
  1092  001DB2  0E00               	movlw	0
  1093  001DB4  6E32               	movwf	(___flmul@a+1)^0,c
  1094  001DB6  0E80               	movlw	128
  1095  001DB8  6E33               	movwf	(___flmul@a+2)^0,c
  1096  001DBA  0E41               	movlw	65
  1097  001DBC  6E34               	movwf	(___flmul@a+3)^0,c
  1098  001DBE  C0B5  F01F         	movff	uart_init@baudrate,___xxtofl@val
  1099  001DC2  C0B6  F020         	movff	uart_init@baudrate+1,___xxtofl@val+1
  1100  001DC6  C0B7  F021         	movff	uart_init@baudrate+2,___xxtofl@val+2
  1101  001DCA  C0B8  F022         	movff	uart_init@baudrate+3,___xxtofl@val+3
  1102  001DCE  0E00               	movlw	0
  1103  001DD0  ECB1  F00B         	call	___xxtofl
  1104  001DD4  C01F  F02D         	movff	?___xxtofl,___flmul@b
  1105  001DD8  C020  F02E         	movff	?___xxtofl+1,___flmul@b+1
  1106  001DDC  C021  F02F         	movff	?___xxtofl+2,___flmul@b+2
  1107  001DE0  C022  F030         	movff	?___xxtofl+3,___flmul@b+3
  1108  001DE4  EC1B  F006         	call	___flmul	;wreg free
  1109  001DE8  C02D  F04A         	movff	?___flmul,___fldiv@a
  1110  001DEC  C02E  F04B         	movff	?___flmul+1,___fldiv@a+1
  1111  001DF0  C02F  F04C         	movff	?___flmul+2,___fldiv@a+2
  1112  001DF4  C030  F04D         	movff	?___flmul+3,___fldiv@a+3
  1113  001DF8  0E00               	movlw	0
  1114  001DFA  6E46               	movwf	___fldiv@b^0,c
  1115  001DFC  0E24               	movlw	36
  1116  001DFE  6E47               	movwf	(___fldiv@b+1)^0,c
  1117  001E00  0E74               	movlw	116
  1118  001E02  6E48               	movwf	(___fldiv@b+2)^0,c
  1119  001E04  0E4B               	movlw	75
  1120  001E06  6E49               	movwf	(___fldiv@b+3)^0,c
  1121  001E08  EC6D  F008         	call	___fldiv	;wreg free
  1122  001E0C  C046  F091         	movff	?___fldiv,___fladd@b
  1123  001E10  C047  F092         	movff	?___fldiv+1,___fladd@b+1
  1124  001E14  C048  F093         	movff	?___fldiv+2,___fladd@b+2
  1125  001E18  C049  F094         	movff	?___fldiv+3,___fladd@b+3
  1126  001E1C  0E00               	movlw	0
  1127  001E1E  0100               	movlb	0	; () banked
  1128  001E20  6F95               	movwf	___fladd@a& (0+255),b
  1129  001E22  0E00               	movlw	0
  1130  001E24  6F96               	movwf	(___fladd@a+1)& (0+255),b
  1131  001E26  0E80               	movlw	128
  1132  001E28  6F97               	movwf	(___fladd@a+2)& (0+255),b
  1133  001E2A  0EBF               	movlw	191
  1134  001E2C  6F98               	movwf	(___fladd@a+3)& (0+255),b
  1135  001E2E  EC46  F003         	call	___fladd	;wreg free
  1136  001E32  C091  F0A1         	movff	?___fladd,ceilf@x
  1137  001E36  C092  F0A2         	movff	?___fladd+1,ceilf@x+1
  1138  001E3A  C093  F0A3         	movff	?___fladd+2,ceilf@x+2
  1139  001E3E  C094  F0A4         	movff	?___fladd+3,ceilf@x+3
  1140  001E42  EC87  F00A         	call	_ceilf	;wreg free
  1141  001E46  C0A1  F0BB         	movff	?_ceilf,uart_init@UART_BRG
  1142  001E4A  C0A2  F0BC         	movff	?_ceilf+1,uart_init@UART_BRG+1
  1143  001E4E  C0A3  F0BD         	movff	?_ceilf+2,uart_init@UART_BRG+2
  1144  001E52  C0A4  F0BE         	movff	?_ceilf+3,uart_init@UART_BRG+3
  1145  001E56                     
  1146                           ;../../lib_pic/uart.c: 42:         SPBRG = (u16)UART_BRG;
  1147  001E56  C0BB  F01F         	movff	uart_init@UART_BRG,___fltol@f1
  1148  001E5A  C0BC  F020         	movff	uart_init@UART_BRG+1,___fltol@f1+1
  1149  001E5E  C0BD  F021         	movff	uart_init@UART_BRG+2,___fltol@f1+2
  1150  001E62  C0BE  F022         	movff	uart_init@UART_BRG+3,___fltol@f1+3
  1151  001E66  EC39  F00E         	call	___fltol	;wreg free
  1152  001E6A  501F               	movf	?___fltol^0,w,c
  1153  001E6C  6EAF               	movwf	175,c	;volatile
  1154  001E6E                     
  1155                           ;../../lib_pic/uart.c: 45:         if (uart_id == UART_ID_1){
  1156  001E6E  0100               	movlb	0	; () banked
  1157  001E70  51BF               	movf	uart_init@uart_id& (0+255),w,b
  1158  001E72  A4D8               	btfss	status,2,c
  1159  001E74  EF3E  F00F         	goto	u5781
  1160  001E78  EF41  F00F         	goto	u5780
  1161  001E7C                     u5781:
  1162  001E7C  FFFF               	dw	65535	; assembler added errata NOP
  1163  001E7E  EF48  F00F         	goto	l5307
  1164  001E82                     u5780:
  1165  001E82  FFFF               	dw	65535	; assembler added errata NOP
  1166  001E84                     
  1167                           ; BSR set to: 0
  1168                           ;../../lib_pic/uart.c: 47:             TXSTAbits.BRGH = 1;
  1169  001E84  84AC               	bsf	172,2,c	;volatile
  1170                           
  1171                           ;../../lib_pic/uart.c: 50:             TXSTAbits.TXEN = 1;
  1172  001E86  8AAC               	bsf	172,5,c	;volatile
  1173                           
  1174                           ;../../lib_pic/uart.c: 53:             RCSTAbits.SPEN = 1;
  1175  001E88  8EAB               	bsf	171,7,c	;volatile
  1176                           
  1177                           ;../../lib_pic/uart.c: 56:             RCSTAbits.CREN = 1;
  1178  001E8A  88AB               	bsf	171,4,c	;volatile
  1179                           
  1180                           ;../../lib_pic/uart.c: 59:             TRISCbits.TRISC7 = 1;
  1181  001E8C  8E94               	bsf	148,7,c	;volatile
  1182                           
  1183                           ;../../lib_pic/uart.c: 60:             TRISCbits.TRISC6 = 0;
  1184  001E8E  9C94               	bcf	148,6,c	;volatile
  1185  001E90                     l5307:
  1186  001E90  FFFF               	dw	65535	; assembler added errata NOP
  1187                           
  1188                           ; BSR set to: 0
  1189                           ;../../lib_pic/uart.c: 170:     delay_ms(30);
  1190  001E92  0E00               	movlw	0
  1191  001E94  6E20               	movwf	(delay_ms@loop+1)^0,c
  1192  001E96  0E1E               	movlw	30
  1193  001E98  6E1F               	movwf	delay_ms@loop^0,c
  1194  001E9A  EC3C  F011         	call	_delay_ms	;wreg free
  1195  001E9E  0012               	return		;funcret
  1196  001EA0  FFFF               	dw	65535	; errata NOP
  1197  001EA2                     __end_of_uart_init:
  1198                           	opt callstack 0
  1199                           
  1200 ;; *************** function _delay_ms *****************
  1201 ;; Defined at:
  1202 ;;		line 39 in file "../../lib_misc/delays.c"
  1203 ;; Parameters:    Size  Location     Type
  1204 ;;  loop            2   30[COMRAM] unsigned short 
  1205 ;; Auto vars:     Size  Location     Type
  1206 ;;  k               2   34[COMRAM] unsigned short 
  1207 ;;  i               2   32[COMRAM] unsigned short 
  1208 ;; Return value:  Size  Location     Type
  1209 ;;                  1    wreg      void 
  1210 ;; Registers used:
  1211 ;;		wreg, status,2, status,0
  1212 ;; Tracked objects:
  1213 ;;		On entry : 0/0
  1214 ;;		On exit  : 0/0
  1215 ;;		Unchanged: 0/0
  1216 ;; Data sizes:     COMRAM   BANK0   BANK1   BANK2   BANK3   BANK4   BANK5
  1217 ;;      Params:         2       0       0       0       0       0       0
  1218 ;;      Locals:         4       0       0       0       0       0       0
  1219 ;;      Temps:          0       0       0       0       0       0       0
  1220 ;;      Totals:         6       0       0       0       0       0       0
  1221 ;;Total ram usage:        6 bytes
  1222 ;; Hardware stack levels used:    1
  1223 ;; Hardware stack levels required when called:    5
  1224 ;; This function calls:
  1225 ;;		Nothing
  1226 ;; This function is called by:
  1227 ;;		_main
  1228 ;;		_uart_init
  1229 ;;		_i2c_init
  1230 ;; This function uses a non-reentrant model
  1231 ;;
  1232                           
  1233                           	psect	text3
  1234  002278                     __ptext3:
  1235                           	opt callstack 0
  1236  002278                     _delay_ms:
  1237                           	opt callstack 0
  1238  002278  FFFF               	dw	65535	; assembler added errata NOP
  1239  00227A                     
  1240                           ;../../lib_misc/delays.c: 39: void delay_ms (u16 loop);../../lib_misc/delays.c: 40: {;..
      +                          /../lib_misc/delays.c: 47:     u16 i, k;;../../lib_misc/delays.c: 48:     for (i=loop; i
      +                          !=0; i--)
  1241  00227A  C01F  F021         	movff	delay_ms@loop,delay_ms@i
  1242  00227E  C020  F022         	movff	delay_ms@loop+1,delay_ms@i+1
  1243  002282                     l3653:
  1244  002282  FFFF               	dw	65535	; assembler added errata NOP
  1245  002284  5021               	movf	delay_ms@i^0,w,c
  1246  002286  1022               	iorwf	(delay_ms@i+1)^0,w,c
  1247  002288  A4D8               	btfss	status,2,c
  1248  00228A  EF49  F011         	goto	u3311
  1249  00228E  EF4C  F011         	goto	u3310
  1250  002292                     u3311:
  1251  002292  FFFF               	dw	65535	; assembler added errata NOP
  1252  002294  EF4F  F011         	goto	l3657
  1253  002298                     u3310:
  1254  002298  FFFF               	dw	65535	; assembler added errata NOP
  1255  00229A  EF68  F011         	goto	l213
  1256  00229E                     l3657:
  1257  00229E  FFFF               	dw	65535	; assembler added errata NOP
  1258                           
  1259                           ;../../lib_misc/delays.c: 49:         for (k=16000000L/80300; k!=0; k--);
  1260  0022A0  0E00               	movlw	0
  1261  0022A2  6E24               	movwf	(delay_ms@k+1)^0,c
  1262  0022A4  0EC7               	movlw	199
  1263  0022A6  6E23               	movwf	delay_ms@k^0,c
  1264  0022A8                     l3663:
  1265  0022A8  FFFF               	dw	65535	; assembler added errata NOP
  1266  0022AA  0623               	decf	delay_ms@k^0,f,c
  1267  0022AC  A0D8               	btfss	status,0,c
  1268  0022AE  0624               	decf	(delay_ms@k+1)^0,f,c
  1269  0022B0  5023               	movf	delay_ms@k^0,w,c
  1270  0022B2  1024               	iorwf	(delay_ms@k+1)^0,w,c
  1271  0022B4  A4D8               	btfss	status,2,c
  1272  0022B6  EF5F  F011         	goto	u3321
  1273  0022BA  EF62  F011         	goto	u3320
  1274  0022BE                     u3321:
  1275  0022BE  FFFF               	dw	65535	; assembler added errata NOP
  1276  0022C0  EF54  F011         	goto	l3663
  1277  0022C4                     u3320:
  1278  0022C4  FFFF               	dw	65535	; assembler added errata NOP
  1279  0022C6  0621               	decf	delay_ms@i^0,f,c
  1280  0022C8  A0D8               	btfss	status,0,c
  1281  0022CA  0622               	decf	(delay_ms@i+1)^0,f,c
  1282  0022CC  EF41  F011         	goto	l3653
  1283  0022D0                     l213:
  1284  0022D0  FFFF               	dw	65535	; assembler added errata NOP
  1285  0022D2  0012               	return		;funcret
  1286  0022D4  FFFF               	dw	65535	; errata NOP
  1287  0022D6                     __end_of_delay_ms:
  1288                           	opt callstack 0
  1289                           
  1290 ;; *************** function _ceilf *****************
  1291 ;; Defined at:
  1292 ;;		line 3 in file "C:\Programs\Microchip\xc8\v2.10\pic\sources\c99\common\ceilf.c"
  1293 ;; Parameters:    Size  Location     Type
  1294 ;;  x               4   33[BANK0 ] float 
  1295 ;; Auto vars:     Size  Location     Type
  1296 ;;  u               4   49[BANK0 ] struct .
  1297 ;;  m               4   43[BANK0 ] unsigned long 
  1298 ;;  e               2   47[BANK0 ] int 
  1299 ;; Return value:  Size  Location     Type
  1300 ;;                  4   33[BANK0 ] float 
  1301 ;; Registers used:
  1302 ;;		wreg, status,2, status,0
  1303 ;; Tracked objects:
  1304 ;;		On entry : 0/0
  1305 ;;		On exit  : 0/0
  1306 ;;		Unchanged: 0/0
  1307 ;; Data sizes:     COMRAM   BANK0   BANK1   BANK2   BANK3   BANK4   BANK5
  1308 ;;      Params:         0       4       0       0       0       0       0
  1309 ;;      Locals:         0      10       0       0       0       0       0
  1310 ;;      Temps:          0       6       0       0       0       0       0
  1311 ;;      Totals:         0      20       0       0       0       0       0
  1312 ;;Total ram usage:       20 bytes
  1313 ;; Hardware stack levels used:    1
  1314 ;; Hardware stack levels required when called:    5
  1315 ;; This function calls:
  1316 ;;		Nothing
  1317 ;; This function is called by:
  1318 ;;		_uart_init
  1319 ;; This function uses a non-reentrant model
  1320 ;;
  1321                           
  1322                           	psect	text4
  1323  00150E                     __ptext4:
  1324                           	opt callstack 0
  1325  00150E                     _ceilf:
  1326                           	opt callstack 0
  1327  00150E  FFFF               	dw	65535	; assembler added errata NOP
  1328  001510  C0EA  F0B1         	movff	ceilf@F524,ceilf@u
  1329  001514  C0EB  F0B2         	movff	ceilf@F524+1,ceilf@u+1
  1330  001518  C0EC  F0B3         	movff	ceilf@F524+2,ceilf@u+2
  1331  00151C  C0ED  F0B4         	movff	ceilf@F524+3,ceilf@u+3
  1332  001520  C0A1  F0B1         	movff	ceilf@x,ceilf@u
  1333  001524  C0A2  F0B2         	movff	ceilf@x+1,ceilf@u+1
  1334  001528  C0A3  F0B3         	movff	ceilf@x+2,ceilf@u+2
  1335  00152C  C0A4  F0B4         	movff	ceilf@x+3,ceilf@u+3
  1336  001530  0E81               	movlw	129
  1337  001532  0100               	movlb	0	; () banked
  1338  001534  6FA5               	movwf	??_ceilf& (0+255),b
  1339  001536  0EFF               	movlw	255
  1340  001538  6FA6               	movwf	(??_ceilf+1)& (0+255),b
  1341  00153A  C0B1  F0A7         	movff	ceilf@u,??_ceilf+2
  1342  00153E  C0B2  F0A8         	movff	ceilf@u+1,??_ceilf+3
  1343  001542  C0B3  F0A9         	movff	ceilf@u+2,??_ceilf+4
  1344  001546  C0B4  F0AA         	movff	ceilf@u+3,??_ceilf+5
  1345  00154A  0E18               	movlw	24
  1346  00154C  EFAE  F00A         	goto	u3370
  1347  001550                     u3375:
  1348  001550  FFFF               	dw	65535	; assembler added errata NOP
  1349  001552  90D8               	bcf	status,0,c
  1350  001554  33AA               	rrcf	(??_ceilf+5)& (0+255),f,b
  1351  001556  33A9               	rrcf	(??_ceilf+4)& (0+255),f,b
  1352  001558  33A8               	rrcf	(??_ceilf+3)& (0+255),f,b
  1353  00155A  33A7               	rrcf	(??_ceilf+2)& (0+255),f,b
  1354  00155C                     u3370:
  1355  00155C  FFFF               	dw	65535	; assembler added errata NOP
  1356  00155E  2EE8               	decfsz	wreg,f,c
  1357  001560  EFA8  F00A         	goto	u3375
  1358  001564  51A7               	movf	(??_ceilf+2)& (0+255),w,b
  1359  001566  25A5               	addwf	??_ceilf& (0+255),w,b
  1360  001568  6FAF               	movwf	ceilf@e& (0+255),b
  1361  00156A  0E00               	movlw	0
  1362  00156C  21A6               	addwfc	(??_ceilf+1)& (0+255),w,b
  1363  00156E  6FB0               	movwf	(ceilf@e+1)& (0+255),b
  1364  001570  BFB0               	btfsc	(ceilf@e+1)& (0+255),7,b
  1365  001572  EFC4  F00A         	goto	u3381
  1366  001576  51B0               	movf	(ceilf@e+1)& (0+255),w,b
  1367  001578  E10A               	bnz	u3380
  1368  00157A  0E17               	movlw	23
  1369  00157C  5DAF               	subwf	ceilf@e& (0+255),w,b
  1370  00157E  A0D8               	btfss	status,0,c
  1371  001580  EFC4  F00A         	goto	u3381
  1372  001584  EFC7  F00A         	goto	u3380
  1373  001588                     u3381:
  1374  001588  FFFF               	dw	65535	; assembler added errata NOP
  1375  00158A  EFD3  F00A         	goto	l3717
  1376  00158E                     u3380:
  1377  00158E  FFFF               	dw	65535	; assembler added errata NOP
  1378  001590                     l3715:
  1379  001590  FFFF               	dw	65535	; assembler added errata NOP
  1380                           
  1381                           ; BSR set to: 0
  1382  001592  C0A1  F0A1         	movff	ceilf@x,?_ceilf
  1383  001596  C0A2  F0A2         	movff	ceilf@x+1,?_ceilf+1
  1384  00159A  C0A3  F0A3         	movff	ceilf@x+2,?_ceilf+2
  1385  00159E  C0A4  F0A4         	movff	ceilf@x+3,?_ceilf+3
  1386  0015A2  EFAE  F00B         	goto	l1448
  1387  0015A6                     l3717:
  1388  0015A6  FFFF               	dw	65535	; assembler added errata NOP
  1389                           
  1390                           ; BSR set to: 0
  1391  0015A8  BFB0               	btfsc	(ceilf@e+1)& (0+255),7,b
  1392  0015AA  EFD9  F00A         	goto	u3391
  1393  0015AE  EFDC  F00A         	goto	u3390
  1394  0015B2                     u3391:
  1395  0015B2  FFFF               	dw	65535	; assembler added errata NOP
  1396  0015B4  EF59  F00B         	goto	l3727
  1397  0015B8                     u3390:
  1398  0015B8  FFFF               	dw	65535	; assembler added errata NOP
  1399  0015BA                     
  1400                           ; BSR set to: 0
  1401  0015BA  C0AF  F0A5         	movff	ceilf@e,??_ceilf
  1402  0015BE  0EFF               	movlw	255
  1403  0015C0  6FA6               	movwf	(??_ceilf+1)& (0+255),b
  1404  0015C2  0EFF               	movlw	255
  1405  0015C4  6FA7               	movwf	(??_ceilf+2)& (0+255),b
  1406  0015C6  0E7F               	movlw	127
  1407  0015C8  6FA8               	movwf	(??_ceilf+3)& (0+255),b
  1408  0015CA  0E00               	movlw	0
  1409  0015CC  6FA9               	movwf	(??_ceilf+4)& (0+255),b
  1410  0015CE                     u3405:
  1411  0015CE  FFFF               	dw	65535	; assembler added errata NOP
  1412  0015D0  67A5               	tstfsz	??_ceilf& (0+255),b
  1413  0015D2  EFED  F00A         	goto	u3406
  1414  0015D6  EFF6  F00A         	goto	u3407
  1415  0015DA                     u3406:
  1416  0015DA  FFFF               	dw	65535	; assembler added errata NOP
  1417  0015DC  35A9               	rlcf	(??_ceilf+4)& (0+255),w,b
  1418  0015DE  33A9               	rrcf	(??_ceilf+4)& (0+255),f,b
  1419  0015E0  33A8               	rrcf	(??_ceilf+3)& (0+255),f,b
  1420  0015E2  33A7               	rrcf	(??_ceilf+2)& (0+255),f,b
  1421  0015E4  33A6               	rrcf	(??_ceilf+1)& (0+255),f,b
  1422  0015E6  2FA5               	decfsz	??_ceilf& (0+255),f,b
  1423  0015E8  EFE7  F00A         	goto	u3405
  1424  0015EC                     u3407:
  1425  0015EC  FFFF               	dw	65535	; assembler added errata NOP
  1426  0015EE  C0A6  F0AB         	movff	??_ceilf+1,ceilf@m
  1427  0015F2  C0A7  F0AC         	movff	??_ceilf+2,ceilf@m+1
  1428  0015F6  C0A8  F0AD         	movff	??_ceilf+3,ceilf@m+2
  1429  0015FA  C0A9  F0AE         	movff	??_ceilf+4,ceilf@m+3
  1430  0015FE  0100               	movlb	0	; () banked
  1431  001600  51AB               	movf	ceilf@m& (0+255),w,b
  1432  001602  15B1               	andwf	ceilf@u& (0+255),w,b
  1433  001604  6FA5               	movwf	??_ceilf& (0+255),b
  1434  001606  51AC               	movf	(ceilf@m+1)& (0+255),w,b
  1435  001608  15B2               	andwf	(ceilf@u+1)& (0+255),w,b
  1436  00160A  6FA6               	movwf	(??_ceilf+1)& (0+255),b
  1437  00160C  51AD               	movf	(ceilf@m+2)& (0+255),w,b
  1438  00160E  15B3               	andwf	(ceilf@u+2)& (0+255),w,b
  1439  001610  6FA7               	movwf	(??_ceilf+2)& (0+255),b
  1440  001612  51AE               	movf	(ceilf@m+3)& (0+255),w,b
  1441  001614  15B4               	andwf	(ceilf@u+3)& (0+255),w,b
  1442  001616  6FA8               	movwf	(??_ceilf+3)& (0+255),b
  1443  001618  51A5               	movf	??_ceilf& (0+255),w,b
  1444  00161A  11A6               	iorwf	(??_ceilf+1)& (0+255),w,b
  1445  00161C  11A7               	iorwf	(??_ceilf+2)& (0+255),w,b
  1446  00161E  11A8               	iorwf	(??_ceilf+3)& (0+255),w,b
  1447  001620  A4D8               	btfss	status,2,c
  1448  001622  EF15  F00B         	goto	u3411
  1449  001626  EF18  F00B         	goto	u3410
  1450  00162A                     u3411:
  1451  00162A  FFFF               	dw	65535	; assembler added errata NOP
  1452  00162C  EF1B  F00B         	goto	l3723
  1453  001630                     u3410:
  1454  001630  FFFF               	dw	65535	; assembler added errata NOP
  1455  001632  EFC8  F00A         	goto	l3715
  1456  001636                     l3723:
  1457  001636  FFFF               	dw	65535	; assembler added errata NOP
  1458                           
  1459                           ; BSR set to: 0
  1460  001638  C0B1  F0A5         	movff	ceilf@u,??_ceilf
  1461  00163C  C0B2  F0A6         	movff	ceilf@u+1,??_ceilf+1
  1462  001640  C0B3  F0A7         	movff	ceilf@u+2,??_ceilf+2
  1463  001644  C0B4  F0A8         	movff	ceilf@u+3,??_ceilf+3
  1464  001648  0E20               	movlw	32
  1465  00164A  EF2D  F00B         	goto	u3420
  1466  00164E                     u3425:
  1467  00164E  FFFF               	dw	65535	; assembler added errata NOP
  1468  001650  90D8               	bcf	status,0,c
  1469  001652  33A8               	rrcf	(??_ceilf+3)& (0+255),f,b
  1470  001654  33A7               	rrcf	(??_ceilf+2)& (0+255),f,b
  1471  001656  33A6               	rrcf	(??_ceilf+1)& (0+255),f,b
  1472  001658  33A5               	rrcf	??_ceilf& (0+255),f,b
  1473  00165A                     u3420:
  1474  00165A  FFFF               	dw	65535	; assembler added errata NOP
  1475  00165C  2EE8               	decfsz	wreg,f,c
  1476  00165E  EF27  F00B         	goto	u3425
  1477  001662  51A5               	movf	??_ceilf& (0+255),w,b
  1478  001664  11A6               	iorwf	(??_ceilf+1)& (0+255),w,b
  1479  001666  11A7               	iorwf	(??_ceilf+2)& (0+255),w,b
  1480  001668  11A8               	iorwf	(??_ceilf+3)& (0+255),w,b
  1481  00166A  A4D8               	btfss	status,2,c
  1482  00166C  EF3A  F00B         	goto	u3431
  1483  001670  EF3D  F00B         	goto	u3430
  1484  001674                     u3431:
  1485  001674  FFFF               	dw	65535	; assembler added errata NOP
  1486  001676  EF46  F00B         	goto	l1451
  1487  00167A                     u3430:
  1488  00167A  FFFF               	dw	65535	; assembler added errata NOP
  1489  00167C                     
  1490                           ; BSR set to: 0
  1491  00167C  51AB               	movf	ceilf@m& (0+255),w,b
  1492  00167E  27B1               	addwf	ceilf@u& (0+255),f,b
  1493  001680  51AC               	movf	(ceilf@m+1)& (0+255),w,b
  1494  001682  23B2               	addwfc	(ceilf@u+1)& (0+255),f,b
  1495  001684  51AD               	movf	(ceilf@m+2)& (0+255),w,b
  1496  001686  23B3               	addwfc	(ceilf@u+2)& (0+255),f,b
  1497  001688  51AE               	movf	(ceilf@m+3)& (0+255),w,b
  1498  00168A  23B4               	addwfc	(ceilf@u+3)& (0+255),f,b
  1499  00168C                     l1451:
  1500  00168C  FFFF               	dw	65535	; assembler added errata NOP
  1501                           
  1502                           ; BSR set to: 0
  1503  00168E  1DAB               	comf	ceilf@m& (0+255),w,b
  1504  001690  6FA5               	movwf	??_ceilf& (0+255),b
  1505  001692  1DAC               	comf	(ceilf@m+1)& (0+255),w,b
  1506  001694  6FA6               	movwf	(??_ceilf+1)& (0+255),b
  1507  001696  1DAD               	comf	(ceilf@m+2)& (0+255),w,b
  1508  001698  6FA7               	movwf	(??_ceilf+2)& (0+255),b
  1509  00169A  1DAE               	comf	(ceilf@m+3)& (0+255),w,b
  1510  00169C  6FA8               	movwf	(??_ceilf+3)& (0+255),b
  1511  00169E  51A5               	movf	??_ceilf& (0+255),w,b
  1512  0016A0  17B1               	andwf	ceilf@u& (0+255),f,b
  1513  0016A2  51A6               	movf	(??_ceilf+1)& (0+255),w,b
  1514  0016A4  17B2               	andwf	(ceilf@u+1)& (0+255),f,b
  1515  0016A6  51A7               	movf	(??_ceilf+2)& (0+255),w,b
  1516  0016A8  17B3               	andwf	(ceilf@u+2)& (0+255),f,b
  1517  0016AA  51A8               	movf	(??_ceilf+3)& (0+255),w,b
  1518  0016AC  17B4               	andwf	(ceilf@u+3)& (0+255),f,b
  1519  0016AE  EFA5  F00B         	goto	l3735
  1520  0016B2                     l3727:
  1521  0016B2  FFFF               	dw	65535	; assembler added errata NOP
  1522                           
  1523                           ; BSR set to: 0
  1524  0016B4  C0B1  F0A5         	movff	ceilf@u,??_ceilf
  1525  0016B8  C0B2  F0A6         	movff	ceilf@u+1,??_ceilf+1
  1526  0016BC  C0B3  F0A7         	movff	ceilf@u+2,??_ceilf+2
  1527  0016C0  C0B4  F0A8         	movff	ceilf@u+3,??_ceilf+3
  1528  0016C4  0E20               	movlw	32
  1529  0016C6  EF6B  F00B         	goto	u3440
  1530  0016CA                     u3445:
  1531  0016CA  FFFF               	dw	65535	; assembler added errata NOP
  1532  0016CC  90D8               	bcf	status,0,c
  1533  0016CE  33A8               	rrcf	(??_ceilf+3)& (0+255),f,b
  1534  0016D0  33A7               	rrcf	(??_ceilf+2)& (0+255),f,b
  1535  0016D2  33A6               	rrcf	(??_ceilf+1)& (0+255),f,b
  1536  0016D4  33A5               	rrcf	??_ceilf& (0+255),f,b
  1537  0016D6                     u3440:
  1538  0016D6  FFFF               	dw	65535	; assembler added errata NOP
  1539  0016D8  2EE8               	decfsz	wreg,f,c
  1540  0016DA  EF65  F00B         	goto	u3445
  1541  0016DE  51A5               	movf	??_ceilf& (0+255),w,b
  1542  0016E0  11A6               	iorwf	(??_ceilf+1)& (0+255),w,b
  1543  0016E2  11A7               	iorwf	(??_ceilf+2)& (0+255),w,b
  1544  0016E4  11A8               	iorwf	(??_ceilf+3)& (0+255),w,b
  1545  0016E6  B4D8               	btfsc	status,2,c
  1546  0016E8  EF78  F00B         	goto	u3451
  1547  0016EC  EF7B  F00B         	goto	u3450
  1548  0016F0                     u3451:
  1549  0016F0  FFFF               	dw	65535	; assembler added errata NOP
  1550  0016F2  EF86  F00B         	goto	l3731
  1551  0016F6                     u3450:
  1552  0016F6  FFFF               	dw	65535	; assembler added errata NOP
  1553  0016F8                     
  1554                           ; BSR set to: 0
  1555  0016F8  0E00               	movlw	0
  1556  0016FA  6FB1               	movwf	ceilf@u& (0+255),b
  1557  0016FC  0E00               	movlw	0
  1558  0016FE  6FB2               	movwf	(ceilf@u+1)& (0+255),b
  1559  001700  0E00               	movlw	0
  1560  001702  6FB3               	movwf	(ceilf@u+2)& (0+255),b
  1561  001704  0E80               	movlw	128
  1562  001706  6FB4               	movwf	(ceilf@u+3)& (0+255),b
  1563  001708  EFA5  F00B         	goto	l3735
  1564  00170C                     l3731:
  1565  00170C  FFFF               	dw	65535	; assembler added errata NOP
  1566                           
  1567                           ; BSR set to: 0
  1568  00170E  90D8               	bcf	status,0,c
  1569  001710  35B1               	rlcf	ceilf@u& (0+255),w,b
  1570  001712  6FA5               	movwf	??_ceilf& (0+255),b
  1571  001714  35B2               	rlcf	(ceilf@u+1)& (0+255),w,b
  1572  001716  6FA6               	movwf	(??_ceilf+1)& (0+255),b
  1573  001718  35B3               	rlcf	(ceilf@u+2)& (0+255),w,b
  1574  00171A  6FA7               	movwf	(??_ceilf+2)& (0+255),b
  1575  00171C  35B4               	rlcf	(ceilf@u+3)& (0+255),w,b
  1576  00171E  6FA8               	movwf	(??_ceilf+3)& (0+255),b
  1577  001720  51A5               	movf	??_ceilf& (0+255),w,b
  1578  001722  11A6               	iorwf	(??_ceilf+1)& (0+255),w,b
  1579  001724  11A7               	iorwf	(??_ceilf+2)& (0+255),w,b
  1580  001726  11A8               	iorwf	(??_ceilf+3)& (0+255),w,b
  1581  001728  B4D8               	btfsc	status,2,c
  1582  00172A  EF99  F00B         	goto	u3461
  1583  00172E  EF9C  F00B         	goto	u3460
  1584  001732                     u3461:
  1585  001732  FFFF               	dw	65535	; assembler added errata NOP
  1586  001734  EFA5  F00B         	goto	l3735
  1587  001738                     u3460:
  1588  001738  FFFF               	dw	65535	; assembler added errata NOP
  1589  00173A                     
  1590                           ; BSR set to: 0
  1591  00173A  0E00               	movlw	0
  1592  00173C  6FB1               	movwf	ceilf@u& (0+255),b
  1593  00173E  0E00               	movlw	0
  1594  001740  6FB2               	movwf	(ceilf@u+1)& (0+255),b
  1595  001742  0E80               	movlw	128
  1596  001744  6FB3               	movwf	(ceilf@u+2)& (0+255),b
  1597  001746  0E3F               	movlw	63
  1598  001748  6FB4               	movwf	(ceilf@u+3)& (0+255),b
  1599  00174A                     l3735:
  1600  00174A  FFFF               	dw	65535	; assembler added errata NOP
  1601                           
  1602                           ; BSR set to: 0
  1603  00174C  C0B1  F0A1         	movff	ceilf@u,?_ceilf
  1604  001750  C0B2  F0A2         	movff	ceilf@u+1,?_ceilf+1
  1605  001754  C0B3  F0A3         	movff	ceilf@u+2,?_ceilf+2
  1606  001758  C0B4  F0A4         	movff	ceilf@u+3,?_ceilf+3
  1607  00175C                     l1448:
  1608  00175C  FFFF               	dw	65535	; assembler added errata NOP
  1609                           
  1610                           ; BSR set to: 0
  1611  00175E  0012               	return		;funcret
  1612  001760  FFFF               	dw	65535	; errata NOP
  1613  001762                     __end_of_ceilf:
  1614                           	opt callstack 0
  1615                           
  1616 ;; *************** function ___xxtofl *****************
  1617 ;; Defined at:
  1618 ;;		line 10 in file "C:\Programs\Microchip\xc8\v2.10\pic\sources\c99\common\xxtofl.c"
  1619 ;; Parameters:    Size  Location     Type
  1620 ;;  sign            1    wreg     unsigned char 
  1621 ;;  val             4   30[COMRAM] long 
  1622 ;; Auto vars:     Size  Location     Type
  1623 ;;  sign            1   38[COMRAM] unsigned char 
  1624 ;;  arg             4   40[COMRAM] unsigned long 
  1625 ;;  exp             1   39[COMRAM] unsigned char 
  1626 ;; Return value:  Size  Location     Type
  1627 ;;                  4   30[COMRAM] unsigned char 
  1628 ;; Registers used:
  1629 ;;		wreg, status,2, status,0
  1630 ;; Tracked objects:
  1631 ;;		On entry : 0/0
  1632 ;;		On exit  : 0/0
  1633 ;;		Unchanged: 0/0
  1634 ;; Data sizes:     COMRAM   BANK0   BANK1   BANK2   BANK3   BANK4   BANK5
  1635 ;;      Params:         4       0       0       0       0       0       0
  1636 ;;      Locals:         6       0       0       0       0       0       0
  1637 ;;      Temps:          4       0       0       0       0       0       0
  1638 ;;      Totals:        14       0       0       0       0       0       0
  1639 ;;Total ram usage:       14 bytes
  1640 ;; Hardware stack levels used:    1
  1641 ;; Hardware stack levels required when called:    5
  1642 ;; This function calls:
  1643 ;;		Nothing
  1644 ;; This function is called by:
  1645 ;;		_uart_init
  1646 ;; This function uses a non-reentrant model
  1647 ;;
  1648                           
  1649                           	psect	text5
  1650  001762                     __ptext5:
  1651                           	opt callstack 0
  1652  001762                     ___xxtofl:
  1653                           	opt callstack 0
  1654  001762  FFFF               	dw	65535	; assembler added errata NOP
  1655                           
  1656                           ; BSR set to: 0
  1657                           ;incstack = 0
  1658                           ;___xxtofl@sign stored from wreg
  1659  001764  6E27               	movwf	___xxtofl@sign^0,c
  1660  001766  5027               	movf	___xxtofl@sign^0,w,c
  1661  001768  B4D8               	btfsc	status,2,c
  1662  00176A  EFB9  F00B         	goto	u4351
  1663  00176E  EFBC  F00B         	goto	u4350
  1664  001772                     u4351:
  1665  001772  FFFF               	dw	65535	; assembler added errata NOP
  1666  001774  EFE1  F00B         	goto	l1426
  1667  001778                     u4350:
  1668  001778  FFFF               	dw	65535	; assembler added errata NOP
  1669  00177A  BE22               	btfsc	(___xxtofl@val+3)^0,7,c
  1670  00177C  EFC5  F00B         	goto	u4360
  1671  001780  EFC2  F00B         	goto	u4361
  1672  001784                     u4361:
  1673  001784  FFFF               	dw	65535	; assembler added errata NOP
  1674  001786  EFE1  F00B         	goto	l1426
  1675  00178A                     u4360:
  1676  00178A  FFFF               	dw	65535	; assembler added errata NOP
  1677  00178C  C01F  F023         	movff	___xxtofl@val,??___xxtofl
  1678  001790  C020  F024         	movff	___xxtofl@val+1,??___xxtofl+1
  1679  001794  C021  F025         	movff	___xxtofl@val+2,??___xxtofl+2
  1680  001798  C022  F026         	movff	___xxtofl@val+3,??___xxtofl+3
  1681  00179C  1E23               	comf	??___xxtofl^0,f,c
  1682  00179E  1E24               	comf	(??___xxtofl+1)^0,f,c
  1683  0017A0  1E25               	comf	(??___xxtofl+2)^0,f,c
  1684  0017A2  1E26               	comf	(??___xxtofl+3)^0,f,c
  1685  0017A4  2A23               	incf	??___xxtofl^0,f,c
  1686  0017A6  0E00               	movlw	0
  1687  0017A8  2224               	addwfc	(??___xxtofl+1)^0,f,c
  1688  0017AA  2225               	addwfc	(??___xxtofl+2)^0,f,c
  1689  0017AC  2226               	addwfc	(??___xxtofl+3)^0,f,c
  1690  0017AE  C023  F029         	movff	??___xxtofl,___xxtofl@arg
  1691  0017B2  C024  F02A         	movff	??___xxtofl+1,___xxtofl@arg+1
  1692  0017B6  C025  F02B         	movff	??___xxtofl+2,___xxtofl@arg+2
  1693  0017BA  C026  F02C         	movff	??___xxtofl+3,___xxtofl@arg+3
  1694  0017BE  EFEA  F00B         	goto	l4259
  1695  0017C2                     l1426:
  1696  0017C2  FFFF               	dw	65535	; assembler added errata NOP
  1697  0017C4  C01F  F029         	movff	___xxtofl@val,___xxtofl@arg
  1698  0017C8  C020  F02A         	movff	___xxtofl@val+1,___xxtofl@arg+1
  1699  0017CC  C021  F02B         	movff	___xxtofl@val+2,___xxtofl@arg+2
  1700  0017D0  C022  F02C         	movff	___xxtofl@val+3,___xxtofl@arg+3
  1701  0017D4                     l4259:
  1702  0017D4  FFFF               	dw	65535	; assembler added errata NOP
  1703  0017D6  501F               	movf	___xxtofl@val^0,w,c
  1704  0017D8  1020               	iorwf	(___xxtofl@val+1)^0,w,c
  1705  0017DA  1021               	iorwf	(___xxtofl@val+2)^0,w,c
  1706  0017DC  1022               	iorwf	(___xxtofl@val+3)^0,w,c
  1707  0017DE  A4D8               	btfss	status,2,c
  1708  0017E0  EFF4  F00B         	goto	u4371
  1709  0017E4  EFF7  F00B         	goto	u4370
  1710  0017E8                     u4371:
  1711  0017E8  FFFF               	dw	65535	; assembler added errata NOP
  1712  0017EA  EF02  F00C         	goto	l4265
  1713  0017EE                     u4370:
  1714  0017EE  FFFF               	dw	65535	; assembler added errata NOP
  1715  0017F0  0E00               	movlw	0
  1716  0017F2  6E1F               	movwf	?___xxtofl^0,c
  1717  0017F4  0E00               	movlw	0
  1718  0017F6  6E20               	movwf	(?___xxtofl+1)^0,c
  1719  0017F8  0E00               	movlw	0
  1720  0017FA  6E21               	movwf	(?___xxtofl+2)^0,c
  1721  0017FC  0E00               	movlw	0
  1722  0017FE  6E22               	movwf	(?___xxtofl+3)^0,c
  1723  001800  EFAA  F00C         	goto	l1429
  1724  001804                     l4265:
  1725  001804  FFFF               	dw	65535	; assembler added errata NOP
  1726  001806  0E96               	movlw	150
  1727  001808  6E28               	movwf	___xxtofl@exp^0,c
  1728  00180A  EF0E  F00C         	goto	l4269
  1729  00180E                     l4267:
  1730  00180E  FFFF               	dw	65535	; assembler added errata NOP
  1731  001810  2A28               	incf	___xxtofl@exp^0,f,c
  1732  001812  90D8               	bcf	status,0,c
  1733  001814  322C               	rrcf	(___xxtofl@arg+3)^0,f,c
  1734  001816  322B               	rrcf	(___xxtofl@arg+2)^0,f,c
  1735  001818  322A               	rrcf	(___xxtofl@arg+1)^0,f,c
  1736  00181A  3229               	rrcf	___xxtofl@arg^0,f,c
  1737  00181C                     l4269:
  1738  00181C  FFFF               	dw	65535	; assembler added errata NOP
  1739  00181E  0E00               	movlw	0
  1740  001820  1429               	andwf	___xxtofl@arg^0,w,c
  1741  001822  6E23               	movwf	??___xxtofl^0,c
  1742  001824  0E00               	movlw	0
  1743  001826  142A               	andwf	(___xxtofl@arg+1)^0,w,c
  1744  001828  6E24               	movwf	(??___xxtofl+1)^0,c
  1745  00182A  0E00               	movlw	0
  1746  00182C  142B               	andwf	(___xxtofl@arg+2)^0,w,c
  1747  00182E  6E25               	movwf	(??___xxtofl+2)^0,c
  1748  001830  0EFE               	movlw	254
  1749  001832  142C               	andwf	(___xxtofl@arg+3)^0,w,c
  1750  001834  6E26               	movwf	(??___xxtofl+3)^0,c
  1751  001836  5023               	movf	??___xxtofl^0,w,c
  1752  001838  1024               	iorwf	(??___xxtofl+1)^0,w,c
  1753  00183A  1025               	iorwf	(??___xxtofl+2)^0,w,c
  1754  00183C  1026               	iorwf	(??___xxtofl+3)^0,w,c
  1755  00183E  A4D8               	btfss	status,2,c
  1756  001840  EF24  F00C         	goto	u4381
  1757  001844  EF27  F00C         	goto	u4380
  1758  001848                     u4381:
  1759  001848  FFFF               	dw	65535	; assembler added errata NOP
  1760  00184A  EF07  F00C         	goto	l4267
  1761  00184E                     u4380:
  1762  00184E  FFFF               	dw	65535	; assembler added errata NOP
  1763  001850  EF37  F00C         	goto	l1433
  1764  001854                     l4271:
  1765  001854  FFFF               	dw	65535	; assembler added errata NOP
  1766  001856  2A28               	incf	___xxtofl@exp^0,f,c
  1767  001858  0E01               	movlw	1
  1768  00185A  2629               	addwf	___xxtofl@arg^0,f,c
  1769  00185C  0E00               	movlw	0
  1770  00185E  222A               	addwfc	(___xxtofl@arg+1)^0,f,c
  1771  001860  222B               	addwfc	(___xxtofl@arg+2)^0,f,c
  1772  001862  222C               	addwfc	(___xxtofl@arg+3)^0,f,c
  1773  001864  90D8               	bcf	status,0,c
  1774  001866  322C               	rrcf	(___xxtofl@arg+3)^0,f,c
  1775  001868  322B               	rrcf	(___xxtofl@arg+2)^0,f,c
  1776  00186A  322A               	rrcf	(___xxtofl@arg+1)^0,f,c
  1777  00186C  3229               	rrcf	___xxtofl@arg^0,f,c
  1778  00186E                     l1433:
  1779  00186E  FFFF               	dw	65535	; assembler added errata NOP
  1780  001870  0E00               	movlw	0
  1781  001872  1429               	andwf	___xxtofl@arg^0,w,c
  1782  001874  6E23               	movwf	??___xxtofl^0,c
  1783  001876  0E00               	movlw	0
  1784  001878  142A               	andwf	(___xxtofl@arg+1)^0,w,c
  1785  00187A  6E24               	movwf	(??___xxtofl+1)^0,c
  1786  00187C  0E00               	movlw	0
  1787  00187E  142B               	andwf	(___xxtofl@arg+2)^0,w,c
  1788  001880  6E25               	movwf	(??___xxtofl+2)^0,c
  1789  001882  0EFF               	movlw	255
  1790  001884  142C               	andwf	(___xxtofl@arg+3)^0,w,c
  1791  001886  6E26               	movwf	(??___xxtofl+3)^0,c
  1792  001888  5023               	movf	??___xxtofl^0,w,c
  1793  00188A  1024               	iorwf	(??___xxtofl+1)^0,w,c
  1794  00188C  1025               	iorwf	(??___xxtofl+2)^0,w,c
  1795  00188E  1026               	iorwf	(??___xxtofl+3)^0,w,c
  1796  001890  A4D8               	btfss	status,2,c
  1797  001892  EF4D  F00C         	goto	u4391
  1798  001896  EF50  F00C         	goto	u4390
  1799  00189A                     u4391:
  1800  00189A  FFFF               	dw	65535	; assembler added errata NOP
  1801  00189C  EF2A  F00C         	goto	l4271
  1802  0018A0                     u4390:
  1803  0018A0  FFFF               	dw	65535	; assembler added errata NOP
  1804  0018A2  EF5A  F00C         	goto	l4279
  1805  0018A6                     l4277:
  1806  0018A6  FFFF               	dw	65535	; assembler added errata NOP
  1807  0018A8  0628               	decf	___xxtofl@exp^0,f,c
  1808  0018AA  90D8               	bcf	status,0,c
  1809  0018AC  3629               	rlcf	___xxtofl@arg^0,f,c
  1810  0018AE  362A               	rlcf	(___xxtofl@arg+1)^0,f,c
  1811  0018B0  362B               	rlcf	(___xxtofl@arg+2)^0,f,c
  1812  0018B2  362C               	rlcf	(___xxtofl@arg+3)^0,f,c
  1813  0018B4                     l4279:
  1814  0018B4  FFFF               	dw	65535	; assembler added errata NOP
  1815  0018B6  BE2B               	btfsc	(___xxtofl@arg+2)^0,7,c
  1816  0018B8  EF60  F00C         	goto	u4401
  1817  0018BC  EF63  F00C         	goto	u4400
  1818  0018C0                     u4401:
  1819  0018C0  FFFF               	dw	65535	; assembler added errata NOP
  1820  0018C2  EF6D  F00C         	goto	l1440
  1821  0018C6                     u4400:
  1822  0018C6  FFFF               	dw	65535	; assembler added errata NOP
  1823  0018C8  0E02               	movlw	2
  1824  0018CA  6028               	cpfslt	___xxtofl@exp^0,c
  1825  0018CC  EF6A  F00C         	goto	u4411
  1826  0018D0  EF6D  F00C         	goto	u4410
  1827  0018D4                     u4411:
  1828  0018D4  FFFF               	dw	65535	; assembler added errata NOP
  1829  0018D6  EF53  F00C         	goto	l4277
  1830  0018DA                     u4410:
  1831  0018DA                     l1440:
  1832  0018DA  FFFF               	dw	65535	; assembler added errata NOP
  1833  0018DC  B028               	btfsc	___xxtofl@exp^0,0,c
  1834  0018DE  EF73  F00C         	goto	u4421
  1835  0018E2  EF76  F00C         	goto	u4420
  1836  0018E6                     u4421:
  1837  0018E6  FFFF               	dw	65535	; assembler added errata NOP
  1838  0018E8  EF78  F00C         	goto	l4285
  1839  0018EC                     u4420:
  1840  0018EC  FFFF               	dw	65535	; assembler added errata NOP
  1841  0018EE  9E2B               	bcf	(___xxtofl@arg+2)^0,7,c
  1842  0018F0                     l4285:
  1843  0018F0  FFFF               	dw	65535	; assembler added errata NOP
  1844  0018F2  90D8               	bcf	status,0,c
  1845  0018F4  3228               	rrcf	___xxtofl@exp^0,f,c
  1846  0018F6  C028  F023         	movff	___xxtofl@exp,??___xxtofl
  1847  0018FA  6A24               	clrf	(??___xxtofl+1)^0,c
  1848  0018FC  6A25               	clrf	(??___xxtofl+2)^0,c
  1849  0018FE  6A26               	clrf	(??___xxtofl+3)^0,c
  1850  001900  C023  F026         	movff	??___xxtofl,??___xxtofl+3
  1851  001904  6A25               	clrf	(??___xxtofl+2)^0,c
  1852  001906  6A24               	clrf	(??___xxtofl+1)^0,c
  1853  001908  6A23               	clrf	??___xxtofl^0,c
  1854  00190A  5023               	movf	??___xxtofl^0,w,c
  1855  00190C  1229               	iorwf	___xxtofl@arg^0,f,c
  1856  00190E  5024               	movf	(??___xxtofl+1)^0,w,c
  1857  001910  122A               	iorwf	(___xxtofl@arg+1)^0,f,c
  1858  001912  5025               	movf	(??___xxtofl+2)^0,w,c
  1859  001914  122B               	iorwf	(___xxtofl@arg+2)^0,f,c
  1860  001916  5026               	movf	(??___xxtofl+3)^0,w,c
  1861  001918  122C               	iorwf	(___xxtofl@arg+3)^0,f,c
  1862  00191A  5027               	movf	___xxtofl@sign^0,w,c
  1863  00191C  B4D8               	btfsc	status,2,c
  1864  00191E  EF93  F00C         	goto	u4431
  1865  001922  EF96  F00C         	goto	u4430
  1866  001926                     u4431:
  1867  001926  FFFF               	dw	65535	; assembler added errata NOP
  1868  001928  EFA1  F00C         	goto	l4295
  1869  00192C                     u4430:
  1870  00192C  FFFF               	dw	65535	; assembler added errata NOP
  1871  00192E  BE22               	btfsc	(___xxtofl@val+3)^0,7,c
  1872  001930  EF9F  F00C         	goto	u4440
  1873  001934  EF9C  F00C         	goto	u4441
  1874  001938                     u4441:
  1875  001938  FFFF               	dw	65535	; assembler added errata NOP
  1876  00193A  EFA1  F00C         	goto	l4295
  1877  00193E                     u4440:
  1878  00193E  FFFF               	dw	65535	; assembler added errata NOP
  1879  001940  8E2C               	bsf	(___xxtofl@arg+3)^0,7,c
  1880  001942                     l4295:
  1881  001942  FFFF               	dw	65535	; assembler added errata NOP
  1882  001944  C029  F01F         	movff	___xxtofl@arg,?___xxtofl
  1883  001948  C02A  F020         	movff	___xxtofl@arg+1,?___xxtofl+1
  1884  00194C  C02B  F021         	movff	___xxtofl@arg+2,?___xxtofl+2
  1885  001950  C02C  F022         	movff	___xxtofl@arg+3,?___xxtofl+3
  1886  001954                     l1429:
  1887  001954  FFFF               	dw	65535	; assembler added errata NOP
  1888  001956  0012               	return		;funcret
  1889  001958  FFFF               	dw	65535	; errata NOP
  1890  00195A                     __end_of___xxtofl:
  1891                           	opt callstack 0
  1892                           
  1893 ;; *************** function ___fltol *****************
  1894 ;; Defined at:
  1895 ;;		line 43 in file "C:\Programs\Microchip\xc8\v2.10\pic\sources\c99\common\fltol.c"
  1896 ;; Parameters:    Size  Location     Type
  1897 ;;  f1              4   30[COMRAM] unsigned char 
  1898 ;; Auto vars:     Size  Location     Type
  1899 ;;  exp1            1   39[COMRAM] unsigned char 
  1900 ;;  sign1           1   38[COMRAM] unsigned char 
  1901 ;; Return value:  Size  Location     Type
  1902 ;;                  4   30[COMRAM] long 
  1903 ;; Registers used:
  1904 ;;		wreg, status,2, status,0
  1905 ;; Tracked objects:
  1906 ;;		On entry : 0/0
  1907 ;;		On exit  : 0/0
  1908 ;;		Unchanged: 0/0
  1909 ;; Data sizes:     COMRAM   BANK0   BANK1   BANK2   BANK3   BANK4   BANK5
  1910 ;;      Params:         4       0       0       0       0       0       0
  1911 ;;      Locals:         2       0       0       0       0       0       0
  1912 ;;      Temps:          4       0       0       0       0       0       0
  1913 ;;      Totals:        10       0       0       0       0       0       0
  1914 ;;Total ram usage:       10 bytes
  1915 ;; Hardware stack levels used:    1
  1916 ;; Hardware stack levels required when called:    5
  1917 ;; This function calls:
  1918 ;;		Nothing
  1919 ;; This function is called by:
  1920 ;;		_uart_init
  1921 ;; This function uses a non-reentrant model
  1922 ;;
  1923                           
  1924                           	psect	text6
  1925  001C72                     __ptext6:
  1926                           	opt callstack 0
  1927  001C72                     ___fltol:
  1928                           	opt callstack 0
  1929  001C72  FFFF               	dw	65535	; assembler added errata NOP
  1930  001C74  3421               	rlcf	(___fltol@f1+2)^0,w,c
  1931  001C76  3422               	rlcf	(___fltol@f1+3)^0,w,c
  1932  001C78  6E28               	movwf	___fltol@exp1^0,c
  1933  001C7A  5028               	movf	___fltol@exp1^0,w,c
  1934  001C7C  A4D8               	btfss	status,2,c
  1935  001C7E  EF43  F00E         	goto	u4281
  1936  001C82  EF46  F00E         	goto	u4280
  1937  001C86                     u4281:
  1938  001C86  FFFF               	dw	65535	; assembler added errata NOP
  1939  001C88  EF52  F00E         	goto	l4215
  1940  001C8C                     u4280:
  1941  001C8C  FFFF               	dw	65535	; assembler added errata NOP
  1942  001C8E                     l4211:
  1943  001C8E  FFFF               	dw	65535	; assembler added errata NOP
  1944  001C90  0E00               	movlw	0
  1945  001C92  6E1F               	movwf	?___fltol^0,c
  1946  001C94  0E00               	movlw	0
  1947  001C96  6E20               	movwf	(?___fltol+1)^0,c
  1948  001C98  0E00               	movlw	0
  1949  001C9A  6E21               	movwf	(?___fltol+2)^0,c
  1950  001C9C  0E00               	movlw	0
  1951  001C9E  6E22               	movwf	(?___fltol+3)^0,c
  1952  001CA0  EFD1  F00E         	goto	l1068
  1953  001CA4                     l4215:
  1954  001CA4  FFFF               	dw	65535	; assembler added errata NOP
  1955  001CA6  C01F  F023         	movff	___fltol@f1,??___fltol
  1956  001CAA  C020  F024         	movff	___fltol@f1+1,??___fltol+1
  1957  001CAE  C021  F025         	movff	___fltol@f1+2,??___fltol+2
  1958  001CB2  C022  F026         	movff	___fltol@f1+3,??___fltol+3
  1959  001CB6  0E20               	movlw	32
  1960  001CB8  EF64  F00E         	goto	u4290
  1961  001CBC                     u4295:
  1962  001CBC  FFFF               	dw	65535	; assembler added errata NOP
  1963  001CBE  90D8               	bcf	status,0,c
  1964  001CC0  3226               	rrcf	(??___fltol+3)^0,f,c
  1965  001CC2  3225               	rrcf	(??___fltol+2)^0,f,c
  1966  001CC4  3224               	rrcf	(??___fltol+1)^0,f,c
  1967  001CC6  3223               	rrcf	??___fltol^0,f,c
  1968  001CC8                     u4290:
  1969  001CC8  FFFF               	dw	65535	; assembler added errata NOP
  1970  001CCA  2EE8               	decfsz	wreg,f,c
  1971  001CCC  EF5E  F00E         	goto	u4295
  1972  001CD0  5023               	movf	??___fltol^0,w,c
  1973  001CD2  6E27               	movwf	___fltol@sign1^0,c
  1974  001CD4  8E21               	bsf	(___fltol@f1+2)^0,7,c
  1975  001CD6  0EFF               	movlw	255
  1976  001CD8  161F               	andwf	___fltol@f1^0,f,c
  1977  001CDA  0EFF               	movlw	255
  1978  001CDC  1620               	andwf	(___fltol@f1+1)^0,f,c
  1979  001CDE  0EFF               	movlw	255
  1980  001CE0  1621               	andwf	(___fltol@f1+2)^0,f,c
  1981  001CE2  0E00               	movlw	0
  1982  001CE4  1622               	andwf	(___fltol@f1+3)^0,f,c
  1983  001CE6  0E96               	movlw	150
  1984  001CE8  5E28               	subwf	___fltol@exp1^0,f,c
  1985  001CEA  BE28               	btfsc	___fltol@exp1^0,7,c
  1986  001CEC  EF7D  F00E         	goto	u4300
  1987  001CF0  EF7A  F00E         	goto	u4301
  1988  001CF4                     u4301:
  1989  001CF4  FFFF               	dw	65535	; assembler added errata NOP
  1990  001CF6  EF97  F00E         	goto	l4235
  1991  001CFA                     u4300:
  1992  001CFA  FFFF               	dw	65535	; assembler added errata NOP
  1993  001CFC  5028               	movf	___fltol@exp1^0,w,c
  1994  001CFE  0A80               	xorlw	128
  1995  001D00  0F97               	addlw	151
  1996  001D02  B0D8               	btfsc	status,0,c
  1997  001D04  EF86  F00E         	goto	u4311
  1998  001D08  EF89  F00E         	goto	u4310
  1999  001D0C                     u4311:
  2000  001D0C  FFFF               	dw	65535	; assembler added errata NOP
  2001  001D0E  EF8C  F00E         	goto	l4231
  2002  001D12                     u4310:
  2003  001D12  FFFF               	dw	65535	; assembler added errata NOP
  2004  001D14  EF47  F00E         	goto	l4211
  2005  001D18                     l4231:
  2006  001D18  FFFF               	dw	65535	; assembler added errata NOP
  2007  001D1A  90D8               	bcf	status,0,c
  2008  001D1C  3222               	rrcf	(___fltol@f1+3)^0,f,c
  2009  001D1E  3221               	rrcf	(___fltol@f1+2)^0,f,c
  2010  001D20  3220               	rrcf	(___fltol@f1+1)^0,f,c
  2011  001D22  321F               	rrcf	___fltol@f1^0,f,c
  2012  001D24  3E28               	incfsz	___fltol@exp1^0,f,c
  2013  001D26  EF8C  F00E         	goto	l4231
  2014  001D2A  EFB5  F00E         	goto	l4245
  2015  001D2E                     l4235:
  2016  001D2E  FFFF               	dw	65535	; assembler added errata NOP
  2017  001D30  0E1F               	movlw	31
  2018  001D32  6428               	cpfsgt	___fltol@exp1^0,c
  2019  001D34  EF9E  F00E         	goto	u4321
  2020  001D38  EFA1  F00E         	goto	u4320
  2021  001D3C                     u4321:
  2022  001D3C  FFFF               	dw	65535	; assembler added errata NOP
  2023  001D3E  EFAB  F00E         	goto	l4243
  2024  001D42                     u4320:
  2025  001D42  FFFF               	dw	65535	; assembler added errata NOP
  2026  001D44  EF47  F00E         	goto	l4211
  2027  001D48                     l4241:
  2028  001D48  FFFF               	dw	65535	; assembler added errata NOP
  2029  001D4A  90D8               	bcf	status,0,c
  2030  001D4C  361F               	rlcf	___fltol@f1^0,f,c
  2031  001D4E  3620               	rlcf	(___fltol@f1+1)^0,f,c
  2032  001D50  3621               	rlcf	(___fltol@f1+2)^0,f,c
  2033  001D52  3622               	rlcf	(___fltol@f1+3)^0,f,c
  2034  001D54  0628               	decf	___fltol@exp1^0,f,c
  2035  001D56                     l4243:
  2036  001D56  FFFF               	dw	65535	; assembler added errata NOP
  2037  001D58  5028               	movf	___fltol@exp1^0,w,c
  2038  001D5A  A4D8               	btfss	status,2,c
  2039  001D5C  EFB2  F00E         	goto	u4331
  2040  001D60  EFB5  F00E         	goto	u4330
  2041  001D64                     u4331:
  2042  001D64  FFFF               	dw	65535	; assembler added errata NOP
  2043  001D66  EFA4  F00E         	goto	l4241
  2044  001D6A                     u4330:
  2045  001D6A                     l4245:
  2046  001D6A  FFFF               	dw	65535	; assembler added errata NOP
  2047  001D6C  5027               	movf	___fltol@sign1^0,w,c
  2048  001D6E  B4D8               	btfsc	status,2,c
  2049  001D70  EFBC  F00E         	goto	u4341
  2050  001D74  EFBF  F00E         	goto	u4340
  2051  001D78                     u4341:
  2052  001D78  FFFF               	dw	65535	; assembler added errata NOP
  2053  001D7A  EFC8  F00E         	goto	l4249
  2054  001D7E                     u4340:
  2055  001D7E  FFFF               	dw	65535	; assembler added errata NOP
  2056  001D80  1E22               	comf	(___fltol@f1+3)^0,f,c
  2057  001D82  1E21               	comf	(___fltol@f1+2)^0,f,c
  2058  001D84  1E20               	comf	(___fltol@f1+1)^0,f,c
  2059  001D86  6C1F               	negf	___fltol@f1^0,c
  2060  001D88  0E00               	movlw	0
  2061  001D8A  2220               	addwfc	(___fltol@f1+1)^0,f,c
  2062  001D8C  2221               	addwfc	(___fltol@f1+2)^0,f,c
  2063  001D8E  2222               	addwfc	(___fltol@f1+3)^0,f,c
  2064  001D90                     l4249:
  2065  001D90  FFFF               	dw	65535	; assembler added errata NOP
  2066  001D92  C01F  F01F         	movff	___fltol@f1,?___fltol
  2067  001D96  C020  F020         	movff	___fltol@f1+1,?___fltol+1
  2068  001D9A  C021  F021         	movff	___fltol@f1+2,?___fltol+2
  2069  001D9E  C022  F022         	movff	___fltol@f1+3,?___fltol+3
  2070  001DA2                     l1068:
  2071  001DA2  FFFF               	dw	65535	; assembler added errata NOP
  2072  001DA4  0012               	return		;funcret
  2073  001DA6  FFFF               	dw	65535	; errata NOP
  2074  001DA8                     __end_of___fltol:
  2075                           	opt callstack 0
  2076                           
  2077 ;; *************** function ___flmul *****************
  2078 ;; Defined at:
  2079 ;;		line 8 in file "C:\Programs\Microchip\xc8\v2.10\pic\sources\c99\common\sprcmul.c"
  2080 ;; Parameters:    Size  Location     Type
  2081 ;;  b               4   44[COMRAM] long 
  2082 ;;  a               4   48[COMRAM] long 
  2083 ;; Auto vars:     Size  Location     Type
  2084 ;;  prod            4   63[COMRAM] struct .
  2085 ;;  grs             4   57[COMRAM] unsigned long 
  2086 ;;  temp            2   67[COMRAM] struct .
  2087 ;;  bexp            1   62[COMRAM] unsigned char 
  2088 ;;  aexp            1   61[COMRAM] unsigned char 
  2089 ;;  sign            1   56[COMRAM] unsigned char 
  2090 ;; Return value:  Size  Location     Type
  2091 ;;                  4   44[COMRAM] unsigned char 
  2092 ;; Registers used:
  2093 ;;		wreg, status,2, status,0, prodl, prodh
  2094 ;; Tracked objects:
  2095 ;;		On entry : 0/0
  2096 ;;		On exit  : 0/0
  2097 ;;		Unchanged: 0/0
  2098 ;; Data sizes:     COMRAM   BANK0   BANK1   BANK2   BANK3   BANK4   BANK5
  2099 ;;      Params:         8       0       0       0       0       0       0
  2100 ;;      Locals:        13       0       0       0       0       0       0
  2101 ;;      Temps:          4       0       0       0       0       0       0
  2102 ;;      Totals:        25       0       0       0       0       0       0
  2103 ;;Total ram usage:       25 bytes
  2104 ;; Hardware stack levels used:    1
  2105 ;; Hardware stack levels required when called:    5
  2106 ;; This function calls:
  2107 ;;		Nothing
  2108 ;; This function is called by:
  2109 ;;		_uart_init
  2110 ;; This function uses a non-reentrant model
  2111 ;;
  2112                           
  2113                           	psect	text7
  2114  000C36                     __ptext7:
  2115                           	opt callstack 0
  2116  000C36                     ___flmul:
  2117                           	opt callstack 0
  2118  000C36  FFFF               	dw	65535	; assembler added errata NOP
  2119  000C38  5030               	movf	(___flmul@b+3)^0,w,c
  2120  000C3A  0B80               	andlw	128
  2121  000C3C  6E39               	movwf	___flmul@sign^0,c
  2122  000C3E  5030               	movf	(___flmul@b+3)^0,w,c
  2123  000C40  2430               	addwf	(___flmul@b+3)^0,w,c
  2124  000C42  6E3F               	movwf	___flmul@bexp^0,c
  2125  000C44  AE2F               	btfss	(___flmul@b+2)^0,7,c
  2126  000C46  EF27  F006         	goto	u4091
  2127  000C4A  EF2A  F006         	goto	u4090
  2128  000C4E                     u4091:
  2129  000C4E  FFFF               	dw	65535	; assembler added errata NOP
  2130  000C50  EF2C  F006         	goto	l4085
  2131  000C54                     u4090:
  2132  000C54  FFFF               	dw	65535	; assembler added errata NOP
  2133  000C56  803F               	bsf	___flmul@bexp^0,0,c
  2134  000C58                     l4085:
  2135  000C58  FFFF               	dw	65535	; assembler added errata NOP
  2136  000C5A  503F               	movf	___flmul@bexp^0,w,c
  2137  000C5C  B4D8               	btfsc	status,2,c
  2138  000C5E  EF33  F006         	goto	u4101
  2139  000C62  EF36  F006         	goto	u4100
  2140  000C66                     u4101:
  2141  000C66  FFFF               	dw	65535	; assembler added errata NOP
  2142  000C68  EF4D  F006         	goto	l4093
  2143  000C6C                     u4100:
  2144  000C6C  FFFF               	dw	65535	; assembler added errata NOP
  2145  000C6E  283F               	incf	___flmul@bexp^0,w,c
  2146  000C70  A4D8               	btfss	status,2,c
  2147  000C72  EF3D  F006         	goto	u4111
  2148  000C76  EF40  F006         	goto	u4110
  2149  000C7A                     u4111:
  2150  000C7A  FFFF               	dw	65535	; assembler added errata NOP
  2151  000C7C  EF49  F006         	goto	l4091
  2152  000C80                     u4110:
  2153  000C80  FFFF               	dw	65535	; assembler added errata NOP
  2154  000C82  0E00               	movlw	0
  2155  000C84  6E2D               	movwf	___flmul@b^0,c
  2156  000C86  0E00               	movlw	0
  2157  000C88  6E2E               	movwf	(___flmul@b+1)^0,c
  2158  000C8A  0E00               	movlw	0
  2159  000C8C  6E2F               	movwf	(___flmul@b+2)^0,c
  2160  000C8E  0E00               	movlw	0
  2161  000C90  6E30               	movwf	(___flmul@b+3)^0,c
  2162  000C92                     l4091:
  2163  000C92  FFFF               	dw	65535	; assembler added errata NOP
  2164  000C94  8E2F               	bsf	(___flmul@b+2)^0,7,c
  2165  000C96  EF56  F006         	goto	l4095
  2166  000C9A                     l4093:
  2167  000C9A  FFFF               	dw	65535	; assembler added errata NOP
  2168  000C9C  0E00               	movlw	0
  2169  000C9E  6E2D               	movwf	___flmul@b^0,c
  2170  000CA0  0E00               	movlw	0
  2171  000CA2  6E2E               	movwf	(___flmul@b+1)^0,c
  2172  000CA4  0E00               	movlw	0
  2173  000CA6  6E2F               	movwf	(___flmul@b+2)^0,c
  2174  000CA8  0E00               	movlw	0
  2175  000CAA  6E30               	movwf	(___flmul@b+3)^0,c
  2176  000CAC                     l4095:
  2177  000CAC  FFFF               	dw	65535	; assembler added errata NOP
  2178  000CAE  5034               	movf	(___flmul@a+3)^0,w,c
  2179  000CB0  0B80               	andlw	128
  2180  000CB2  1A39               	xorwf	___flmul@sign^0,f,c
  2181  000CB4  5034               	movf	(___flmul@a+3)^0,w,c
  2182  000CB6  2434               	addwf	(___flmul@a+3)^0,w,c
  2183  000CB8  6E3E               	movwf	___flmul@aexp^0,c
  2184  000CBA  AE33               	btfss	(___flmul@a+2)^0,7,c
  2185  000CBC  EF62  F006         	goto	u4121
  2186  000CC0  EF65  F006         	goto	u4120
  2187  000CC4                     u4121:
  2188  000CC4  FFFF               	dw	65535	; assembler added errata NOP
  2189  000CC6  EF67  F006         	goto	l4103
  2190  000CCA                     u4120:
  2191  000CCA  FFFF               	dw	65535	; assembler added errata NOP
  2192  000CCC  803E               	bsf	___flmul@aexp^0,0,c
  2193  000CCE                     l4103:
  2194  000CCE  FFFF               	dw	65535	; assembler added errata NOP
  2195  000CD0  503E               	movf	___flmul@aexp^0,w,c
  2196  000CD2  B4D8               	btfsc	status,2,c
  2197  000CD4  EF6E  F006         	goto	u4131
  2198  000CD8  EF71  F006         	goto	u4130
  2199  000CDC                     u4131:
  2200  000CDC  FFFF               	dw	65535	; assembler added errata NOP
  2201  000CDE  EF88  F006         	goto	l4111
  2202  000CE2                     u4130:
  2203  000CE2  FFFF               	dw	65535	; assembler added errata NOP
  2204  000CE4  283E               	incf	___flmul@aexp^0,w,c
  2205  000CE6  A4D8               	btfss	status,2,c
  2206  000CE8  EF78  F006         	goto	u4141
  2207  000CEC  EF7B  F006         	goto	u4140
  2208  000CF0                     u4141:
  2209  000CF0  FFFF               	dw	65535	; assembler added errata NOP
  2210  000CF2  EF84  F006         	goto	l4109
  2211  000CF6                     u4140:
  2212  000CF6  FFFF               	dw	65535	; assembler added errata NOP
  2213  000CF8  0E00               	movlw	0
  2214  000CFA  6E31               	movwf	___flmul@a^0,c
  2215  000CFC  0E00               	movlw	0
  2216  000CFE  6E32               	movwf	(___flmul@a+1)^0,c
  2217  000D00  0E00               	movlw	0
  2218  000D02  6E33               	movwf	(___flmul@a+2)^0,c
  2219  000D04  0E00               	movlw	0
  2220  000D06  6E34               	movwf	(___flmul@a+3)^0,c
  2221  000D08                     l4109:
  2222  000D08  FFFF               	dw	65535	; assembler added errata NOP
  2223  000D0A  8E33               	bsf	(___flmul@a+2)^0,7,c
  2224  000D0C  EF91  F006         	goto	l1385
  2225  000D10                     l4111:
  2226  000D10  FFFF               	dw	65535	; assembler added errata NOP
  2227  000D12  0E00               	movlw	0
  2228  000D14  6E31               	movwf	___flmul@a^0,c
  2229  000D16  0E00               	movlw	0
  2230  000D18  6E32               	movwf	(___flmul@a+1)^0,c
  2231  000D1A  0E00               	movlw	0
  2232  000D1C  6E33               	movwf	(___flmul@a+2)^0,c
  2233  000D1E  0E00               	movlw	0
  2234  000D20  6E34               	movwf	(___flmul@a+3)^0,c
  2235  000D22                     l1385:
  2236  000D22  FFFF               	dw	65535	; assembler added errata NOP
  2237  000D24  503E               	movf	___flmul@aexp^0,w,c
  2238  000D26  B4D8               	btfsc	status,2,c
  2239  000D28  EF98  F006         	goto	u4151
  2240  000D2C  EF9B  F006         	goto	u4150
  2241  000D30                     u4151:
  2242  000D30  FFFF               	dw	65535	; assembler added errata NOP
  2243  000D32  EFA5  F006         	goto	l4115
  2244  000D36                     u4150:
  2245  000D36  FFFF               	dw	65535	; assembler added errata NOP
  2246  000D38  503F               	movf	___flmul@bexp^0,w,c
  2247  000D3A  A4D8               	btfss	status,2,c
  2248  000D3C  EFA2  F006         	goto	u4161
  2249  000D40  EFA5  F006         	goto	u4160
  2250  000D44                     u4161:
  2251  000D44  FFFF               	dw	65535	; assembler added errata NOP
  2252  000D46  EFB0  F006         	goto	l4119
  2253  000D4A                     u4160:
  2254  000D4A                     l4115:
  2255  000D4A  FFFF               	dw	65535	; assembler added errata NOP
  2256  000D4C  0E00               	movlw	0
  2257  000D4E  6E2D               	movwf	?___flmul^0,c
  2258  000D50  0E00               	movlw	0
  2259  000D52  6E2E               	movwf	(?___flmul+1)^0,c
  2260  000D54  0E00               	movlw	0
  2261  000D56  6E2F               	movwf	(?___flmul+2)^0,c
  2262  000D58  0E00               	movlw	0
  2263  000D5A  6E30               	movwf	(?___flmul+3)^0,c
  2264  000D5C  EF6A  F008         	goto	l1389
  2265  000D60                     l4119:
  2266  000D60  FFFF               	dw	65535	; assembler added errata NOP
  2267  000D62  5033               	movf	(___flmul@a+2)^0,w,c
  2268  000D64  022D               	mulwf	___flmul@b^0,c
  2269  000D66  CFF3 F044          	movff	prodl,___flmul@temp
  2270  000D6A  CFF4 F045          	movff	prodh,___flmul@temp+1
  2271  000D6E  5044               	movf	___flmul@temp^0,w,c
  2272  000D70  6E3A               	movwf	___flmul@grs^0,c
  2273  000D72  6A3B               	clrf	(___flmul@grs+1)^0,c
  2274  000D74  6A3C               	clrf	(___flmul@grs+2)^0,c
  2275  000D76  6A3D               	clrf	(___flmul@grs+3)^0,c
  2276  000D78  5045               	movf	(___flmul@temp+1)^0,w,c
  2277  000D7A  6E40               	movwf	___flmul@prod^0,c
  2278  000D7C  6A41               	clrf	(___flmul@prod+1)^0,c
  2279  000D7E  6A42               	clrf	(___flmul@prod+2)^0,c
  2280  000D80  6A43               	clrf	(___flmul@prod+3)^0,c
  2281  000D82  5032               	movf	(___flmul@a+1)^0,w,c
  2282  000D84  022E               	mulwf	(___flmul@b+1)^0,c
  2283  000D86  CFF3 F044          	movff	prodl,___flmul@temp
  2284  000D8A  CFF4 F045          	movff	prodh,___flmul@temp+1
  2285  000D8E  5044               	movf	___flmul@temp^0,w,c
  2286  000D90  263A               	addwf	___flmul@grs^0,f,c
  2287  000D92  0E00               	movlw	0
  2288  000D94  223B               	addwfc	(___flmul@grs+1)^0,f,c
  2289  000D96  223C               	addwfc	(___flmul@grs+2)^0,f,c
  2290  000D98  223D               	addwfc	(___flmul@grs+3)^0,f,c
  2291  000D9A  5045               	movf	(___flmul@temp+1)^0,w,c
  2292  000D9C  2640               	addwf	___flmul@prod^0,f,c
  2293  000D9E  0E00               	movlw	0
  2294  000DA0  2241               	addwfc	(___flmul@prod+1)^0,f,c
  2295  000DA2  2242               	addwfc	(___flmul@prod+2)^0,f,c
  2296  000DA4  2243               	addwfc	(___flmul@prod+3)^0,f,c
  2297  000DA6  5031               	movf	___flmul@a^0,w,c
  2298  000DA8  022F               	mulwf	(___flmul@b+2)^0,c
  2299  000DAA  CFF3 F044          	movff	prodl,___flmul@temp
  2300  000DAE  CFF4 F045          	movff	prodh,___flmul@temp+1
  2301  000DB2  5044               	movf	___flmul@temp^0,w,c
  2302  000DB4  263A               	addwf	___flmul@grs^0,f,c
  2303  000DB6  0E00               	movlw	0
  2304  000DB8  223B               	addwfc	(___flmul@grs+1)^0,f,c
  2305  000DBA  223C               	addwfc	(___flmul@grs+2)^0,f,c
  2306  000DBC  223D               	addwfc	(___flmul@grs+3)^0,f,c
  2307  000DBE  5045               	movf	(___flmul@temp+1)^0,w,c
  2308  000DC0  2640               	addwf	___flmul@prod^0,f,c
  2309  000DC2  0E00               	movlw	0
  2310  000DC4  2241               	addwfc	(___flmul@prod+1)^0,f,c
  2311  000DC6  2242               	addwfc	(___flmul@prod+2)^0,f,c
  2312  000DC8  2243               	addwfc	(___flmul@prod+3)^0,f,c
  2313  000DCA  C03C  F03D         	movff	___flmul@grs+2,___flmul@grs+3
  2314  000DCE  C03B  F03C         	movff	___flmul@grs+1,___flmul@grs+2
  2315  000DD2  C03A  F03B         	movff	___flmul@grs,___flmul@grs+1
  2316  000DD6  6A3A               	clrf	___flmul@grs^0,c
  2317  000DD8  5031               	movf	___flmul@a^0,w,c
  2318  000DDA  022E               	mulwf	(___flmul@b+1)^0,c
  2319  000DDC  CFF3 F044          	movff	prodl,___flmul@temp
  2320  000DE0  CFF4 F045          	movff	prodh,___flmul@temp+1
  2321  000DE4  5044               	movf	___flmul@temp^0,w,c
  2322  000DE6  263A               	addwf	___flmul@grs^0,f,c
  2323  000DE8  5045               	movf	(___flmul@temp+1)^0,w,c
  2324  000DEA  223B               	addwfc	(___flmul@grs+1)^0,f,c
  2325  000DEC  0E00               	movlw	0
  2326  000DEE  223C               	addwfc	(___flmul@grs+2)^0,f,c
  2327  000DF0  0E00               	movlw	0
  2328  000DF2  223D               	addwfc	(___flmul@grs+3)^0,f,c
  2329  000DF4  5032               	movf	(___flmul@a+1)^0,w,c
  2330  000DF6  022D               	mulwf	___flmul@b^0,c
  2331  000DF8  CFF3 F044          	movff	prodl,___flmul@temp
  2332  000DFC  CFF4 F045          	movff	prodh,___flmul@temp+1
  2333  000E00  5044               	movf	___flmul@temp^0,w,c
  2334  000E02  263A               	addwf	___flmul@grs^0,f,c
  2335  000E04  5045               	movf	(___flmul@temp+1)^0,w,c
  2336  000E06  223B               	addwfc	(___flmul@grs+1)^0,f,c
  2337  000E08  0E00               	movlw	0
  2338  000E0A  223C               	addwfc	(___flmul@grs+2)^0,f,c
  2339  000E0C  0E00               	movlw	0
  2340  000E0E  223D               	addwfc	(___flmul@grs+3)^0,f,c
  2341  000E10  C03C  F03D         	movff	___flmul@grs+2,___flmul@grs+3
  2342  000E14  C03B  F03C         	movff	___flmul@grs+1,___flmul@grs+2
  2343  000E18  C03A  F03B         	movff	___flmul@grs,___flmul@grs+1
  2344  000E1C  6A3A               	clrf	___flmul@grs^0,c
  2345  000E1E  5031               	movf	___flmul@a^0,w,c
  2346  000E20  022D               	mulwf	___flmul@b^0,c
  2347  000E22  CFF3 F044          	movff	prodl,___flmul@temp
  2348  000E26  CFF4 F045          	movff	prodh,___flmul@temp+1
  2349  000E2A  5044               	movf	___flmul@temp^0,w,c
  2350  000E2C  263A               	addwf	___flmul@grs^0,f,c
  2351  000E2E  5045               	movf	(___flmul@temp+1)^0,w,c
  2352  000E30  223B               	addwfc	(___flmul@grs+1)^0,f,c
  2353  000E32  0E00               	movlw	0
  2354  000E34  223C               	addwfc	(___flmul@grs+2)^0,f,c
  2355  000E36  0E00               	movlw	0
  2356  000E38  223D               	addwfc	(___flmul@grs+3)^0,f,c
  2357  000E3A  5033               	movf	(___flmul@a+2)^0,w,c
  2358  000E3C  022E               	mulwf	(___flmul@b+1)^0,c
  2359  000E3E  CFF3 F044          	movff	prodl,___flmul@temp
  2360  000E42  CFF4 F045          	movff	prodh,___flmul@temp+1
  2361  000E46  5044               	movf	___flmul@temp^0,w,c
  2362  000E48  2640               	addwf	___flmul@prod^0,f,c
  2363  000E4A  5045               	movf	(___flmul@temp+1)^0,w,c
  2364  000E4C  2241               	addwfc	(___flmul@prod+1)^0,f,c
  2365  000E4E  0E00               	movlw	0
  2366  000E50  2242               	addwfc	(___flmul@prod+2)^0,f,c
  2367  000E52  0E00               	movlw	0
  2368  000E54  2243               	addwfc	(___flmul@prod+3)^0,f,c
  2369  000E56  5032               	movf	(___flmul@a+1)^0,w,c
  2370  000E58  022F               	mulwf	(___flmul@b+2)^0,c
  2371  000E5A  CFF3 F044          	movff	prodl,___flmul@temp
  2372  000E5E  CFF4 F045          	movff	prodh,___flmul@temp+1
  2373  000E62  5044               	movf	___flmul@temp^0,w,c
  2374  000E64  2640               	addwf	___flmul@prod^0,f,c
  2375  000E66  5045               	movf	(___flmul@temp+1)^0,w,c
  2376  000E68  2241               	addwfc	(___flmul@prod+1)^0,f,c
  2377  000E6A  0E00               	movlw	0
  2378  000E6C  2242               	addwfc	(___flmul@prod+2)^0,f,c
  2379  000E6E  0E00               	movlw	0
  2380  000E70  2243               	addwfc	(___flmul@prod+3)^0,f,c
  2381  000E72  5033               	movf	(___flmul@a+2)^0,w,c
  2382  000E74  022F               	mulwf	(___flmul@b+2)^0,c
  2383  000E76  CFF3 F044          	movff	prodl,___flmul@temp
  2384  000E7A  CFF4 F045          	movff	prodh,___flmul@temp+1
  2385  000E7E  5044               	movf	___flmul@temp^0,w,c
  2386  000E80  6E35               	movwf	??___flmul^0,c
  2387  000E82  5045               	movf	(___flmul@temp+1)^0,w,c
  2388  000E84  6E36               	movwf	(??___flmul+1)^0,c
  2389  000E86  6A37               	clrf	(??___flmul+2)^0,c
  2390  000E88  6A38               	clrf	(??___flmul+3)^0,c
  2391  000E8A  C037  F038         	movff	??___flmul+2,??___flmul+3
  2392  000E8E  C036  F037         	movff	??___flmul+1,??___flmul+2
  2393  000E92  C035  F036         	movff	??___flmul,??___flmul+1
  2394  000E96  6A35               	clrf	??___flmul^0,c
  2395  000E98  5035               	movf	??___flmul^0,w,c
  2396  000E9A  2640               	addwf	___flmul@prod^0,f,c
  2397  000E9C  5036               	movf	(??___flmul+1)^0,w,c
  2398  000E9E  2241               	addwfc	(___flmul@prod+1)^0,f,c
  2399  000EA0  5037               	movf	(??___flmul+2)^0,w,c
  2400  000EA2  2242               	addwfc	(___flmul@prod+2)^0,f,c
  2401  000EA4  5038               	movf	(??___flmul+3)^0,w,c
  2402  000EA6  2243               	addwfc	(___flmul@prod+3)^0,f,c
  2403  000EA8  C03A  F035         	movff	___flmul@grs,??___flmul
  2404  000EAC  C03B  F036         	movff	___flmul@grs+1,??___flmul+1
  2405  000EB0  C03C  F037         	movff	___flmul@grs+2,??___flmul+2
  2406  000EB4  C03D  F038         	movff	___flmul@grs+3,??___flmul+3
  2407  000EB8  0E19               	movlw	25
  2408  000EBA  EF65  F007         	goto	u4170
  2409  000EBE                     u4175:
  2410  000EBE  FFFF               	dw	65535	; assembler added errata NOP
  2411  000EC0  90D8               	bcf	status,0,c
  2412  000EC2  3238               	rrcf	(??___flmul+3)^0,f,c
  2413  000EC4  3237               	rrcf	(??___flmul+2)^0,f,c
  2414  000EC6  3236               	rrcf	(??___flmul+1)^0,f,c
  2415  000EC8  3235               	rrcf	??___flmul^0,f,c
  2416  000ECA                     u4170:
  2417  000ECA  FFFF               	dw	65535	; assembler added errata NOP
  2418  000ECC  2EE8               	decfsz	wreg,f,c
  2419  000ECE  EF5F  F007         	goto	u4175
  2420  000ED2  5035               	movf	??___flmul^0,w,c
  2421  000ED4  2640               	addwf	___flmul@prod^0,f,c
  2422  000ED6  5036               	movf	(??___flmul+1)^0,w,c
  2423  000ED8  2241               	addwfc	(___flmul@prod+1)^0,f,c
  2424  000EDA  5037               	movf	(??___flmul+2)^0,w,c
  2425  000EDC  2242               	addwfc	(___flmul@prod+2)^0,f,c
  2426  000EDE  5038               	movf	(??___flmul+3)^0,w,c
  2427  000EE0  2243               	addwfc	(___flmul@prod+3)^0,f,c
  2428  000EE2  C03C  F03D         	movff	___flmul@grs+2,___flmul@grs+3
  2429  000EE6  C03B  F03C         	movff	___flmul@grs+1,___flmul@grs+2
  2430  000EEA  C03A  F03B         	movff	___flmul@grs,___flmul@grs+1
  2431  000EEE  6A3A               	clrf	___flmul@grs^0,c
  2432  000EF0  503E               	movf	___flmul@aexp^0,w,c
  2433  000EF2  C03F  F035         	movff	___flmul@bexp,??___flmul
  2434  000EF6  6A36               	clrf	(??___flmul+1)^0,c
  2435  000EF8  2635               	addwf	??___flmul^0,f,c
  2436  000EFA  0E00               	movlw	0
  2437  000EFC  2236               	addwfc	(??___flmul+1)^0,f,c
  2438  000EFE  0E82               	movlw	130
  2439  000F00  2435               	addwf	??___flmul^0,w,c
  2440  000F02  6E44               	movwf	___flmul@temp^0,c
  2441  000F04  0EFF               	movlw	255
  2442  000F06  2036               	addwfc	(??___flmul+1)^0,w,c
  2443  000F08  6E45               	movwf	(___flmul@temp+1)^0,c
  2444  000F0A  EFA0  F007         	goto	l4167
  2445  000F0E                     l4161:
  2446  000F0E  FFFF               	dw	65535	; assembler added errata NOP
  2447  000F10  90D8               	bcf	status,0,c
  2448  000F12  3640               	rlcf	___flmul@prod^0,f,c
  2449  000F14  3641               	rlcf	(___flmul@prod+1)^0,f,c
  2450  000F16  3642               	rlcf	(___flmul@prod+2)^0,f,c
  2451  000F18  3643               	rlcf	(___flmul@prod+3)^0,f,c
  2452  000F1A  AE3D               	btfss	(___flmul@grs+3)^0,7,c
  2453  000F1C  EF92  F007         	goto	u4181
  2454  000F20  EF95  F007         	goto	u4180
  2455  000F24                     u4181:
  2456  000F24  FFFF               	dw	65535	; assembler added errata NOP
  2457  000F26  EF97  F007         	goto	l1392
  2458  000F2A                     u4180:
  2459  000F2A  FFFF               	dw	65535	; assembler added errata NOP
  2460  000F2C  8040               	bsf	___flmul@prod^0,0,c
  2461  000F2E                     l1392:
  2462  000F2E  FFFF               	dw	65535	; assembler added errata NOP
  2463  000F30  90D8               	bcf	status,0,c
  2464  000F32  363A               	rlcf	___flmul@grs^0,f,c
  2465  000F34  363B               	rlcf	(___flmul@grs+1)^0,f,c
  2466  000F36  363C               	rlcf	(___flmul@grs+2)^0,f,c
  2467  000F38  363D               	rlcf	(___flmul@grs+3)^0,f,c
  2468  000F3A  0644               	decf	___flmul@temp^0,f,c
  2469  000F3C  A0D8               	btfss	status,0,c
  2470  000F3E  0645               	decf	(___flmul@temp+1)^0,f,c
  2471  000F40                     l4167:
  2472  000F40  FFFF               	dw	65535	; assembler added errata NOP
  2473  000F42  AE42               	btfss	(___flmul@prod+2)^0,7,c
  2474  000F44  EFA6  F007         	goto	u4191
  2475  000F48  EFA9  F007         	goto	u4190
  2476  000F4C                     u4191:
  2477  000F4C  FFFF               	dw	65535	; assembler added errata NOP
  2478  000F4E  EF87  F007         	goto	l4161
  2479  000F52                     u4190:
  2480  000F52  FFFF               	dw	65535	; assembler added errata NOP
  2481  000F54  0E00               	movlw	0
  2482  000F56  6E3E               	movwf	___flmul@aexp^0,c
  2483  000F58  AE3D               	btfss	(___flmul@grs+3)^0,7,c
  2484  000F5A  EFB1  F007         	goto	u4201
  2485  000F5E  EFB4  F007         	goto	u4200
  2486  000F62                     u4201:
  2487  000F62  FFFF               	dw	65535	; assembler added errata NOP
  2488  000F64  EFDF  F007         	goto	l1394
  2489  000F68                     u4200:
  2490  000F68  FFFF               	dw	65535	; assembler added errata NOP
  2491  000F6A  0EFF               	movlw	255
  2492  000F6C  143A               	andwf	___flmul@grs^0,w,c
  2493  000F6E  6E35               	movwf	??___flmul^0,c
  2494  000F70  0EFF               	movlw	255
  2495  000F72  143B               	andwf	(___flmul@grs+1)^0,w,c
  2496  000F74  6E36               	movwf	(??___flmul+1)^0,c
  2497  000F76  0EFF               	movlw	255
  2498  000F78  143C               	andwf	(___flmul@grs+2)^0,w,c
  2499  000F7A  6E37               	movwf	(??___flmul+2)^0,c
  2500  000F7C  0E7F               	movlw	127
  2501  000F7E  143D               	andwf	(___flmul@grs+3)^0,w,c
  2502  000F80  6E38               	movwf	(??___flmul+3)^0,c
  2503  000F82  5035               	movf	??___flmul^0,w,c
  2504  000F84  1036               	iorwf	(??___flmul+1)^0,w,c
  2505  000F86  1037               	iorwf	(??___flmul+2)^0,w,c
  2506  000F88  1038               	iorwf	(??___flmul+3)^0,w,c
  2507  000F8A  B4D8               	btfsc	status,2,c
  2508  000F8C  EFCA  F007         	goto	u4211
  2509  000F90  EFCD  F007         	goto	u4210
  2510  000F94                     u4211:
  2511  000F94  FFFF               	dw	65535	; assembler added errata NOP
  2512  000F96  EFD3  F007         	goto	l1395
  2513  000F9A                     u4210:
  2514  000F9A  FFFF               	dw	65535	; assembler added errata NOP
  2515  000F9C                     l4175:
  2516  000F9C  FFFF               	dw	65535	; assembler added errata NOP
  2517  000F9E  0E01               	movlw	1
  2518  000FA0  6E3E               	movwf	___flmul@aexp^0,c
  2519  000FA2  EFDF  F007         	goto	l1394
  2520  000FA6                     l1395:
  2521  000FA6  FFFF               	dw	65535	; assembler added errata NOP
  2522  000FA8  A040               	btfss	___flmul@prod^0,0,c
  2523  000FAA  EFD9  F007         	goto	u4221
  2524  000FAE  EFDC  F007         	goto	u4220
  2525  000FB2                     u4221:
  2526  000FB2  FFFF               	dw	65535	; assembler added errata NOP
  2527  000FB4  EFDF  F007         	goto	l1394
  2528  000FB8                     u4220:
  2529  000FB8  FFFF               	dw	65535	; assembler added errata NOP
  2530  000FBA  EFCE  F007         	goto	l4175
  2531  000FBE                     l1394:
  2532  000FBE  FFFF               	dw	65535	; assembler added errata NOP
  2533  000FC0  503E               	movf	___flmul@aexp^0,w,c
  2534  000FC2  B4D8               	btfsc	status,2,c
  2535  000FC4  EFE6  F007         	goto	u4231
  2536  000FC8  EFE9  F007         	goto	u4230
  2537  000FCC                     u4231:
  2538  000FCC  FFFF               	dw	65535	; assembler added errata NOP
  2539  000FCE  EF10  F008         	goto	l4187
  2540  000FD2                     u4230:
  2541  000FD2  FFFF               	dw	65535	; assembler added errata NOP
  2542  000FD4  0E01               	movlw	1
  2543  000FD6  2640               	addwf	___flmul@prod^0,f,c
  2544  000FD8  0E00               	movlw	0
  2545  000FDA  2241               	addwfc	(___flmul@prod+1)^0,f,c
  2546  000FDC  2242               	addwfc	(___flmul@prod+2)^0,f,c
  2547  000FDE  2243               	addwfc	(___flmul@prod+3)^0,f,c
  2548  000FE0  A043               	btfss	(___flmul@prod+3)^0,0,c
  2549  000FE2  EFF5  F007         	goto	u4241
  2550  000FE6  EFF8  F007         	goto	u4240
  2551  000FEA                     u4241:
  2552  000FEA  FFFF               	dw	65535	; assembler added errata NOP
  2553  000FEC  EF10  F008         	goto	l4187
  2554  000FF0                     u4240:
  2555  000FF0  FFFF               	dw	65535	; assembler added errata NOP
  2556  000FF2  C040  F035         	movff	___flmul@prod,??___flmul
  2557  000FF6  C041  F036         	movff	___flmul@prod+1,??___flmul+1
  2558  000FFA  C042  F037         	movff	___flmul@prod+2,??___flmul+2
  2559  000FFE  C043  F038         	movff	___flmul@prod+3,??___flmul+3
  2560  001002  3438               	rlcf	(??___flmul+3)^0,w,c
  2561  001004  3238               	rrcf	(??___flmul+3)^0,f,c
  2562  001006  3237               	rrcf	(??___flmul+2)^0,f,c
  2563  001008  3236               	rrcf	(??___flmul+1)^0,f,c
  2564  00100A  3235               	rrcf	??___flmul^0,f,c
  2565  00100C  C035  F040         	movff	??___flmul,___flmul@prod
  2566  001010  C036  F041         	movff	??___flmul+1,___flmul@prod+1
  2567  001014  C037  F042         	movff	??___flmul+2,___flmul@prod+2
  2568  001018  C038  F043         	movff	??___flmul+3,___flmul@prod+3
  2569  00101C  4A44               	infsnz	___flmul@temp^0,f,c
  2570  00101E  2A45               	incf	(___flmul@temp+1)^0,f,c
  2571  001020                     l4187:
  2572  001020  FFFF               	dw	65535	; assembler added errata NOP
  2573  001022  BE45               	btfsc	(___flmul@temp+1)^0,7,c
  2574  001024  EF1C  F008         	goto	u4251
  2575  001028  5045               	movf	(___flmul@temp+1)^0,w,c
  2576  00102A  E109               	bnz	u4250
  2577  00102C  2844               	incf	___flmul@temp^0,w,c
  2578  00102E  A0D8               	btfss	status,0,c
  2579  001030  EF1C  F008         	goto	u4251
  2580  001034  EF1F  F008         	goto	u4250
  2581  001038                     u4251:
  2582  001038  FFFF               	dw	65535	; assembler added errata NOP
  2583  00103A  EF2A  F008         	goto	l4191
  2584  00103E                     u4250:
  2585  00103E  FFFF               	dw	65535	; assembler added errata NOP
  2586  001040  0E00               	movlw	0
  2587  001042  6E40               	movwf	___flmul@prod^0,c
  2588  001044  0E00               	movlw	0
  2589  001046  6E41               	movwf	(___flmul@prod+1)^0,c
  2590  001048  0E80               	movlw	128
  2591  00104A  6E42               	movwf	(___flmul@prod+2)^0,c
  2592  00104C  0E7F               	movlw	127
  2593  00104E  6E43               	movwf	(___flmul@prod+3)^0,c
  2594  001050  EF5F  F008         	goto	l4203
  2595  001054                     l4191:
  2596  001054  FFFF               	dw	65535	; assembler added errata NOP
  2597  001056  BE45               	btfsc	(___flmul@temp+1)^0,7,c
  2598  001058  EF39  F008         	goto	u4260
  2599  00105C  5045               	movf	(___flmul@temp+1)^0,w,c
  2600  00105E  E106               	bnz	u4261
  2601  001060  0444               	decf	___flmul@temp^0,w,c
  2602  001062  B0D8               	btfsc	status,0,c
  2603  001064  EF36  F008         	goto	u4261
  2604  001068  EF39  F008         	goto	u4260
  2605  00106C                     u4261:
  2606  00106C  FFFF               	dw	65535	; assembler added errata NOP
  2607  00106E  EF46  F008         	goto	l1402
  2608  001072                     u4260:
  2609  001072  FFFF               	dw	65535	; assembler added errata NOP
  2610  001074  0E00               	movlw	0
  2611  001076  6E40               	movwf	___flmul@prod^0,c
  2612  001078  0E00               	movlw	0
  2613  00107A  6E41               	movwf	(___flmul@prod+1)^0,c
  2614  00107C  0E00               	movlw	0
  2615  00107E  6E42               	movwf	(___flmul@prod+2)^0,c
  2616  001080  0E00               	movlw	0
  2617  001082  6E43               	movwf	(___flmul@prod+3)^0,c
  2618  001084  0E00               	movlw	0
  2619  001086  6E39               	movwf	___flmul@sign^0,c
  2620  001088  EF5F  F008         	goto	l4203
  2621  00108C                     l1402:
  2622  00108C  FFFF               	dw	65535	; assembler added errata NOP
  2623  00108E  C044  F03F         	movff	___flmul@temp,___flmul@bexp
  2624  001092  0EFF               	movlw	255
  2625  001094  1640               	andwf	___flmul@prod^0,f,c
  2626  001096  0EFF               	movlw	255
  2627  001098  1641               	andwf	(___flmul@prod+1)^0,f,c
  2628  00109A  0E7F               	movlw	127
  2629  00109C  1642               	andwf	(___flmul@prod+2)^0,f,c
  2630  00109E  0E00               	movlw	0
  2631  0010A0  1643               	andwf	(___flmul@prod+3)^0,f,c
  2632  0010A2  A03F               	btfss	___flmul@bexp^0,0,c
  2633  0010A4  EF56  F008         	goto	u4271
  2634  0010A8  EF59  F008         	goto	u4270
  2635  0010AC                     u4271:
  2636  0010AC  FFFF               	dw	65535	; assembler added errata NOP
  2637  0010AE  EF5B  F008         	goto	l4201
  2638  0010B2                     u4270:
  2639  0010B2  FFFF               	dw	65535	; assembler added errata NOP
  2640  0010B4  8E42               	bsf	(___flmul@prod+2)^0,7,c
  2641  0010B6                     l4201:
  2642  0010B6  FFFF               	dw	65535	; assembler added errata NOP
  2643  0010B8  90D8               	bcf	status,0,c
  2644  0010BA  303F               	rrcf	___flmul@bexp^0,w,c
  2645  0010BC  6E43               	movwf	(___flmul@prod+3)^0,c
  2646  0010BE                     l4203:
  2647  0010BE  FFFF               	dw	65535	; assembler added errata NOP
  2648  0010C0  5039               	movf	___flmul@sign^0,w,c
  2649  0010C2  1243               	iorwf	(___flmul@prod+3)^0,f,c
  2650  0010C4  C040  F02D         	movff	___flmul@prod,?___flmul
  2651  0010C8  C041  F02E         	movff	___flmul@prod+1,?___flmul+1
  2652  0010CC  C042  F02F         	movff	___flmul@prod+2,?___flmul+2
  2653  0010D0  C043  F030         	movff	___flmul@prod+3,?___flmul+3
  2654  0010D4                     l1389:
  2655  0010D4  FFFF               	dw	65535	; assembler added errata NOP
  2656  0010D6  0012               	return		;funcret
  2657  0010D8  FFFF               	dw	65535	; errata NOP
  2658  0010DA                     __end_of___flmul:
  2659                           	opt callstack 0
  2660                           
  2661 ;; *************** function ___fldiv *****************
  2662 ;; Defined at:
  2663 ;;		line 11 in file "C:\Programs\Microchip\xc8\v2.10\pic\sources\c99\common\sprcdiv.c"
  2664 ;; Parameters:    Size  Location     Type
  2665 ;;  b               4   69[COMRAM] unsigned char 
  2666 ;;  a               4   73[COMRAM] unsigned char 
  2667 ;; Auto vars:     Size  Location     Type
  2668 ;;  grs             4   11[BANK0 ] unsigned long 
  2669 ;;  rem             4    4[BANK0 ] unsigned long 
  2670 ;;  new_exp         2    9[BANK0 ] short 
  2671 ;;  aexp            1   16[BANK0 ] unsigned char 
  2672 ;;  bexp            1   15[BANK0 ] unsigned char 
  2673 ;;  sign            1    8[BANK0 ] unsigned char 
  2674 ;; Return value:  Size  Location     Type
  2675 ;;                  4   69[COMRAM] unsigned char 
  2676 ;; Registers used:
  2677 ;;		wreg, status,2, status,0
  2678 ;; Tracked objects:
  2679 ;;		On entry : 0/0
  2680 ;;		On exit  : 0/0
  2681 ;;		Unchanged: 0/0
  2682 ;; Data sizes:     COMRAM   BANK0   BANK1   BANK2   BANK3   BANK4   BANK5
  2683 ;;      Params:         8       0       0       0       0       0       0
  2684 ;;      Locals:         0      13       0       0       0       0       0
  2685 ;;      Temps:          0       4       0       0       0       0       0
  2686 ;;      Totals:         8      17       0       0       0       0       0
  2687 ;;Total ram usage:       25 bytes
  2688 ;; Hardware stack levels used:    1
  2689 ;; Hardware stack levels required when called:    5
  2690 ;; This function calls:
  2691 ;;		Nothing
  2692 ;; This function is called by:
  2693 ;;		_uart_init
  2694 ;; This function uses a non-reentrant model
  2695 ;;
  2696                           
  2697                           	psect	text8
  2698  0010DA                     __ptext8:
  2699                           	opt callstack 0
  2700  0010DA                     ___fldiv:
  2701                           	opt callstack 0
  2702  0010DA  FFFF               	dw	65535	; assembler added errata NOP
  2703  0010DC  5049               	movf	(___fldiv@b+3)^0,w,c
  2704  0010DE  0B80               	andlw	128
  2705  0010E0  0100               	movlb	0	; () banked
  2706  0010E2  6F88               	movwf	___fldiv@sign& (0+255),b
  2707  0010E4  5049               	movf	(___fldiv@b+3)^0,w,c
  2708  0010E6  2449               	addwf	(___fldiv@b+3)^0,w,c
  2709  0010E8  6F8F               	movwf	___fldiv@bexp& (0+255),b
  2710  0010EA                     
  2711                           ; BSR set to: 0
  2712  0010EA  AE48               	btfss	(___fldiv@b+2)^0,7,c
  2713  0010EC  EF7A  F008         	goto	u5551
  2714  0010F0  EF7D  F008         	goto	u5550
  2715  0010F4                     u5551:
  2716  0010F4  FFFF               	dw	65535	; assembler added errata NOP
  2717  0010F6  EF7F  F008         	goto	l5167
  2718  0010FA                     u5550:
  2719  0010FA  FFFF               	dw	65535	; assembler added errata NOP
  2720  0010FC                     
  2721                           ; BSR set to: 0
  2722  0010FC  818F               	bsf	___fldiv@bexp& (0+255),0,b
  2723  0010FE                     l5167:
  2724  0010FE  FFFF               	dw	65535	; assembler added errata NOP
  2725                           
  2726                           ; BSR set to: 0
  2727  001100  518F               	movf	___fldiv@bexp& (0+255),w,b
  2728  001102  B4D8               	btfsc	status,2,c
  2729  001104  EF86  F008         	goto	u5561
  2730  001108  EF89  F008         	goto	u5560
  2731  00110C                     u5561:
  2732  00110C  FFFF               	dw	65535	; assembler added errata NOP
  2733  00110E  EFA2  F008         	goto	l5177
  2734  001112                     u5560:
  2735  001112  FFFF               	dw	65535	; assembler added errata NOP
  2736  001114                     
  2737                           ; BSR set to: 0
  2738  001114  298F               	incf	___fldiv@bexp& (0+255),w,b
  2739  001116  A4D8               	btfss	status,2,c
  2740  001118  EF90  F008         	goto	u5571
  2741  00111C  EF93  F008         	goto	u5570
  2742  001120                     u5571:
  2743  001120  FFFF               	dw	65535	; assembler added errata NOP
  2744  001122  EF9C  F008         	goto	l5173
  2745  001126                     u5570:
  2746  001126  FFFF               	dw	65535	; assembler added errata NOP
  2747  001128                     
  2748                           ; BSR set to: 0
  2749  001128  0E00               	movlw	0
  2750  00112A  6E46               	movwf	___fldiv@b^0,c
  2751  00112C  0E00               	movlw	0
  2752  00112E  6E47               	movwf	(___fldiv@b+1)^0,c
  2753  001130  0E00               	movlw	0
  2754  001132  6E48               	movwf	(___fldiv@b+2)^0,c
  2755  001134  0E00               	movlw	0
  2756  001136  6E49               	movwf	(___fldiv@b+3)^0,c
  2757  001138                     l5173:
  2758  001138  FFFF               	dw	65535	; assembler added errata NOP
  2759                           
  2760                           ; BSR set to: 0
  2761  00113A  8E48               	bsf	(___fldiv@b+2)^0,7,c
  2762  00113C                     
  2763                           ; BSR set to: 0
  2764  00113C  0E00               	movlw	0
  2765  00113E  6E49               	movwf	(___fldiv@b+3)^0,c
  2766  001140  EFAB  F008         	goto	l5179
  2767  001144                     l5177:
  2768  001144  FFFF               	dw	65535	; assembler added errata NOP
  2769                           
  2770                           ; BSR set to: 0
  2771  001146  0E00               	movlw	0
  2772  001148  6E46               	movwf	___fldiv@b^0,c
  2773  00114A  0E00               	movlw	0
  2774  00114C  6E47               	movwf	(___fldiv@b+1)^0,c
  2775  00114E  0E00               	movlw	0
  2776  001150  6E48               	movwf	(___fldiv@b+2)^0,c
  2777  001152  0E00               	movlw	0
  2778  001154  6E49               	movwf	(___fldiv@b+3)^0,c
  2779  001156                     l5179:
  2780  001156  FFFF               	dw	65535	; assembler added errata NOP
  2781                           
  2782                           ; BSR set to: 0
  2783  001158  504D               	movf	(___fldiv@a+3)^0,w,c
  2784  00115A  0B80               	andlw	128
  2785  00115C  1B88               	xorwf	___fldiv@sign& (0+255),f,b
  2786  00115E                     
  2787                           ; BSR set to: 0
  2788  00115E  504D               	movf	(___fldiv@a+3)^0,w,c
  2789  001160  244D               	addwf	(___fldiv@a+3)^0,w,c
  2790  001162  6F90               	movwf	___fldiv@aexp& (0+255),b
  2791  001164                     
  2792                           ; BSR set to: 0
  2793  001164  AE4C               	btfss	(___fldiv@a+2)^0,7,c
  2794  001166  EFB7  F008         	goto	u5581
  2795  00116A  EFBA  F008         	goto	u5580
  2796  00116E                     u5581:
  2797  00116E  FFFF               	dw	65535	; assembler added errata NOP
  2798  001170  EFBC  F008         	goto	l5187
  2799  001174                     u5580:
  2800  001174  FFFF               	dw	65535	; assembler added errata NOP
  2801  001176                     
  2802                           ; BSR set to: 0
  2803  001176  8190               	bsf	___fldiv@aexp& (0+255),0,b
  2804  001178                     l5187:
  2805  001178  FFFF               	dw	65535	; assembler added errata NOP
  2806                           
  2807                           ; BSR set to: 0
  2808  00117A  5190               	movf	___fldiv@aexp& (0+255),w,b
  2809  00117C  B4D8               	btfsc	status,2,c
  2810  00117E  EFC3  F008         	goto	u5591
  2811  001182  EFC6  F008         	goto	u5590
  2812  001186                     u5591:
  2813  001186  FFFF               	dw	65535	; assembler added errata NOP
  2814  001188  EFDF  F008         	goto	l5197
  2815  00118C                     u5590:
  2816  00118C  FFFF               	dw	65535	; assembler added errata NOP
  2817  00118E                     
  2818                           ; BSR set to: 0
  2819  00118E  2990               	incf	___fldiv@aexp& (0+255),w,b
  2820  001190  A4D8               	btfss	status,2,c
  2821  001192  EFCD  F008         	goto	u5601
  2822  001196  EFD0  F008         	goto	u5600
  2823  00119A                     u5601:
  2824  00119A  FFFF               	dw	65535	; assembler added errata NOP
  2825  00119C  EFD9  F008         	goto	l5193
  2826  0011A0                     u5600:
  2827  0011A0  FFFF               	dw	65535	; assembler added errata NOP
  2828  0011A2                     
  2829                           ; BSR set to: 0
  2830  0011A2  0E00               	movlw	0
  2831  0011A4  6E4A               	movwf	___fldiv@a^0,c
  2832  0011A6  0E00               	movlw	0
  2833  0011A8  6E4B               	movwf	(___fldiv@a+1)^0,c
  2834  0011AA  0E00               	movlw	0
  2835  0011AC  6E4C               	movwf	(___fldiv@a+2)^0,c
  2836  0011AE  0E00               	movlw	0
  2837  0011B0  6E4D               	movwf	(___fldiv@a+3)^0,c
  2838  0011B2                     l5193:
  2839  0011B2  FFFF               	dw	65535	; assembler added errata NOP
  2840                           
  2841                           ; BSR set to: 0
  2842  0011B4  8E4C               	bsf	(___fldiv@a+2)^0,7,c
  2843  0011B6                     
  2844                           ; BSR set to: 0
  2845  0011B6  0E00               	movlw	0
  2846  0011B8  6E4D               	movwf	(___fldiv@a+3)^0,c
  2847  0011BA  EFE8  F008         	goto	l5199
  2848  0011BE                     l5197:
  2849  0011BE  FFFF               	dw	65535	; assembler added errata NOP
  2850                           
  2851                           ; BSR set to: 0
  2852  0011C0  0E00               	movlw	0
  2853  0011C2  6E4A               	movwf	___fldiv@a^0,c
  2854  0011C4  0E00               	movlw	0
  2855  0011C6  6E4B               	movwf	(___fldiv@a+1)^0,c
  2856  0011C8  0E00               	movlw	0
  2857  0011CA  6E4C               	movwf	(___fldiv@a+2)^0,c
  2858  0011CC  0E00               	movlw	0
  2859  0011CE  6E4D               	movwf	(___fldiv@a+3)^0,c
  2860  0011D0                     l5199:
  2861  0011D0  FFFF               	dw	65535	; assembler added errata NOP
  2862                           
  2863                           ; BSR set to: 0
  2864  0011D2  504A               	movf	___fldiv@a^0,w,c
  2865  0011D4  104B               	iorwf	(___fldiv@a+1)^0,w,c
  2866  0011D6  104C               	iorwf	(___fldiv@a+2)^0,w,c
  2867  0011D8  104D               	iorwf	(___fldiv@a+3)^0,w,c
  2868  0011DA  A4D8               	btfss	status,2,c
  2869  0011DC  EFF2  F008         	goto	u5611
  2870  0011E0  EFF5  F008         	goto	u5610
  2871  0011E4                     u5611:
  2872  0011E4  FFFF               	dw	65535	; assembler added errata NOP
  2873  0011E6  EF0F  F009         	goto	l5211
  2874  0011EA                     u5610:
  2875  0011EA  FFFF               	dw	65535	; assembler added errata NOP
  2876  0011EC                     
  2877                           ; BSR set to: 0
  2878  0011EC  0E00               	movlw	0
  2879  0011EE  6E46               	movwf	___fldiv@b^0,c
  2880  0011F0  0E00               	movlw	0
  2881  0011F2  6E47               	movwf	(___fldiv@b+1)^0,c
  2882  0011F4  0E00               	movlw	0
  2883  0011F6  6E48               	movwf	(___fldiv@b+2)^0,c
  2884  0011F8  0E00               	movlw	0
  2885  0011FA  6E49               	movwf	(___fldiv@b+3)^0,c
  2886  0011FC                     
  2887                           ; BSR set to: 0
  2888  0011FC  0E80               	movlw	128
  2889  0011FE  1248               	iorwf	(___fldiv@b+2)^0,f,c
  2890  001200  0E7F               	movlw	127
  2891  001202  1249               	iorwf	(___fldiv@b+3)^0,f,c
  2892  001204                     l5205:
  2893  001204  FFFF               	dw	65535	; assembler added errata NOP
  2894                           
  2895                           ; BSR set to: 0
  2896  001206  5188               	movf	___fldiv@sign& (0+255),w,b
  2897  001208  1249               	iorwf	(___fldiv@b+3)^0,f,c
  2898  00120A                     
  2899                           ; BSR set to: 0
  2900  00120A  C046  F046         	movff	___fldiv@b,?___fldiv
  2901  00120E  C047  F047         	movff	___fldiv@b+1,?___fldiv+1
  2902  001212  C048  F048         	movff	___fldiv@b+2,?___fldiv+2
  2903  001216  C049  F049         	movff	___fldiv@b+3,?___fldiv+3
  2904  00121A  EF84  F00A         	goto	l1353
  2905  00121E                     l5211:
  2906  00121E  FFFF               	dw	65535	; assembler added errata NOP
  2907                           
  2908                           ; BSR set to: 0
  2909  001220  518F               	movf	___fldiv@bexp& (0+255),w,b
  2910  001222  A4D8               	btfss	status,2,c
  2911  001224  EF16  F009         	goto	u5621
  2912  001228  EF19  F009         	goto	u5620
  2913  00122C                     u5621:
  2914  00122C  FFFF               	dw	65535	; assembler added errata NOP
  2915  00122E  EF24  F009         	goto	l5219
  2916  001232                     u5620:
  2917  001232  FFFF               	dw	65535	; assembler added errata NOP
  2918  001234                     
  2919                           ; BSR set to: 0
  2920  001234  0E00               	movlw	0
  2921  001236  6E46               	movwf	?___fldiv^0,c
  2922  001238  0E00               	movlw	0
  2923  00123A  6E47               	movwf	(?___fldiv+1)^0,c
  2924  00123C  0E00               	movlw	0
  2925  00123E  6E48               	movwf	(?___fldiv+2)^0,c
  2926  001240  0E00               	movlw	0
  2927  001242  6E49               	movwf	(?___fldiv+3)^0,c
  2928  001244  EF84  F00A         	goto	l1353
  2929  001248                     l5219:
  2930  001248  FFFF               	dw	65535	; assembler added errata NOP
  2931                           
  2932                           ; BSR set to: 0
  2933  00124A  5190               	movf	___fldiv@aexp& (0+255),w,b
  2934  00124C  C08F  F080         	movff	___fldiv@bexp,??___fldiv
  2935  001250  6B81               	clrf	(??___fldiv+1)& (0+255),b
  2936  001252  5F80               	subwf	??___fldiv& (0+255),f,b
  2937  001254  0E00               	movlw	0
  2938  001256  5B81               	subwfb	(??___fldiv+1)& (0+255),f,b
  2939  001258  0E7F               	movlw	127
  2940  00125A  2580               	addwf	??___fldiv& (0+255),w,b
  2941  00125C  6F89               	movwf	___fldiv@new_exp& (0+255),b
  2942  00125E  0E00               	movlw	0
  2943  001260  2181               	addwfc	(??___fldiv+1)& (0+255),w,b
  2944  001262  6F8A               	movwf	(___fldiv@new_exp+1)& (0+255),b
  2945  001264                     
  2946                           ; BSR set to: 0
  2947  001264  C046  F084         	movff	___fldiv@b,___fldiv@rem
  2948  001268  C047  F085         	movff	___fldiv@b+1,___fldiv@rem+1
  2949  00126C  C048  F086         	movff	___fldiv@b+2,___fldiv@rem+2
  2950  001270  C049  F087         	movff	___fldiv@b+3,___fldiv@rem+3
  2951  001274                     
  2952                           ; BSR set to: 0
  2953  001274  0E00               	movlw	0
  2954  001276  6E46               	movwf	___fldiv@b^0,c
  2955  001278  0E00               	movlw	0
  2956  00127A  6E47               	movwf	(___fldiv@b+1)^0,c
  2957  00127C  0E00               	movlw	0
  2958  00127E  6E48               	movwf	(___fldiv@b+2)^0,c
  2959  001280  0E00               	movlw	0
  2960  001282  6E49               	movwf	(___fldiv@b+3)^0,c
  2961  001284                     
  2962                           ; BSR set to: 0
  2963  001284  0E00               	movlw	0
  2964  001286  6F8B               	movwf	___fldiv@grs& (0+255),b
  2965  001288  0E00               	movlw	0
  2966  00128A  6F8C               	movwf	(___fldiv@grs+1)& (0+255),b
  2967  00128C  0E00               	movlw	0
  2968  00128E  6F8D               	movwf	(___fldiv@grs+2)& (0+255),b
  2969  001290  0E00               	movlw	0
  2970  001292  6F8E               	movwf	(___fldiv@grs+3)& (0+255),b
  2971  001294                     
  2972                           ; BSR set to: 0
  2973  001294  0E00               	movlw	0
  2974  001296  6F90               	movwf	___fldiv@aexp& (0+255),b
  2975  001298  EF90  F009         	goto	l1355
  2976  00129C                     l5229:
  2977  00129C  FFFF               	dw	65535	; assembler added errata NOP
  2978                           
  2979                           ; BSR set to: 0
  2980  00129E  5190               	movf	___fldiv@aexp& (0+255),w,b
  2981  0012A0  B4D8               	btfsc	status,2,c
  2982  0012A2  EF55  F009         	goto	u5631
  2983  0012A6  EF58  F009         	goto	u5630
  2984  0012AA                     u5631:
  2985  0012AA  FFFF               	dw	65535	; assembler added errata NOP
  2986  0012AC  EF73  F009         	goto	l5237
  2987  0012B0                     u5630:
  2988  0012B0  FFFF               	dw	65535	; assembler added errata NOP
  2989  0012B2                     
  2990                           ; BSR set to: 0
  2991  0012B2  90D8               	bcf	status,0,c
  2992  0012B4  3784               	rlcf	___fldiv@rem& (0+255),f,b
  2993  0012B6  3785               	rlcf	(___fldiv@rem+1)& (0+255),f,b
  2994  0012B8  3786               	rlcf	(___fldiv@rem+2)& (0+255),f,b
  2995  0012BA  3787               	rlcf	(___fldiv@rem+3)& (0+255),f,b
  2996  0012BC  90D8               	bcf	status,0,c
  2997  0012BE  3646               	rlcf	___fldiv@b^0,f,c
  2998  0012C0  3647               	rlcf	(___fldiv@b+1)^0,f,c
  2999  0012C2  3648               	rlcf	(___fldiv@b+2)^0,f,c
  3000  0012C4  3649               	rlcf	(___fldiv@b+3)^0,f,c
  3001  0012C6                     
  3002                           ; BSR set to: 0
  3003  0012C6  AF8E               	btfss	(___fldiv@grs+3)& (0+255),7,b
  3004  0012C8  EF68  F009         	goto	u5641
  3005  0012CC  EF6B  F009         	goto	u5640
  3006  0012D0                     u5641:
  3007  0012D0  FFFF               	dw	65535	; assembler added errata NOP
  3008  0012D2  EF6D  F009         	goto	l1358
  3009  0012D6                     u5640:
  3010  0012D6  FFFF               	dw	65535	; assembler added errata NOP
  3011  0012D8                     
  3012                           ; BSR set to: 0
  3013  0012D8  8046               	bsf	___fldiv@b^0,0,c
  3014  0012DA                     l1358:
  3015  0012DA  FFFF               	dw	65535	; assembler added errata NOP
  3016                           
  3017                           ; BSR set to: 0
  3018  0012DC  90D8               	bcf	status,0,c
  3019  0012DE  378B               	rlcf	___fldiv@grs& (0+255),f,b
  3020  0012E0  378C               	rlcf	(___fldiv@grs+1)& (0+255),f,b
  3021  0012E2  378D               	rlcf	(___fldiv@grs+2)& (0+255),f,b
  3022  0012E4  378E               	rlcf	(___fldiv@grs+3)& (0+255),f,b
  3023  0012E6                     l5237:
  3024  0012E6  FFFF               	dw	65535	; assembler added errata NOP
  3025                           
  3026                           ; BSR set to: 0
  3027  0012E8  504A               	movf	___fldiv@a^0,w,c
  3028  0012EA  5D84               	subwf	___fldiv@rem& (0+255),w,b
  3029  0012EC  504B               	movf	(___fldiv@a+1)^0,w,c
  3030  0012EE  5985               	subwfb	(___fldiv@rem+1)& (0+255),w,b
  3031  0012F0  504C               	movf	(___fldiv@a+2)^0,w,c
  3032  0012F2  5986               	subwfb	(___fldiv@rem+2)& (0+255),w,b
  3033  0012F4  504D               	movf	(___fldiv@a+3)^0,w,c
  3034  0012F6  5987               	subwfb	(___fldiv@rem+3)& (0+255),w,b
  3035  0012F8  A0D8               	btfss	status,0,c
  3036  0012FA  EF81  F009         	goto	u5651
  3037  0012FE  EF84  F009         	goto	u5650
  3038  001302                     u5651:
  3039  001302  FFFF               	dw	65535	; assembler added errata NOP
  3040  001304  EF8E  F009         	goto	l5243
  3041  001308                     u5650:
  3042  001308  FFFF               	dw	65535	; assembler added errata NOP
  3043  00130A                     
  3044                           ; BSR set to: 0
  3045  00130A  8D8E               	bsf	(___fldiv@grs+3)& (0+255),6,b
  3046  00130C                     
  3047                           ; BSR set to: 0
  3048  00130C  504A               	movf	___fldiv@a^0,w,c
  3049  00130E  5F84               	subwf	___fldiv@rem& (0+255),f,b
  3050  001310  504B               	movf	(___fldiv@a+1)^0,w,c
  3051  001312  5B85               	subwfb	(___fldiv@rem+1)& (0+255),f,b
  3052  001314  504C               	movf	(___fldiv@a+2)^0,w,c
  3053  001316  5B86               	subwfb	(___fldiv@rem+2)& (0+255),f,b
  3054  001318  504D               	movf	(___fldiv@a+3)^0,w,c
  3055  00131A  5B87               	subwfb	(___fldiv@rem+3)& (0+255),f,b
  3056  00131C                     l5243:
  3057  00131C  FFFF               	dw	65535	; assembler added errata NOP
  3058                           
  3059                           ; BSR set to: 0
  3060  00131E  2B90               	incf	___fldiv@aexp& (0+255),f,b
  3061  001320                     l1355:
  3062  001320  FFFF               	dw	65535	; assembler added errata NOP
  3063                           
  3064                           ; BSR set to: 0
  3065  001322  0E19               	movlw	25
  3066  001324  6590               	cpfsgt	___fldiv@aexp& (0+255),b
  3067  001326  EF97  F009         	goto	u5661
  3068  00132A  EF9A  F009         	goto	u5660
  3069  00132E                     u5661:
  3070  00132E  FFFF               	dw	65535	; assembler added errata NOP
  3071  001330  EF4E  F009         	goto	l5229
  3072  001334                     u5660:
  3073  001334  FFFF               	dw	65535	; assembler added errata NOP
  3074  001336                     
  3075                           ; BSR set to: 0
  3076  001336  5184               	movf	___fldiv@rem& (0+255),w,b
  3077  001338  1185               	iorwf	(___fldiv@rem+1)& (0+255),w,b
  3078  00133A  1186               	iorwf	(___fldiv@rem+2)& (0+255),w,b
  3079  00133C  1187               	iorwf	(___fldiv@rem+3)& (0+255),w,b
  3080  00133E  B4D8               	btfsc	status,2,c
  3081  001340  EFA4  F009         	goto	u5671
  3082  001344  EFA7  F009         	goto	u5670
  3083  001348                     u5671:
  3084  001348  FFFF               	dw	65535	; assembler added errata NOP
  3085  00134A  EFC4  F009         	goto	l5255
  3086  00134E                     u5670:
  3087  00134E  FFFF               	dw	65535	; assembler added errata NOP
  3088  001350                     
  3089                           ; BSR set to: 0
  3090  001350  818B               	bsf	___fldiv@grs& (0+255),0,b
  3091  001352  EFC4  F009         	goto	l5255
  3092  001356                     l5249:
  3093  001356  FFFF               	dw	65535	; assembler added errata NOP
  3094                           
  3095                           ; BSR set to: 0
  3096  001358  90D8               	bcf	status,0,c
  3097  00135A  3646               	rlcf	___fldiv@b^0,f,c
  3098  00135C  3647               	rlcf	(___fldiv@b+1)^0,f,c
  3099  00135E  3648               	rlcf	(___fldiv@b+2)^0,f,c
  3100  001360  3649               	rlcf	(___fldiv@b+3)^0,f,c
  3101  001362                     
  3102                           ; BSR set to: 0
  3103  001362  AF8E               	btfss	(___fldiv@grs+3)& (0+255),7,b
  3104  001364  EFB6  F009         	goto	u5681
  3105  001368  EFB9  F009         	goto	u5680
  3106  00136C                     u5681:
  3107  00136C  FFFF               	dw	65535	; assembler added errata NOP
  3108  00136E  EFBB  F009         	goto	l1364
  3109  001372                     u5680:
  3110  001372  FFFF               	dw	65535	; assembler added errata NOP
  3111  001374                     
  3112                           ; BSR set to: 0
  3113  001374  8046               	bsf	___fldiv@b^0,0,c
  3114  001376                     l1364:
  3115  001376  FFFF               	dw	65535	; assembler added errata NOP
  3116                           
  3117                           ; BSR set to: 0
  3118  001378  90D8               	bcf	status,0,c
  3119  00137A  378B               	rlcf	___fldiv@grs& (0+255),f,b
  3120  00137C  378C               	rlcf	(___fldiv@grs+1)& (0+255),f,b
  3121  00137E  378D               	rlcf	(___fldiv@grs+2)& (0+255),f,b
  3122  001380  378E               	rlcf	(___fldiv@grs+3)& (0+255),f,b
  3123  001382  0789               	decf	___fldiv@new_exp& (0+255),f,b
  3124  001384  A0D8               	btfss	status,0,c
  3125  001386  078A               	decf	(___fldiv@new_exp+1)& (0+255),f,b
  3126  001388                     l5255:
  3127  001388  FFFF               	dw	65535	; assembler added errata NOP
  3128                           
  3129                           ; BSR set to: 0
  3130  00138A  AE48               	btfss	(___fldiv@b+2)^0,7,c
  3131  00138C  EFCA  F009         	goto	u5691
  3132  001390  EFCD  F009         	goto	u5690
  3133  001394                     u5691:
  3134  001394  FFFF               	dw	65535	; assembler added errata NOP
  3135  001396  EFAB  F009         	goto	l5249
  3136  00139A                     u5690:
  3137  00139A  FFFF               	dw	65535	; assembler added errata NOP
  3138  00139C                     
  3139                           ; BSR set to: 0
  3140  00139C  0E00               	movlw	0
  3141  00139E  6F90               	movwf	___fldiv@aexp& (0+255),b
  3142  0013A0                     
  3143                           ; BSR set to: 0
  3144  0013A0  AF8E               	btfss	(___fldiv@grs+3)& (0+255),7,b
  3145  0013A2  EFD5  F009         	goto	u5701
  3146  0013A6  EFD8  F009         	goto	u5700
  3147  0013AA                     u5701:
  3148  0013AA  FFFF               	dw	65535	; assembler added errata NOP
  3149  0013AC  EF03  F00A         	goto	l1366
  3150  0013B0                     u5700:
  3151  0013B0  FFFF               	dw	65535	; assembler added errata NOP
  3152  0013B2                     
  3153                           ; BSR set to: 0
  3154  0013B2  0EFF               	movlw	255
  3155  0013B4  158B               	andwf	___fldiv@grs& (0+255),w,b
  3156  0013B6  6F80               	movwf	??___fldiv& (0+255),b
  3157  0013B8  0EFF               	movlw	255
  3158  0013BA  158C               	andwf	(___fldiv@grs+1)& (0+255),w,b
  3159  0013BC  6F81               	movwf	(??___fldiv+1)& (0+255),b
  3160  0013BE  0EFF               	movlw	255
  3161  0013C0  158D               	andwf	(___fldiv@grs+2)& (0+255),w,b
  3162  0013C2  6F82               	movwf	(??___fldiv+2)& (0+255),b
  3163  0013C4  0E7F               	movlw	127
  3164  0013C6  158E               	andwf	(___fldiv@grs+3)& (0+255),w,b
  3165  0013C8  6F83               	movwf	(??___fldiv+3)& (0+255),b
  3166  0013CA  5180               	movf	??___fldiv& (0+255),w,b
  3167  0013CC  1181               	iorwf	(??___fldiv+1)& (0+255),w,b
  3168  0013CE  1182               	iorwf	(??___fldiv+2)& (0+255),w,b
  3169  0013D0  1183               	iorwf	(??___fldiv+3)& (0+255),w,b
  3170  0013D2  B4D8               	btfsc	status,2,c
  3171  0013D4  EFEE  F009         	goto	u5711
  3172  0013D8  EFF1  F009         	goto	u5710
  3173  0013DC                     u5711:
  3174  0013DC  FFFF               	dw	65535	; assembler added errata NOP
  3175  0013DE  EFF7  F009         	goto	l1367
  3176  0013E2                     u5710:
  3177  0013E2  FFFF               	dw	65535	; assembler added errata NOP
  3178  0013E4                     l5263:
  3179  0013E4  FFFF               	dw	65535	; assembler added errata NOP
  3180                           
  3181                           ; BSR set to: 0
  3182  0013E6  0E01               	movlw	1
  3183  0013E8  6F90               	movwf	___fldiv@aexp& (0+255),b
  3184  0013EA  EF03  F00A         	goto	l1366
  3185  0013EE                     l1367:
  3186  0013EE  FFFF               	dw	65535	; assembler added errata NOP
  3187                           
  3188                           ; BSR set to: 0
  3189  0013F0  A046               	btfss	___fldiv@b^0,0,c
  3190  0013F2  EFFD  F009         	goto	u5721
  3191  0013F6  EF00  F00A         	goto	u5720
  3192  0013FA                     u5721:
  3193  0013FA  FFFF               	dw	65535	; assembler added errata NOP
  3194  0013FC  EF03  F00A         	goto	l1366
  3195  001400                     u5720:
  3196  001400  FFFF               	dw	65535	; assembler added errata NOP
  3197  001402  EFF2  F009         	goto	l5263
  3198  001406                     l1366:
  3199  001406  FFFF               	dw	65535	; assembler added errata NOP
  3200                           
  3201                           ; BSR set to: 0
  3202  001408  5190               	movf	___fldiv@aexp& (0+255),w,b
  3203  00140A  B4D8               	btfsc	status,2,c
  3204  00140C  EF0A  F00A         	goto	u5731
  3205  001410  EF0D  F00A         	goto	u5730
  3206  001414                     u5731:
  3207  001414  FFFF               	dw	65535	; assembler added errata NOP
  3208  001416  EF34  F00A         	goto	l5275
  3209  00141A                     u5730:
  3210  00141A  FFFF               	dw	65535	; assembler added errata NOP
  3211  00141C                     
  3212                           ; BSR set to: 0
  3213  00141C  0E01               	movlw	1
  3214  00141E  2646               	addwf	___fldiv@b^0,f,c
  3215  001420  0E00               	movlw	0
  3216  001422  2247               	addwfc	(___fldiv@b+1)^0,f,c
  3217  001424  2248               	addwfc	(___fldiv@b+2)^0,f,c
  3218  001426  2249               	addwfc	(___fldiv@b+3)^0,f,c
  3219  001428                     
  3220                           ; BSR set to: 0
  3221  001428  A049               	btfss	(___fldiv@b+3)^0,0,c
  3222  00142A  EF19  F00A         	goto	u5741
  3223  00142E  EF1C  F00A         	goto	u5740
  3224  001432                     u5741:
  3225  001432  FFFF               	dw	65535	; assembler added errata NOP
  3226  001434  EF34  F00A         	goto	l5275
  3227  001438                     u5740:
  3228  001438  FFFF               	dw	65535	; assembler added errata NOP
  3229  00143A                     
  3230                           ; BSR set to: 0
  3231  00143A  C046  F080         	movff	___fldiv@b,??___fldiv
  3232  00143E  C047  F081         	movff	___fldiv@b+1,??___fldiv+1
  3233  001442  C048  F082         	movff	___fldiv@b+2,??___fldiv+2
  3234  001446  C049  F083         	movff	___fldiv@b+3,??___fldiv+3
  3235  00144A  3583               	rlcf	(??___fldiv+3)& (0+255),w,b
  3236  00144C  3383               	rrcf	(??___fldiv+3)& (0+255),f,b
  3237  00144E  3382               	rrcf	(??___fldiv+2)& (0+255),f,b
  3238  001450  3381               	rrcf	(??___fldiv+1)& (0+255),f,b
  3239  001452  3380               	rrcf	??___fldiv& (0+255),f,b
  3240  001454  C080  F046         	movff	??___fldiv,___fldiv@b
  3241  001458  C081  F047         	movff	??___fldiv+1,___fldiv@b+1
  3242  00145C  C082  F048         	movff	??___fldiv+2,___fldiv@b+2
  3243  001460  C083  F049         	movff	??___fldiv+3,___fldiv@b+3
  3244  001464                     
  3245                           ; BSR set to: 0
  3246  001464  4B89               	infsnz	___fldiv@new_exp& (0+255),f,b
  3247  001466  2B8A               	incf	(___fldiv@new_exp+1)& (0+255),f,b
  3248  001468                     l5275:
  3249  001468  FFFF               	dw	65535	; assembler added errata NOP
  3250                           
  3251                           ; BSR set to: 0
  3252  00146A  BF8A               	btfsc	(___fldiv@new_exp+1)& (0+255),7,b
  3253  00146C  EF40  F00A         	goto	u5751
  3254  001470  518A               	movf	(___fldiv@new_exp+1)& (0+255),w,b
  3255  001472  E109               	bnz	u5750
  3256  001474  2989               	incf	___fldiv@new_exp& (0+255),w,b
  3257  001476  A0D8               	btfss	status,0,c
  3258  001478  EF40  F00A         	goto	u5751
  3259  00147C  EF43  F00A         	goto	u5750
  3260  001480                     u5751:
  3261  001480  FFFF               	dw	65535	; assembler added errata NOP
  3262  001482  EF4F  F00A         	goto	l5279
  3263  001486                     u5750:
  3264  001486  FFFF               	dw	65535	; assembler added errata NOP
  3265  001488                     
  3266                           ; BSR set to: 0
  3267  001488  0E00               	movlw	0
  3268  00148A  6F8A               	movwf	(___fldiv@new_exp+1)& (0+255),b
  3269  00148C  6989               	setf	___fldiv@new_exp& (0+255),b
  3270  00148E  0E00               	movlw	0
  3271  001490  6E46               	movwf	___fldiv@b^0,c
  3272  001492  0E00               	movlw	0
  3273  001494  6E47               	movwf	(___fldiv@b+1)^0,c
  3274  001496  0E00               	movlw	0
  3275  001498  6E48               	movwf	(___fldiv@b+2)^0,c
  3276  00149A  0E00               	movlw	0
  3277  00149C  6E49               	movwf	(___fldiv@b+3)^0,c
  3278  00149E                     l5279:
  3279  00149E  FFFF               	dw	65535	; assembler added errata NOP
  3280                           
  3281                           ; BSR set to: 0
  3282  0014A0  BF8A               	btfsc	(___fldiv@new_exp+1)& (0+255),7,b
  3283  0014A2  EF5E  F00A         	goto	u5760
  3284  0014A6  518A               	movf	(___fldiv@new_exp+1)& (0+255),w,b
  3285  0014A8  E106               	bnz	u5761
  3286  0014AA  0589               	decf	___fldiv@new_exp& (0+255),w,b
  3287  0014AC  B0D8               	btfsc	status,0,c
  3288  0014AE  EF5B  F00A         	goto	u5761
  3289  0014B2  EF5E  F00A         	goto	u5760
  3290  0014B6                     u5761:
  3291  0014B6  FFFF               	dw	65535	; assembler added errata NOP
  3292  0014B8  EF6D  F00A         	goto	l5283
  3293  0014BC                     u5760:
  3294  0014BC  FFFF               	dw	65535	; assembler added errata NOP
  3295  0014BE                     
  3296                           ; BSR set to: 0
  3297  0014BE  0E00               	movlw	0
  3298  0014C0  6F8A               	movwf	(___fldiv@new_exp+1)& (0+255),b
  3299  0014C2  0E00               	movlw	0
  3300  0014C4  6F89               	movwf	___fldiv@new_exp& (0+255),b
  3301  0014C6  0E00               	movlw	0
  3302  0014C8  6E46               	movwf	___fldiv@b^0,c
  3303  0014CA  0E00               	movlw	0
  3304  0014CC  6E47               	movwf	(___fldiv@b+1)^0,c
  3305  0014CE  0E00               	movlw	0
  3306  0014D0  6E48               	movwf	(___fldiv@b+2)^0,c
  3307  0014D2  0E00               	movlw	0
  3308  0014D4  6E49               	movwf	(___fldiv@b+3)^0,c
  3309  0014D6  0E00               	movlw	0
  3310  0014D8  6F88               	movwf	___fldiv@sign& (0+255),b
  3311  0014DA                     l5283:
  3312  0014DA  FFFF               	dw	65535	; assembler added errata NOP
  3313                           
  3314                           ; BSR set to: 0
  3315  0014DC  C089  F08F         	movff	___fldiv@new_exp,___fldiv@bexp
  3316  0014E0                     
  3317                           ; BSR set to: 0
  3318  0014E0  A18F               	btfss	___fldiv@bexp& (0+255),0,b
  3319  0014E2  EF75  F00A         	goto	u5771
  3320  0014E6  EF78  F00A         	goto	u5770
  3321  0014EA                     u5771:
  3322  0014EA  FFFF               	dw	65535	; assembler added errata NOP
  3323  0014EC  EF7C  F00A         	goto	l5289
  3324  0014F0                     u5770:
  3325  0014F0  FFFF               	dw	65535	; assembler added errata NOP
  3326  0014F2                     
  3327                           ; BSR set to: 0
  3328  0014F2  8E48               	bsf	(___fldiv@b+2)^0,7,c
  3329  0014F4  EF7E  F00A         	goto	l5291
  3330  0014F8                     l5289:
  3331  0014F8  FFFF               	dw	65535	; assembler added errata NOP
  3332                           
  3333                           ; BSR set to: 0
  3334  0014FA  9E48               	bcf	(___fldiv@b+2)^0,7,c
  3335  0014FC                     l5291:
  3336  0014FC  FFFF               	dw	65535	; assembler added errata NOP
  3337                           
  3338                           ; BSR set to: 0
  3339  0014FE  90D8               	bcf	status,0,c
  3340  001500  318F               	rrcf	___fldiv@bexp& (0+255),w,b
  3341  001502  6E49               	movwf	(___fldiv@b+3)^0,c
  3342  001504  EF02  F009         	goto	l5205
  3343  001508                     l1353:
  3344  001508  FFFF               	dw	65535	; assembler added errata NOP
  3345                           
  3346                           ; BSR set to: 0
  3347  00150A  0012               	return		;funcret
  3348  00150C  FFFF               	dw	65535	; errata NOP
  3349  00150E                     __end_of___fldiv:
  3350                           	opt callstack 0
  3351                           
  3352 ;; *************** function ___fladd *****************
  3353 ;; Defined at:
  3354 ;;		line 10 in file "C:\Programs\Microchip\xc8\v2.10\pic\sources\c99\common\sprcadd.c"
  3355 ;; Parameters:    Size  Location     Type
  3356 ;;  b               4   17[BANK0 ] unsigned char 
  3357 ;;  a               4   21[BANK0 ] unsigned char 
  3358 ;; Auto vars:     Size  Location     Type
  3359 ;;  grs             1   32[BANK0 ] unsigned char 
  3360 ;;  bexp            1   31[BANK0 ] unsigned char 
  3361 ;;  aexp            1   30[BANK0 ] unsigned char 
  3362 ;;  signs           1   29[BANK0 ] unsigned char 
  3363 ;; Return value:  Size  Location     Type
  3364 ;;                  4   17[BANK0 ] unsigned char 
  3365 ;; Registers used:
  3366 ;;		wreg, status,2, status,0
  3367 ;; Tracked objects:
  3368 ;;		On entry : 0/0
  3369 ;;		On exit  : 0/0
  3370 ;;		Unchanged: 0/0
  3371 ;; Data sizes:     COMRAM   BANK0   BANK1   BANK2   BANK3   BANK4   BANK5
  3372 ;;      Params:         0       8       0       0       0       0       0
  3373 ;;      Locals:         0       4       0       0       0       0       0
  3374 ;;      Temps:          0       4       0       0       0       0       0
  3375 ;;      Totals:         0      16       0       0       0       0       0
  3376 ;;Total ram usage:       16 bytes
  3377 ;; Hardware stack levels used:    1
  3378 ;; Hardware stack levels required when called:    5
  3379 ;; This function calls:
  3380 ;;		Nothing
  3381 ;; This function is called by:
  3382 ;;		_uart_init
  3383 ;; This function uses a non-reentrant model
  3384 ;;
  3385                           
  3386                           	psect	text9
  3387  00068C                     __ptext9:
  3388                           	opt callstack 0
  3389  00068C                     ___fladd:
  3390                           	opt callstack 0
  3391  00068C  FFFF               	dw	65535	; assembler added errata NOP
  3392  00068E  0100               	movlb	0	; () banked
  3393  000690  5194               	movf	(___fladd@b+3)& (0+255),w,b
  3394  000692  0B80               	andlw	128
  3395  000694  6F9D               	movwf	___fladd@signs& (0+255),b
  3396  000696  5194               	movf	(___fladd@b+3)& (0+255),w,b
  3397  000698  2594               	addwf	(___fladd@b+3)& (0+255),w,b
  3398  00069A  6F9F               	movwf	___fladd@bexp& (0+255),b
  3399  00069C                     
  3400                           ; BSR set to: 0
  3401  00069C  AF93               	btfss	(___fladd@b+2)& (0+255),7,b
  3402  00069E  EF53  F003         	goto	u3471
  3403  0006A2  EF56  F003         	goto	u3470
  3404  0006A6                     u3471:
  3405  0006A6  FFFF               	dw	65535	; assembler added errata NOP
  3406  0006A8  EF58  F003         	goto	l3745
  3407  0006AC                     u3470:
  3408  0006AC  FFFF               	dw	65535	; assembler added errata NOP
  3409  0006AE                     
  3410                           ; BSR set to: 0
  3411  0006AE  819F               	bsf	___fladd@bexp& (0+255),0,b
  3412  0006B0                     l3745:
  3413  0006B0  FFFF               	dw	65535	; assembler added errata NOP
  3414                           
  3415                           ; BSR set to: 0
  3416  0006B2  519F               	movf	___fladd@bexp& (0+255),w,b
  3417  0006B4  B4D8               	btfsc	status,2,c
  3418  0006B6  EF5F  F003         	goto	u3481
  3419  0006BA  EF62  F003         	goto	u3480
  3420  0006BE                     u3481:
  3421  0006BE  FFFF               	dw	65535	; assembler added errata NOP
  3422  0006C0  EF7B  F003         	goto	l3755
  3423  0006C4                     u3480:
  3424  0006C4  FFFF               	dw	65535	; assembler added errata NOP
  3425  0006C6                     
  3426                           ; BSR set to: 0
  3427  0006C6  299F               	incf	___fladd@bexp& (0+255),w,b
  3428  0006C8  A4D8               	btfss	status,2,c
  3429  0006CA  EF69  F003         	goto	u3491
  3430  0006CE  EF6C  F003         	goto	u3490
  3431  0006D2                     u3491:
  3432  0006D2  FFFF               	dw	65535	; assembler added errata NOP
  3433  0006D4  EF75  F003         	goto	l3751
  3434  0006D8                     u3490:
  3435  0006D8  FFFF               	dw	65535	; assembler added errata NOP
  3436  0006DA                     
  3437                           ; BSR set to: 0
  3438  0006DA  0E00               	movlw	0
  3439  0006DC  6F91               	movwf	___fladd@b& (0+255),b
  3440  0006DE  0E00               	movlw	0
  3441  0006E0  6F92               	movwf	(___fladd@b+1)& (0+255),b
  3442  0006E2  0E00               	movlw	0
  3443  0006E4  6F93               	movwf	(___fladd@b+2)& (0+255),b
  3444  0006E6  0E00               	movlw	0
  3445  0006E8  6F94               	movwf	(___fladd@b+3)& (0+255),b
  3446  0006EA                     l3751:
  3447  0006EA  FFFF               	dw	65535	; assembler added errata NOP
  3448                           
  3449                           ; BSR set to: 0
  3450  0006EC  8F93               	bsf	(___fladd@b+2)& (0+255),7,b
  3451  0006EE                     
  3452                           ; BSR set to: 0
  3453  0006EE  0E00               	movlw	0
  3454  0006F0  6F94               	movwf	(___fladd@b+3)& (0+255),b
  3455  0006F2  EF84  F003         	goto	l3757
  3456  0006F6                     l3755:
  3457  0006F6  FFFF               	dw	65535	; assembler added errata NOP
  3458                           
  3459                           ; BSR set to: 0
  3460  0006F8  0E00               	movlw	0
  3461  0006FA  6F91               	movwf	___fladd@b& (0+255),b
  3462  0006FC  0E00               	movlw	0
  3463  0006FE  6F92               	movwf	(___fladd@b+1)& (0+255),b
  3464  000700  0E00               	movlw	0
  3465  000702  6F93               	movwf	(___fladd@b+2)& (0+255),b
  3466  000704  0E00               	movlw	0
  3467  000706  6F94               	movwf	(___fladd@b+3)& (0+255),b
  3468  000708                     l3757:
  3469  000708  FFFF               	dw	65535	; assembler added errata NOP
  3470                           
  3471                           ; BSR set to: 0
  3472  00070A  5198               	movf	(___fladd@a+3)& (0+255),w,b
  3473  00070C  0B80               	andlw	128
  3474  00070E  6F9E               	movwf	___fladd@aexp& (0+255),b
  3475  000710                     
  3476                           ; BSR set to: 0
  3477  000710  519D               	movf	___fladd@signs& (0+255),w,b
  3478  000712  199E               	xorwf	___fladd@aexp& (0+255),w,b
  3479  000714  B4D8               	btfsc	status,2,c
  3480  000716  EF8F  F003         	goto	u3501
  3481  00071A  EF92  F003         	goto	u3500
  3482  00071E                     u3501:
  3483  00071E  FFFF               	dw	65535	; assembler added errata NOP
  3484  000720  EF94  F003         	goto	l3763
  3485  000724                     u3500:
  3486  000724  FFFF               	dw	65535	; assembler added errata NOP
  3487  000726                     
  3488                           ; BSR set to: 0
  3489  000726  8D9D               	bsf	___fladd@signs& (0+255),6,b
  3490  000728                     l3763:
  3491  000728  FFFF               	dw	65535	; assembler added errata NOP
  3492                           
  3493                           ; BSR set to: 0
  3494  00072A  5198               	movf	(___fladd@a+3)& (0+255),w,b
  3495  00072C  2598               	addwf	(___fladd@a+3)& (0+255),w,b
  3496  00072E  6F9E               	movwf	___fladd@aexp& (0+255),b
  3497  000730                     
  3498                           ; BSR set to: 0
  3499  000730  AF97               	btfss	(___fladd@a+2)& (0+255),7,b
  3500  000732  EF9D  F003         	goto	u3511
  3501  000736  EFA0  F003         	goto	u3510
  3502  00073A                     u3511:
  3503  00073A  FFFF               	dw	65535	; assembler added errata NOP
  3504  00073C  EFA2  F003         	goto	l3769
  3505  000740                     u3510:
  3506  000740  FFFF               	dw	65535	; assembler added errata NOP
  3507  000742                     
  3508                           ; BSR set to: 0
  3509  000742  819E               	bsf	___fladd@aexp& (0+255),0,b
  3510  000744                     l3769:
  3511  000744  FFFF               	dw	65535	; assembler added errata NOP
  3512                           
  3513                           ; BSR set to: 0
  3514  000746  519E               	movf	___fladd@aexp& (0+255),w,b
  3515  000748  B4D8               	btfsc	status,2,c
  3516  00074A  EFA9  F003         	goto	u3521
  3517  00074E  EFAC  F003         	goto	u3520
  3518  000752                     u3521:
  3519  000752  FFFF               	dw	65535	; assembler added errata NOP
  3520  000754  EFC5  F003         	goto	l3779
  3521  000758                     u3520:
  3522  000758  FFFF               	dw	65535	; assembler added errata NOP
  3523  00075A                     
  3524                           ; BSR set to: 0
  3525  00075A  299E               	incf	___fladd@aexp& (0+255),w,b
  3526  00075C  A4D8               	btfss	status,2,c
  3527  00075E  EFB3  F003         	goto	u3531
  3528  000762  EFB6  F003         	goto	u3530
  3529  000766                     u3531:
  3530  000766  FFFF               	dw	65535	; assembler added errata NOP
  3531  000768  EFBF  F003         	goto	l3775
  3532  00076C                     u3530:
  3533  00076C  FFFF               	dw	65535	; assembler added errata NOP
  3534  00076E                     
  3535                           ; BSR set to: 0
  3536  00076E  0E00               	movlw	0
  3537  000770  6F95               	movwf	___fladd@a& (0+255),b
  3538  000772  0E00               	movlw	0
  3539  000774  6F96               	movwf	(___fladd@a+1)& (0+255),b
  3540  000776  0E00               	movlw	0
  3541  000778  6F97               	movwf	(___fladd@a+2)& (0+255),b
  3542  00077A  0E00               	movlw	0
  3543  00077C  6F98               	movwf	(___fladd@a+3)& (0+255),b
  3544  00077E                     l3775:
  3545  00077E  FFFF               	dw	65535	; assembler added errata NOP
  3546                           
  3547                           ; BSR set to: 0
  3548  000780  8F97               	bsf	(___fladd@a+2)& (0+255),7,b
  3549  000782                     
  3550                           ; BSR set to: 0
  3551  000782  0E00               	movlw	0
  3552  000784  6F98               	movwf	(___fladd@a+3)& (0+255),b
  3553  000786  EFCE  F003         	goto	l3781
  3554  00078A                     l3779:
  3555  00078A  FFFF               	dw	65535	; assembler added errata NOP
  3556                           
  3557                           ; BSR set to: 0
  3558  00078C  0E00               	movlw	0
  3559  00078E  6F95               	movwf	___fladd@a& (0+255),b
  3560  000790  0E00               	movlw	0
  3561  000792  6F96               	movwf	(___fladd@a+1)& (0+255),b
  3562  000794  0E00               	movlw	0
  3563  000796  6F97               	movwf	(___fladd@a+2)& (0+255),b
  3564  000798  0E00               	movlw	0
  3565  00079A  6F98               	movwf	(___fladd@a+3)& (0+255),b
  3566  00079C                     l3781:
  3567  00079C  FFFF               	dw	65535	; assembler added errata NOP
  3568                           
  3569                           ; BSR set to: 0
  3570  00079E  519F               	movf	___fladd@bexp& (0+255),w,b
  3571  0007A0  5D9E               	subwf	___fladd@aexp& (0+255),w,b
  3572  0007A2  B0D8               	btfsc	status,0,c
  3573  0007A4  EFD6  F003         	goto	u3541
  3574  0007A8  EFD9  F003         	goto	u3540
  3575  0007AC                     u3541:
  3576  0007AC  FFFF               	dw	65535	; assembler added errata NOP
  3577  0007AE  EF04  F004         	goto	l3817
  3578  0007B2                     u3540:
  3579  0007B2  FFFF               	dw	65535	; assembler added errata NOP
  3580  0007B4                     
  3581                           ; BSR set to: 0
  3582  0007B4  AD9D               	btfss	___fladd@signs& (0+255),6,b
  3583  0007B6  EFDF  F003         	goto	u3551
  3584  0007BA  EFE2  F003         	goto	u3550
  3585  0007BE                     u3551:
  3586  0007BE  FFFF               	dw	65535	; assembler added errata NOP
  3587  0007C0  EFE5  F003         	goto	l3787
  3588  0007C4                     u3550:
  3589  0007C4  FFFF               	dw	65535	; assembler added errata NOP
  3590  0007C6                     
  3591                           ; BSR set to: 0
  3592  0007C6  0E80               	movlw	128
  3593  0007C8  1B9D               	xorwf	___fladd@signs& (0+255),f,b
  3594  0007CA                     l3787:
  3595  0007CA  FFFF               	dw	65535	; assembler added errata NOP
  3596                           
  3597                           ; BSR set to: 0
  3598  0007CC  C09F  F0A0         	movff	___fladd@bexp,___fladd@grs
  3599  0007D0                     
  3600                           ; BSR set to: 0
  3601  0007D0  C09E  F09F         	movff	___fladd@aexp,___fladd@bexp
  3602  0007D4                     
  3603                           ; BSR set to: 0
  3604  0007D4  C0A0  F09E         	movff	___fladd@grs,___fladd@aexp
  3605  0007D8                     
  3606                           ; BSR set to: 0
  3607  0007D8  C091  F0A0         	movff	___fladd@b,___fladd@grs
  3608  0007DC                     
  3609                           ; BSR set to: 0
  3610  0007DC  C095  F091         	movff	___fladd@a,___fladd@b
  3611  0007E0                     
  3612                           ; BSR set to: 0
  3613  0007E0  C0A0  F095         	movff	___fladd@grs,___fladd@a
  3614  0007E4                     
  3615                           ; BSR set to: 0
  3616  0007E4  C092  F0A0         	movff	___fladd@b+1,___fladd@grs
  3617  0007E8                     
  3618                           ; BSR set to: 0
  3619  0007E8  C096  F092         	movff	___fladd@a+1,___fladd@b+1
  3620  0007EC                     
  3621                           ; BSR set to: 0
  3622  0007EC  C0A0  F096         	movff	___fladd@grs,___fladd@a+1
  3623  0007F0                     
  3624                           ; BSR set to: 0
  3625  0007F0  C093  F0A0         	movff	___fladd@b+2,___fladd@grs
  3626  0007F4                     
  3627                           ; BSR set to: 0
  3628  0007F4  C097  F093         	movff	___fladd@a+2,___fladd@b+2
  3629  0007F8                     
  3630                           ; BSR set to: 0
  3631  0007F8  C0A0  F097         	movff	___fladd@grs,___fladd@a+2
  3632  0007FC                     
  3633                           ; BSR set to: 0
  3634  0007FC  C094  F0A0         	movff	___fladd@b+3,___fladd@grs
  3635  000800                     
  3636                           ; BSR set to: 0
  3637  000800  C098  F094         	movff	___fladd@a+3,___fladd@b+3
  3638  000804                     
  3639                           ; BSR set to: 0
  3640  000804  C0A0  F098         	movff	___fladd@grs,___fladd@a+3
  3641  000808                     l3817:
  3642  000808  FFFF               	dw	65535	; assembler added errata NOP
  3643                           
  3644                           ; BSR set to: 0
  3645  00080A  0E00               	movlw	0
  3646  00080C  6FA0               	movwf	___fladd@grs& (0+255),b
  3647  00080E                     
  3648                           ; BSR set to: 0
  3649  00080E  519F               	movf	___fladd@bexp& (0+255),w,b
  3650  000810  C09E  F099         	movff	___fladd@aexp,??___fladd
  3651  000814  6B9A               	clrf	(??___fladd+1)& (0+255),b
  3652  000816  5F99               	subwf	??___fladd& (0+255),f,b
  3653  000818  0E00               	movlw	0
  3654  00081A  5B9A               	subwfb	(??___fladd+1)& (0+255),f,b
  3655  00081C  BF9A               	btfsc	(??___fladd+1)& (0+255),7,b
  3656  00081E  EF1A  F004         	goto	u3561
  3657  000822  519A               	movf	(??___fladd+1)& (0+255),w,b
  3658  000824  E10A               	bnz	u3560
  3659  000826  0E1A               	movlw	26
  3660  000828  5D99               	subwf	??___fladd& (0+255),w,b
  3661  00082A  A0D8               	btfss	status,0,c
  3662  00082C  EF1A  F004         	goto	u3561
  3663  000830  EF1D  F004         	goto	u3560
  3664  000834                     u3561:
  3665  000834  FFFF               	dw	65535	; assembler added errata NOP
  3666  000836  EF60  F004         	goto	l1300
  3667  00083A                     u3560:
  3668  00083A  FFFF               	dw	65535	; assembler added errata NOP
  3669  00083C                     
  3670                           ; BSR set to: 0
  3671  00083C  5191               	movf	___fladd@b& (0+255),w,b
  3672  00083E  1192               	iorwf	(___fladd@b+1)& (0+255),w,b
  3673  000840  1193               	iorwf	(___fladd@b+2)& (0+255),w,b
  3674  000842  1194               	iorwf	(___fladd@b+3)& (0+255),w,b
  3675  000844  A4D8               	btfss	status,2,c
  3676  000846  EF27  F004         	goto	u3571
  3677  00084A  EF2B  F004         	goto	u3570
  3678  00084E                     u3571:
  3679  00084E  FFFF               	dw	65535	; assembler added errata NOP
  3680  000850  0E01               	movlw	1
  3681  000852  EF2D  F004         	goto	u3580
  3682  000856                     u3570:
  3683  000856  FFFF               	dw	65535	; assembler added errata NOP
  3684  000858  0E00               	movlw	0
  3685  00085A                     u3580:
  3686  00085A  FFFF               	dw	65535	; assembler added errata NOP
  3687  00085C  6FA0               	movwf	___fladd@grs& (0+255),b
  3688  00085E                     
  3689                           ; BSR set to: 0
  3690  00085E  0E00               	movlw	0
  3691  000860  6F91               	movwf	___fladd@b& (0+255),b
  3692  000862  0E00               	movlw	0
  3693  000864  6F92               	movwf	(___fladd@b+1)& (0+255),b
  3694  000866  0E00               	movlw	0
  3695  000868  6F93               	movwf	(___fladd@b+2)& (0+255),b
  3696  00086A  0E00               	movlw	0
  3697  00086C  6F94               	movwf	(___fladd@b+3)& (0+255),b
  3698  00086E                     
  3699                           ; BSR set to: 0
  3700  00086E  C09E  F09F         	movff	___fladd@aexp,___fladd@bexp
  3701  000872  EF6B  F004         	goto	l1299
  3702  000876                     l1301:
  3703  000876  FFFF               	dw	65535	; assembler added errata NOP
  3704                           
  3705                           ; BSR set to: 0
  3706  000878  A1A0               	btfss	___fladd@grs& (0+255),0,b
  3707  00087A  EF41  F004         	goto	u3591
  3708  00087E  EF44  F004         	goto	u3590
  3709  000882                     u3591:
  3710  000882  FFFF               	dw	65535	; assembler added errata NOP
  3711  000884  EF4B  F004         	goto	l3829
  3712  000888                     u3590:
  3713  000888  FFFF               	dw	65535	; assembler added errata NOP
  3714  00088A                     
  3715                           ; BSR set to: 0
  3716  00088A  90D8               	bcf	status,0,c
  3717  00088C  31A0               	rrcf	___fladd@grs& (0+255),w,b
  3718  00088E  0901               	iorlw	1
  3719  000890  6FA0               	movwf	___fladd@grs& (0+255),b
  3720  000892  EF4E  F004         	goto	l3831
  3721  000896                     l3829:
  3722  000896  FFFF               	dw	65535	; assembler added errata NOP
  3723                           
  3724                           ; BSR set to: 0
  3725  000898  90D8               	bcf	status,0,c
  3726  00089A  33A0               	rrcf	___fladd@grs& (0+255),f,b
  3727  00089C                     l3831:
  3728  00089C  FFFF               	dw	65535	; assembler added errata NOP
  3729                           
  3730                           ; BSR set to: 0
  3731  00089E  A191               	btfss	___fladd@b& (0+255),0,b
  3732  0008A0  EF54  F004         	goto	u3601
  3733  0008A4  EF57  F004         	goto	u3600
  3734  0008A8                     u3601:
  3735  0008A8  FFFF               	dw	65535	; assembler added errata NOP
  3736  0008AA  EF59  F004         	goto	l3835
  3737  0008AE                     u3600:
  3738  0008AE  FFFF               	dw	65535	; assembler added errata NOP
  3739  0008B0                     
  3740                           ; BSR set to: 0
  3741  0008B0  8FA0               	bsf	___fladd@grs& (0+255),7,b
  3742  0008B2                     l3835:
  3743  0008B2  FFFF               	dw	65535	; assembler added errata NOP
  3744                           
  3745                           ; BSR set to: 0
  3746  0008B4  3594               	rlcf	(___fladd@b+3)& (0+255),w,b
  3747  0008B6  3394               	rrcf	(___fladd@b+3)& (0+255),f,b
  3748  0008B8  3393               	rrcf	(___fladd@b+2)& (0+255),f,b
  3749  0008BA  3392               	rrcf	(___fladd@b+1)& (0+255),f,b
  3750  0008BC  3391               	rrcf	___fladd@b& (0+255),f,b
  3751  0008BE                     
  3752                           ; BSR set to: 0
  3753  0008BE  2B9F               	incf	___fladd@bexp& (0+255),f,b
  3754  0008C0                     l1300:
  3755  0008C0  FFFF               	dw	65535	; assembler added errata NOP
  3756                           
  3757                           ; BSR set to: 0
  3758  0008C2  519E               	movf	___fladd@aexp& (0+255),w,b
  3759  0008C4  5D9F               	subwf	___fladd@bexp& (0+255),w,b
  3760  0008C6  A0D8               	btfss	status,0,c
  3761  0008C8  EF68  F004         	goto	u3611
  3762  0008CC  EF6B  F004         	goto	u3610
  3763  0008D0                     u3611:
  3764  0008D0  FFFF               	dw	65535	; assembler added errata NOP
  3765  0008D2  EF3B  F004         	goto	l1301
  3766  0008D6                     u3610:
  3767  0008D6                     l1299:
  3768  0008D6  FFFF               	dw	65535	; assembler added errata NOP
  3769                           
  3770                           ; BSR set to: 0
  3771  0008D8  BD9D               	btfsc	___fladd@signs& (0+255),6,b
  3772  0008DA  EF71  F004         	goto	u3621
  3773  0008DE  EF74  F004         	goto	u3620
  3774  0008E2                     u3621:
  3775  0008E2  FFFF               	dw	65535	; assembler added errata NOP
  3776  0008E4  EFC1  F004         	goto	l3863
  3777  0008E8                     u3620:
  3778  0008E8  FFFF               	dw	65535	; assembler added errata NOP
  3779  0008EA                     
  3780                           ; BSR set to: 0
  3781  0008EA  519F               	movf	___fladd@bexp& (0+255),w,b
  3782  0008EC  A4D8               	btfss	status,2,c
  3783  0008EE  EF7B  F004         	goto	u3631
  3784  0008F2  EF7E  F004         	goto	u3630
  3785  0008F6                     u3631:
  3786  0008F6  FFFF               	dw	65535	; assembler added errata NOP
  3787  0008F8  EF89  F004         	goto	l3845
  3788  0008FC                     u3630:
  3789  0008FC  FFFF               	dw	65535	; assembler added errata NOP
  3790  0008FE                     
  3791                           ; BSR set to: 0
  3792  0008FE  0E00               	movlw	0
  3793  000900  6F91               	movwf	?___fladd& (0+255),b
  3794  000902  0E00               	movlw	0
  3795  000904  6F92               	movwf	(?___fladd+1)& (0+255),b
  3796  000906  0E00               	movlw	0
  3797  000908  6F93               	movwf	(?___fladd+2)& (0+255),b
  3798  00090A  0E00               	movlw	0
  3799  00090C  6F94               	movwf	(?___fladd+3)& (0+255),b
  3800  00090E  EF18  F006         	goto	l1308
  3801  000912                     l3845:
  3802  000912  FFFF               	dw	65535	; assembler added errata NOP
  3803                           
  3804                           ; BSR set to: 0
  3805  000914  5195               	movf	___fladd@a& (0+255),w,b
  3806  000916  2791               	addwf	___fladd@b& (0+255),f,b
  3807  000918  5196               	movf	(___fladd@a+1)& (0+255),w,b
  3808  00091A  2392               	addwfc	(___fladd@b+1)& (0+255),f,b
  3809  00091C  5197               	movf	(___fladd@a+2)& (0+255),w,b
  3810  00091E  2393               	addwfc	(___fladd@b+2)& (0+255),f,b
  3811  000920  5198               	movf	(___fladd@a+3)& (0+255),w,b
  3812  000922  2394               	addwfc	(___fladd@b+3)& (0+255),f,b
  3813  000924                     
  3814                           ; BSR set to: 0
  3815  000924  A194               	btfss	(___fladd@b+3)& (0+255),0,b
  3816  000926  EF97  F004         	goto	u3641
  3817  00092A  EF9A  F004         	goto	u3640
  3818  00092E                     u3641:
  3819  00092E  FFFF               	dw	65535	; assembler added errata NOP
  3820  000930  EF65  F005         	goto	l3899
  3821  000934                     u3640:
  3822  000934  FFFF               	dw	65535	; assembler added errata NOP
  3823  000936                     
  3824                           ; BSR set to: 0
  3825  000936  A1A0               	btfss	___fladd@grs& (0+255),0,b
  3826  000938  EFA0  F004         	goto	u3651
  3827  00093C  EFA3  F004         	goto	u3650
  3828  000940                     u3651:
  3829  000940  FFFF               	dw	65535	; assembler added errata NOP
  3830  000942  EFAA  F004         	goto	l3853
  3831  000946                     u3650:
  3832  000946  FFFF               	dw	65535	; assembler added errata NOP
  3833  000948                     
  3834                           ; BSR set to: 0
  3835  000948  90D8               	bcf	status,0,c
  3836  00094A  31A0               	rrcf	___fladd@grs& (0+255),w,b
  3837  00094C  0901               	iorlw	1
  3838  00094E  6FA0               	movwf	___fladd@grs& (0+255),b
  3839  000950  EFAD  F004         	goto	l3855
  3840  000954                     l3853:
  3841  000954  FFFF               	dw	65535	; assembler added errata NOP
  3842                           
  3843                           ; BSR set to: 0
  3844  000956  90D8               	bcf	status,0,c
  3845  000958  33A0               	rrcf	___fladd@grs& (0+255),f,b
  3846  00095A                     l3855:
  3847  00095A  FFFF               	dw	65535	; assembler added errata NOP
  3848                           
  3849                           ; BSR set to: 0
  3850  00095C  A191               	btfss	___fladd@b& (0+255),0,b
  3851  00095E  EFB3  F004         	goto	u3661
  3852  000962  EFB6  F004         	goto	u3660
  3853  000966                     u3661:
  3854  000966  FFFF               	dw	65535	; assembler added errata NOP
  3855  000968  EFB8  F004         	goto	l3859
  3856  00096C                     u3660:
  3857  00096C  FFFF               	dw	65535	; assembler added errata NOP
  3858  00096E                     
  3859                           ; BSR set to: 0
  3860  00096E  8FA0               	bsf	___fladd@grs& (0+255),7,b
  3861  000970                     l3859:
  3862  000970  FFFF               	dw	65535	; assembler added errata NOP
  3863                           
  3864                           ; BSR set to: 0
  3865  000972  3594               	rlcf	(___fladd@b+3)& (0+255),w,b
  3866  000974  3394               	rrcf	(___fladd@b+3)& (0+255),f,b
  3867  000976  3393               	rrcf	(___fladd@b+2)& (0+255),f,b
  3868  000978  3392               	rrcf	(___fladd@b+1)& (0+255),f,b
  3869  00097A  3391               	rrcf	___fladd@b& (0+255),f,b
  3870  00097C                     
  3871                           ; BSR set to: 0
  3872  00097C  2B9F               	incf	___fladd@bexp& (0+255),f,b
  3873  00097E  EF65  F005         	goto	l3899
  3874  000982                     l3863:
  3875  000982  FFFF               	dw	65535	; assembler added errata NOP
  3876                           
  3877                           ; BSR set to: 0
  3878  000984  5195               	movf	___fladd@a& (0+255),w,b
  3879  000986  5D91               	subwf	___fladd@b& (0+255),w,b
  3880  000988  5196               	movf	(___fladd@a+1)& (0+255),w,b
  3881  00098A  5992               	subwfb	(___fladd@b+1)& (0+255),w,b
  3882  00098C  5197               	movf	(___fladd@a+2)& (0+255),w,b
  3883  00098E  5993               	subwfb	(___fladd@b+2)& (0+255),w,b
  3884  000990  5194               	movf	(___fladd@b+3)& (0+255),w,b
  3885  000992  0A80               	xorlw	128
  3886  000994  6F99               	movwf	??___fladd& (0+255),b
  3887  000996  5198               	movf	(___fladd@a+3)& (0+255),w,b
  3888  000998  0A80               	xorlw	128
  3889  00099A  5999               	subwfb	??___fladd& (0+255),w,b
  3890  00099C  B0D8               	btfsc	status,0,c
  3891  00099E  EFD3  F004         	goto	u3671
  3892  0009A2  EFD6  F004         	goto	u3670
  3893  0009A6                     u3671:
  3894  0009A6  FFFF               	dw	65535	; assembler added errata NOP
  3895  0009A8  EF04  F005         	goto	l3873
  3896  0009AC                     u3670:
  3897  0009AC  FFFF               	dw	65535	; assembler added errata NOP
  3898  0009AE                     
  3899                           ; BSR set to: 0
  3900  0009AE  5191               	movf	___fladd@b& (0+255),w,b
  3901  0009B0  5D95               	subwf	___fladd@a& (0+255),w,b
  3902  0009B2  6F99               	movwf	??___fladd& (0+255),b
  3903  0009B4  5192               	movf	(___fladd@b+1)& (0+255),w,b
  3904  0009B6  5996               	subwfb	(___fladd@a+1)& (0+255),w,b
  3905  0009B8  6F9A               	movwf	(??___fladd+1)& (0+255),b
  3906  0009BA  5193               	movf	(___fladd@b+2)& (0+255),w,b
  3907  0009BC  5997               	subwfb	(___fladd@a+2)& (0+255),w,b
  3908  0009BE  6F9B               	movwf	(??___fladd+2)& (0+255),b
  3909  0009C0  5194               	movf	(___fladd@b+3)& (0+255),w,b
  3910  0009C2  5998               	subwfb	(___fladd@a+3)& (0+255),w,b
  3911  0009C4  6F9C               	movwf	(??___fladd+3)& (0+255),b
  3912  0009C6  0EFF               	movlw	255
  3913  0009C8  2599               	addwf	??___fladd& (0+255),w,b
  3914  0009CA  6F91               	movwf	___fladd@b& (0+255),b
  3915  0009CC  0EFF               	movlw	255
  3916  0009CE  219A               	addwfc	(??___fladd+1)& (0+255),w,b
  3917  0009D0  6F92               	movwf	(___fladd@b+1)& (0+255),b
  3918  0009D2  0EFF               	movlw	255
  3919  0009D4  219B               	addwfc	(??___fladd+2)& (0+255),w,b
  3920  0009D6  6F93               	movwf	(___fladd@b+2)& (0+255),b
  3921  0009D8  0EFF               	movlw	255
  3922  0009DA  219C               	addwfc	(??___fladd+3)& (0+255),w,b
  3923  0009DC  6F94               	movwf	(___fladd@b+3)& (0+255),b
  3924  0009DE  0E80               	movlw	128
  3925  0009E0  1B9D               	xorwf	___fladd@signs& (0+255),f,b
  3926  0009E2                     
  3927                           ; BSR set to: 0
  3928  0009E2  6DA0               	negf	___fladd@grs& (0+255),b
  3929  0009E4                     
  3930                           ; BSR set to: 0
  3931  0009E4  51A0               	movf	___fladd@grs& (0+255),w,b
  3932  0009E6  A4D8               	btfss	status,2,c
  3933  0009E8  EFF8  F004         	goto	u3681
  3934  0009EC  EFFB  F004         	goto	u3680
  3935  0009F0                     u3681:
  3936  0009F0  FFFF               	dw	65535	; assembler added errata NOP
  3937  0009F2  EF0D  F005         	goto	l1316
  3938  0009F6                     u3680:
  3939  0009F6  FFFF               	dw	65535	; assembler added errata NOP
  3940  0009F8                     
  3941                           ; BSR set to: 0
  3942  0009F8  0E01               	movlw	1
  3943  0009FA  2791               	addwf	___fladd@b& (0+255),f,b
  3944  0009FC  0E00               	movlw	0
  3945  0009FE  2392               	addwfc	(___fladd@b+1)& (0+255),f,b
  3946  000A00  2393               	addwfc	(___fladd@b+2)& (0+255),f,b
  3947  000A02  2394               	addwfc	(___fladd@b+3)& (0+255),f,b
  3948  000A04  EF0D  F005         	goto	l1316
  3949  000A08                     l3873:
  3950  000A08  FFFF               	dw	65535	; assembler added errata NOP
  3951                           
  3952                           ; BSR set to: 0
  3953  000A0A  5195               	movf	___fladd@a& (0+255),w,b
  3954  000A0C  5F91               	subwf	___fladd@b& (0+255),f,b
  3955  000A0E  5196               	movf	(___fladd@a+1)& (0+255),w,b
  3956  000A10  5B92               	subwfb	(___fladd@b+1)& (0+255),f,b
  3957  000A12  5197               	movf	(___fladd@a+2)& (0+255),w,b
  3958  000A14  5B93               	subwfb	(___fladd@b+2)& (0+255),f,b
  3959  000A16  5198               	movf	(___fladd@a+3)& (0+255),w,b
  3960  000A18  5B94               	subwfb	(___fladd@b+3)& (0+255),f,b
  3961  000A1A                     l1316:
  3962  000A1A  FFFF               	dw	65535	; assembler added errata NOP
  3963                           
  3964                           ; BSR set to: 0
  3965  000A1C  5191               	movf	___fladd@b& (0+255),w,b
  3966  000A1E  1192               	iorwf	(___fladd@b+1)& (0+255),w,b
  3967  000A20  1193               	iorwf	(___fladd@b+2)& (0+255),w,b
  3968  000A22  1194               	iorwf	(___fladd@b+3)& (0+255),w,b
  3969  000A24  A4D8               	btfss	status,2,c
  3970  000A26  EF17  F005         	goto	u3691
  3971  000A2A  EF1A  F005         	goto	u3690
  3972  000A2E                     u3691:
  3973  000A2E  FFFF               	dw	65535	; assembler added errata NOP
  3974  000A30  EF5C  F005         	goto	l3897
  3975  000A34                     u3690:
  3976  000A34  FFFF               	dw	65535	; assembler added errata NOP
  3977  000A36                     
  3978                           ; BSR set to: 0
  3979  000A36  51A0               	movf	___fladd@grs& (0+255),w,b
  3980  000A38  A4D8               	btfss	status,2,c
  3981  000A3A  EF21  F005         	goto	u3701
  3982  000A3E  EF24  F005         	goto	u3700
  3983  000A42                     u3701:
  3984  000A42  FFFF               	dw	65535	; assembler added errata NOP
  3985  000A44  EF5C  F005         	goto	l3897
  3986  000A48                     u3700:
  3987  000A48  FFFF               	dw	65535	; assembler added errata NOP
  3988  000A4A                     
  3989                           ; BSR set to: 0
  3990  000A4A  0E00               	movlw	0
  3991  000A4C  6F91               	movwf	?___fladd& (0+255),b
  3992  000A4E  0E00               	movlw	0
  3993  000A50  6F92               	movwf	(?___fladd+1)& (0+255),b
  3994  000A52  0E00               	movlw	0
  3995  000A54  6F93               	movwf	(?___fladd+2)& (0+255),b
  3996  000A56  0E00               	movlw	0
  3997  000A58  6F94               	movwf	(?___fladd+3)& (0+255),b
  3998  000A5A  EF18  F006         	goto	l1308
  3999  000A5E                     l3881:
  4000  000A5E  FFFF               	dw	65535	; assembler added errata NOP
  4001                           
  4002                           ; BSR set to: 0
  4003  000A60  90D8               	bcf	status,0,c
  4004  000A62  3791               	rlcf	___fladd@b& (0+255),f,b
  4005  000A64  3792               	rlcf	(___fladd@b+1)& (0+255),f,b
  4006  000A66  3793               	rlcf	(___fladd@b+2)& (0+255),f,b
  4007  000A68  3794               	rlcf	(___fladd@b+3)& (0+255),f,b
  4008  000A6A                     
  4009                           ; BSR set to: 0
  4010  000A6A  AFA0               	btfss	___fladd@grs& (0+255),7,b
  4011  000A6C  EF3A  F005         	goto	u3711
  4012  000A70  EF3D  F005         	goto	u3710
  4013  000A74                     u3711:
  4014  000A74  FFFF               	dw	65535	; assembler added errata NOP
  4015  000A76  EF3F  F005         	goto	l3887
  4016  000A7A                     u3710:
  4017  000A7A  FFFF               	dw	65535	; assembler added errata NOP
  4018  000A7C                     
  4019                           ; BSR set to: 0
  4020  000A7C  8191               	bsf	___fladd@b& (0+255),0,b
  4021  000A7E                     l3887:
  4022  000A7E  FFFF               	dw	65535	; assembler added errata NOP
  4023                           
  4024                           ; BSR set to: 0
  4025  000A80  A1A0               	btfss	___fladd@grs& (0+255),0,b
  4026  000A82  EF45  F005         	goto	u3721
  4027  000A86  EF48  F005         	goto	u3720
  4028  000A8A                     u3721:
  4029  000A8A  FFFF               	dw	65535	; assembler added errata NOP
  4030  000A8C  EF4D  F005         	goto	l3891
  4031  000A90                     u3720:
  4032  000A90  FFFF               	dw	65535	; assembler added errata NOP
  4033  000A92                     
  4034                           ; BSR set to: 0
  4035  000A92  80D8               	bsf	status,0,c
  4036  000A94  37A0               	rlcf	___fladd@grs& (0+255),f,b
  4037  000A96  EF50  F005         	goto	l3893
  4038  000A9A                     l3891:
  4039  000A9A  FFFF               	dw	65535	; assembler added errata NOP
  4040                           
  4041                           ; BSR set to: 0
  4042  000A9C  90D8               	bcf	status,0,c
  4043  000A9E  37A0               	rlcf	___fladd@grs& (0+255),f,b
  4044  000AA0                     l3893:
  4045  000AA0  FFFF               	dw	65535	; assembler added errata NOP
  4046                           
  4047                           ; BSR set to: 0
  4048  000AA2  519F               	movf	___fladd@bexp& (0+255),w,b
  4049  000AA4  B4D8               	btfsc	status,2,c
  4050  000AA6  EF57  F005         	goto	u3731
  4051  000AAA  EF5A  F005         	goto	u3730
  4052  000AAE                     u3731:
  4053  000AAE  FFFF               	dw	65535	; assembler added errata NOP
  4054  000AB0  EF5C  F005         	goto	l3897
  4055  000AB4                     u3730:
  4056  000AB4  FFFF               	dw	65535	; assembler added errata NOP
  4057  000AB6                     
  4058                           ; BSR set to: 0
  4059  000AB6  079F               	decf	___fladd@bexp& (0+255),f,b
  4060  000AB8                     l3897:
  4061  000AB8  FFFF               	dw	65535	; assembler added errata NOP
  4062                           
  4063                           ; BSR set to: 0
  4064  000ABA  AF93               	btfss	(___fladd@b+2)& (0+255),7,b
  4065  000ABC  EF62  F005         	goto	u3741
  4066  000AC0  EF65  F005         	goto	u3740
  4067  000AC4                     u3741:
  4068  000AC4  FFFF               	dw	65535	; assembler added errata NOP
  4069  000AC6  EF2F  F005         	goto	l3881
  4070  000ACA                     u3740:
  4071  000ACA                     l3899:
  4072  000ACA  FFFF               	dw	65535	; assembler added errata NOP
  4073                           
  4074                           ; BSR set to: 0
  4075  000ACC  0E00               	movlw	0
  4076  000ACE  6F9E               	movwf	___fladd@aexp& (0+255),b
  4077  000AD0                     
  4078                           ; BSR set to: 0
  4079  000AD0  AFA0               	btfss	___fladd@grs& (0+255),7,b
  4080  000AD2  EF6D  F005         	goto	u3751
  4081  000AD6  EF70  F005         	goto	u3750
  4082  000ADA                     u3751:
  4083  000ADA  FFFF               	dw	65535	; assembler added errata NOP
  4084  000ADC  EF8F  F005         	goto	l1325
  4085  000AE0                     u3750:
  4086  000AE0  FFFF               	dw	65535	; assembler added errata NOP
  4087  000AE2                     
  4088                           ; BSR set to: 0
  4089  000AE2  C0A0  F099         	movff	___fladd@grs,??___fladd
  4090  000AE6  0E7F               	movlw	127
  4091  000AE8  1799               	andwf	??___fladd& (0+255),f,b
  4092  000AEA  B4D8               	btfsc	status,2,c
  4093  000AEC  EF7A  F005         	goto	u3761
  4094  000AF0  EF7D  F005         	goto	u3760
  4095  000AF4                     u3761:
  4096  000AF4  FFFF               	dw	65535	; assembler added errata NOP
  4097  000AF6  EF83  F005         	goto	l1326
  4098  000AFA                     u3760:
  4099  000AFA  FFFF               	dw	65535	; assembler added errata NOP
  4100  000AFC                     l3905:
  4101  000AFC  FFFF               	dw	65535	; assembler added errata NOP
  4102                           
  4103                           ; BSR set to: 0
  4104  000AFE  0E01               	movlw	1
  4105  000B00  6F9E               	movwf	___fladd@aexp& (0+255),b
  4106  000B02  EF8F  F005         	goto	l1325
  4107  000B06                     l1326:
  4108  000B06  FFFF               	dw	65535	; assembler added errata NOP
  4109                           
  4110                           ; BSR set to: 0
  4111  000B08  A191               	btfss	___fladd@b& (0+255),0,b
  4112  000B0A  EF89  F005         	goto	u3771
  4113  000B0E  EF8C  F005         	goto	u3770
  4114  000B12                     u3771:
  4115  000B12  FFFF               	dw	65535	; assembler added errata NOP
  4116  000B14  EF8F  F005         	goto	l1325
  4117  000B18                     u3770:
  4118  000B18  FFFF               	dw	65535	; assembler added errata NOP
  4119  000B1A  EF7E  F005         	goto	l3905
  4120  000B1E                     l1325:
  4121  000B1E  FFFF               	dw	65535	; assembler added errata NOP
  4122                           
  4123                           ; BSR set to: 0
  4124  000B20  519E               	movf	___fladd@aexp& (0+255),w,b
  4125  000B22  B4D8               	btfsc	status,2,c
  4126  000B24  EF96  F005         	goto	u3781
  4127  000B28  EF99  F005         	goto	u3780
  4128  000B2C                     u3781:
  4129  000B2C  FFFF               	dw	65535	; assembler added errata NOP
  4130  000B2E  EFC9  F005         	goto	l3917
  4131  000B32                     u3780:
  4132  000B32  FFFF               	dw	65535	; assembler added errata NOP
  4133  000B34                     
  4134                           ; BSR set to: 0
  4135  000B34  0E01               	movlw	1
  4136  000B36  2791               	addwf	___fladd@b& (0+255),f,b
  4137  000B38  0E00               	movlw	0
  4138  000B3A  2392               	addwfc	(___fladd@b+1)& (0+255),f,b
  4139  000B3C  2393               	addwfc	(___fladd@b+2)& (0+255),f,b
  4140  000B3E  2394               	addwfc	(___fladd@b+3)& (0+255),f,b
  4141  000B40                     
  4142                           ; BSR set to: 0
  4143  000B40  A194               	btfss	(___fladd@b+3)& (0+255),0,b
  4144  000B42  EFA5  F005         	goto	u3791
  4145  000B46  EFA8  F005         	goto	u3790
  4146  000B4A                     u3791:
  4147  000B4A  FFFF               	dw	65535	; assembler added errata NOP
  4148  000B4C  EFC9  F005         	goto	l3917
  4149  000B50                     u3790:
  4150  000B50  FFFF               	dw	65535	; assembler added errata NOP
  4151  000B52                     
  4152                           ; BSR set to: 0
  4153  000B52  C091  F099         	movff	___fladd@b,??___fladd
  4154  000B56  C092  F09A         	movff	___fladd@b+1,??___fladd+1
  4155  000B5A  C093  F09B         	movff	___fladd@b+2,??___fladd+2
  4156  000B5E  C094  F09C         	movff	___fladd@b+3,??___fladd+3
  4157  000B62  359C               	rlcf	(??___fladd+3)& (0+255),w,b
  4158  000B64  339C               	rrcf	(??___fladd+3)& (0+255),f,b
  4159  000B66  339B               	rrcf	(??___fladd+2)& (0+255),f,b
  4160  000B68  339A               	rrcf	(??___fladd+1)& (0+255),f,b
  4161  000B6A  3399               	rrcf	??___fladd& (0+255),f,b
  4162  000B6C  C099  F091         	movff	??___fladd,___fladd@b
  4163  000B70  C09A  F092         	movff	??___fladd+1,___fladd@b+1
  4164  000B74  C09B  F093         	movff	??___fladd+2,___fladd@b+2
  4165  000B78  C09C  F094         	movff	??___fladd+3,___fladd@b+3
  4166  000B7C  299F               	incf	___fladd@bexp& (0+255),w,b
  4167  000B7E  B4D8               	btfsc	status,2,c
  4168  000B80  EFC4  F005         	goto	u3801
  4169  000B84  EFC7  F005         	goto	u3800
  4170  000B88                     u3801:
  4171  000B88  FFFF               	dw	65535	; assembler added errata NOP
  4172  000B8A  EFC9  F005         	goto	l3917
  4173  000B8E                     u3800:
  4174  000B8E  FFFF               	dw	65535	; assembler added errata NOP
  4175  000B90                     
  4176                           ; BSR set to: 0
  4177  000B90  2B9F               	incf	___fladd@bexp& (0+255),f,b
  4178  000B92                     l3917:
  4179  000B92  FFFF               	dw	65535	; assembler added errata NOP
  4180                           
  4181                           ; BSR set to: 0
  4182  000B94  299F               	incf	___fladd@bexp& (0+255),w,b
  4183  000B96  B4D8               	btfsc	status,2,c
  4184  000B98  EFD0  F005         	goto	u3811
  4185  000B9C  EFD3  F005         	goto	u3810
  4186  000BA0                     u3811:
  4187  000BA0  FFFF               	dw	65535	; assembler added errata NOP
  4188  000BA2  EFDD  F005         	goto	l3921
  4189  000BA6                     u3810:
  4190  000BA6  FFFF               	dw	65535	; assembler added errata NOP
  4191  000BA8                     
  4192                           ; BSR set to: 0
  4193  000BA8  519F               	movf	___fladd@bexp& (0+255),w,b
  4194  000BAA  A4D8               	btfss	status,2,c
  4195  000BAC  EFDA  F005         	goto	u3821
  4196  000BB0  EFDD  F005         	goto	u3820
  4197  000BB4                     u3821:
  4198  000BB4  FFFF               	dw	65535	; assembler added errata NOP
  4199  000BB6  EFF2  F005         	goto	l3925
  4200  000BBA                     u3820:
  4201  000BBA                     l3921:
  4202  000BBA  FFFF               	dw	65535	; assembler added errata NOP
  4203                           
  4204                           ; BSR set to: 0
  4205  000BBC  0E00               	movlw	0
  4206  000BBE  6F91               	movwf	___fladd@b& (0+255),b
  4207  000BC0  0E00               	movlw	0
  4208  000BC2  6F92               	movwf	(___fladd@b+1)& (0+255),b
  4209  000BC4  0E00               	movlw	0
  4210  000BC6  6F93               	movwf	(___fladd@b+2)& (0+255),b
  4211  000BC8  0E00               	movlw	0
  4212  000BCA  6F94               	movwf	(___fladd@b+3)& (0+255),b
  4213  000BCC  519F               	movf	___fladd@bexp& (0+255),w,b
  4214  000BCE  A4D8               	btfss	status,2,c
  4215  000BD0  EFEC  F005         	goto	u3831
  4216  000BD4  EFEF  F005         	goto	u3830
  4217  000BD8                     u3831:
  4218  000BD8  FFFF               	dw	65535	; assembler added errata NOP
  4219  000BDA  EFF2  F005         	goto	l3925
  4220  000BDE                     u3830:
  4221  000BDE  FFFF               	dw	65535	; assembler added errata NOP
  4222  000BE0                     
  4223                           ; BSR set to: 0
  4224  000BE0  0E00               	movlw	0
  4225  000BE2  6F9D               	movwf	___fladd@signs& (0+255),b
  4226  000BE4                     l3925:
  4227  000BE4  FFFF               	dw	65535	; assembler added errata NOP
  4228                           
  4229                           ; BSR set to: 0
  4230  000BE6  A19F               	btfss	___fladd@bexp& (0+255),0,b
  4231  000BE8  EFF8  F005         	goto	u3841
  4232  000BEC  EFFB  F005         	goto	u3840
  4233  000BF0                     u3841:
  4234  000BF0  FFFF               	dw	65535	; assembler added errata NOP
  4235  000BF2  EFFF  F005         	goto	l3929
  4236  000BF6                     u3840:
  4237  000BF6  FFFF               	dw	65535	; assembler added errata NOP
  4238  000BF8                     
  4239                           ; BSR set to: 0
  4240  000BF8  8F93               	bsf	(___fladd@b+2)& (0+255),7,b
  4241  000BFA  EF01  F006         	goto	l3931
  4242  000BFE                     l3929:
  4243  000BFE  FFFF               	dw	65535	; assembler added errata NOP
  4244                           
  4245                           ; BSR set to: 0
  4246  000C00  9F93               	bcf	(___fladd@b+2)& (0+255),7,b
  4247  000C02                     l3931:
  4248  000C02  FFFF               	dw	65535	; assembler added errata NOP
  4249                           
  4250                           ; BSR set to: 0
  4251  000C04  90D8               	bcf	status,0,c
  4252  000C06  319F               	rrcf	___fladd@bexp& (0+255),w,b
  4253  000C08  6F94               	movwf	(___fladd@b+3)& (0+255),b
  4254  000C0A                     
  4255                           ; BSR set to: 0
  4256  000C0A  AF9D               	btfss	___fladd@signs& (0+255),7,b
  4257  000C0C  EF0A  F006         	goto	u3851
  4258  000C10  EF0D  F006         	goto	u3850
  4259  000C14                     u3851:
  4260  000C14  FFFF               	dw	65535	; assembler added errata NOP
  4261  000C16  EF0F  F006         	goto	l3937
  4262  000C1A                     u3850:
  4263  000C1A  FFFF               	dw	65535	; assembler added errata NOP
  4264  000C1C                     
  4265                           ; BSR set to: 0
  4266  000C1C  8F94               	bsf	(___fladd@b+3)& (0+255),7,b
  4267  000C1E                     l3937:
  4268  000C1E  FFFF               	dw	65535	; assembler added errata NOP
  4269                           
  4270                           ; BSR set to: 0
  4271  000C20  C091  F091         	movff	___fladd@b,?___fladd
  4272  000C24  C092  F092         	movff	___fladd@b+1,?___fladd+1
  4273  000C28  C093  F093         	movff	___fladd@b+2,?___fladd+2
  4274  000C2C  C094  F094         	movff	___fladd@b+3,?___fladd+3
  4275  000C30                     l1308:
  4276  000C30  FFFF               	dw	65535	; assembler added errata NOP
  4277                           
  4278                           ; BSR set to: 0
  4279  000C32  0012               	return		;funcret
  4280  000C34  FFFF               	dw	65535	; errata NOP
  4281  000C36                     __end_of___fladd:
  4282                           	opt callstack 0
  4283                           
  4284 ;; *************** function _pwm_set_duty *****************
  4285 ;; Defined at:
  4286 ;;		line 51 in file "../../lib_pic/pwm.c"
  4287 ;; Parameters:    Size  Location     Type
  4288 ;;  pwm_id          1    wreg     enum E2390
  4289 ;;  duty            2   30[COMRAM] unsigned short 
  4290 ;; Auto vars:     Size  Location     Type
  4291 ;;  pwm_id          1   34[COMRAM] enum E2390
  4292 ;; Return value:  Size  Location     Type
  4293 ;;                  1    wreg      void 
  4294 ;; Registers used:
  4295 ;;		wreg, status,2, status,0
  4296 ;; Tracked objects:
  4297 ;;		On entry : 0/0
  4298 ;;		On exit  : 0/0
  4299 ;;		Unchanged: 0/0
  4300 ;; Data sizes:     COMRAM   BANK0   BANK1   BANK2   BANK3   BANK4   BANK5
  4301 ;;      Params:         2       0       0       0       0       0       0
  4302 ;;      Locals:         1       0       0       0       0       0       0
  4303 ;;      Temps:          2       0       0       0       0       0       0
  4304 ;;      Totals:         5       0       0       0       0       0       0
  4305 ;;Total ram usage:        5 bytes
  4306 ;; Hardware stack levels used:    1
  4307 ;; Hardware stack levels required when called:    5
  4308 ;; This function calls:
  4309 ;;		Nothing
  4310 ;; This function is called by:
  4311 ;;		_main
  4312 ;; This function uses a non-reentrant model
  4313 ;;
  4314                           
  4315                           	psect	text10
  4316  001F92                     __ptext10:
  4317                           	opt callstack 0
  4318  001F92                     _pwm_set_duty:
  4319                           	opt callstack 0
  4320  001F92  FFFF               	dw	65535	; assembler added errata NOP
  4321                           
  4322                           ; BSR set to: 0
  4323                           ;incstack = 0
  4324                           ;pwm_set_duty@pwm_id stored from wreg
  4325  001F94  6E23               	movwf	pwm_set_duty@pwm_id^0,c
  4326  001F96                     
  4327                           ;../../lib_pic/pwm.c: 51: void pwm_set_duty (PWM_ID pwm_id, u16 duty);../../lib_pic/pwm.
      +                          c: 52: {;../../lib_pic/pwm.c: 55:     if (duty > 1023){
  4328  001F96  0E04               	movlw	4
  4329  001F98  5C20               	subwf	(pwm_set_duty@duty+1)^0,w,c
  4330  001F9A  A0D8               	btfss	status,0,c
  4331  001F9C  EFD2  F00F         	goto	u4621
  4332  001FA0  EFD5  F00F         	goto	u4620
  4333  001FA4                     u4621:
  4334  001FA4  FFFF               	dw	65535	; assembler added errata NOP
  4335  001FA6  EFD9  F00F         	goto	l324
  4336  001FAA                     u4620:
  4337  001FAA  FFFF               	dw	65535	; assembler added errata NOP
  4338  001FAC                     
  4339                           ;../../lib_pic/pwm.c: 56:         duty = 1023;
  4340  001FAC  0E03               	movlw	3
  4341  001FAE  6E20               	movwf	(pwm_set_duty@duty+1)^0,c
  4342  001FB0  681F               	setf	pwm_set_duty@duty^0,c
  4343  001FB2                     l324:
  4344  001FB2  FFFF               	dw	65535	; assembler added errata NOP
  4345                           
  4346                           ;../../lib_pic/pwm.c: 59:     if (pwm_id == PWM_ID_1){
  4347  001FB4  5023               	movf	pwm_set_duty@pwm_id^0,w,c
  4348  001FB6  A4D8               	btfss	status,2,c
  4349  001FB8  EFE0  F00F         	goto	u4631
  4350  001FBC  EFE3  F00F         	goto	u4630
  4351  001FC0                     u4631:
  4352  001FC0  FFFF               	dw	65535	; assembler added errata NOP
  4353  001FC2  EF0A  F010         	goto	l4417
  4354  001FC6                     u4630:
  4355  001FC6  FFFF               	dw	65535	; assembler added errata NOP
  4356  001FC8                     
  4357                           ;../../lib_pic/pwm.c: 60:         CCPR1L = (duty >> 2);
  4358  001FC8  C01F  F021         	movff	pwm_set_duty@duty,??_pwm_set_duty
  4359  001FCC  C020  F022         	movff	pwm_set_duty@duty+1,??_pwm_set_duty+1
  4360  001FD0  90D8               	bcf	status,0,c
  4361  001FD2  3222               	rrcf	(??_pwm_set_duty+1)^0,f,c
  4362  001FD4  3221               	rrcf	??_pwm_set_duty^0,f,c
  4363  001FD6  90D8               	bcf	status,0,c
  4364  001FD8  3222               	rrcf	(??_pwm_set_duty+1)^0,f,c
  4365  001FDA  3221               	rrcf	??_pwm_set_duty^0,f,c
  4366  001FDC  5021               	movf	??_pwm_set_duty^0,w,c
  4367  001FDE  6EBE               	movwf	190,c	;volatile
  4368                           
  4369                           ;../../lib_pic/pwm.c: 61:         CCP1CONbits.DC1B1 = (duty >> 1) & 0x01;
  4370  001FE0  90D8               	bcf	status,0,c
  4371  001FE2  3020               	rrcf	(pwm_set_duty@duty+1)^0,w,c
  4372  001FE4  6E22               	movwf	(??_pwm_set_duty+1)^0,c
  4373  001FE6  301F               	rrcf	pwm_set_duty@duty^0,w,c
  4374  001FE8  6E21               	movwf	??_pwm_set_duty^0,c
  4375  001FEA  0E01               	movlw	1
  4376  001FEC  1621               	andwf	??_pwm_set_duty^0,f,c
  4377  001FEE  3A21               	swapf	??_pwm_set_duty^0,f,c
  4378  001FF0  4621               	rlncf	??_pwm_set_duty^0,f,c
  4379  001FF2  50BD               	movf	189,w,c	;volatile
  4380  001FF4  1821               	xorwf	??_pwm_set_duty^0,w,c
  4381  001FF6  0BDF               	andlw	-33
  4382  001FF8  1821               	xorwf	??_pwm_set_duty^0,w,c
  4383  001FFA  6EBD               	movwf	189,c	;volatile
  4384                           
  4385                           ;../../lib_pic/pwm.c: 62:         CCP1CONbits.DC1B0 = duty & 0x01;
  4386  001FFC  C01F  F021         	movff	pwm_set_duty@duty,??_pwm_set_duty
  4387  002000  0E01               	movlw	1
  4388  002002  1621               	andwf	??_pwm_set_duty^0,f,c
  4389  002004  3A21               	swapf	??_pwm_set_duty^0,f,c
  4390  002006  50BD               	movf	189,w,c	;volatile
  4391  002008  1821               	xorwf	??_pwm_set_duty^0,w,c
  4392  00200A  0BEF               	andlw	-17
  4393  00200C  1821               	xorwf	??_pwm_set_duty^0,w,c
  4394  00200E  6EBD               	movwf	189,c	;volatile
  4395                           
  4396                           ;../../lib_pic/pwm.c: 63:     }
  4397  002010  EF39  F010         	goto	l328
  4398  002014                     l4417:
  4399  002014  FFFF               	dw	65535	; assembler added errata NOP
  4400  002016  0423               	decf	pwm_set_duty@pwm_id^0,w,c
  4401  002018  A4D8               	btfss	status,2,c
  4402  00201A  EF11  F010         	goto	u4641
  4403  00201E  EF14  F010         	goto	u4640
  4404  002022                     u4641:
  4405  002022  FFFF               	dw	65535	; assembler added errata NOP
  4406  002024  EF39  F010         	goto	l328
  4407  002028                     u4640:
  4408  002028  FFFF               	dw	65535	; assembler added errata NOP
  4409  00202A                     
  4410                           ;../../lib_pic/pwm.c: 65:         CCPR2L = (duty >> 2);
  4411  00202A  C01F  F021         	movff	pwm_set_duty@duty,??_pwm_set_duty
  4412  00202E  C020  F022         	movff	pwm_set_duty@duty+1,??_pwm_set_duty+1
  4413  002032  90D8               	bcf	status,0,c
  4414  002034  3222               	rrcf	(??_pwm_set_duty+1)^0,f,c
  4415  002036  3221               	rrcf	??_pwm_set_duty^0,f,c
  4416  002038  90D8               	bcf	status,0,c
  4417  00203A  3222               	rrcf	(??_pwm_set_duty+1)^0,f,c
  4418  00203C  3221               	rrcf	??_pwm_set_duty^0,f,c
  4419  00203E  5021               	movf	??_pwm_set_duty^0,w,c
  4420  002040  6EBB               	movwf	187,c	;volatile
  4421                           
  4422                           ;../../lib_pic/pwm.c: 66:         CCP2CONbits.DC2B1 = (duty >> 1) & 0x01;
  4423  002042  90D8               	bcf	status,0,c
  4424  002044  3020               	rrcf	(pwm_set_duty@duty+1)^0,w,c
  4425  002046  6E22               	movwf	(??_pwm_set_duty+1)^0,c
  4426  002048  301F               	rrcf	pwm_set_duty@duty^0,w,c
  4427  00204A  6E21               	movwf	??_pwm_set_duty^0,c
  4428  00204C  0E01               	movlw	1
  4429  00204E  1621               	andwf	??_pwm_set_duty^0,f,c
  4430  002050  3A21               	swapf	??_pwm_set_duty^0,f,c
  4431  002052  4621               	rlncf	??_pwm_set_duty^0,f,c
  4432  002054  50BA               	movf	186,w,c	;volatile
  4433  002056  1821               	xorwf	??_pwm_set_duty^0,w,c
  4434  002058  0BDF               	andlw	-33
  4435  00205A  1821               	xorwf	??_pwm_set_duty^0,w,c
  4436  00205C  6EBA               	movwf	186,c	;volatile
  4437                           
  4438                           ;../../lib_pic/pwm.c: 67:         CCP2CONbits.DC2B0 = duty & 0x01;
  4439  00205E  C01F  F021         	movff	pwm_set_duty@duty,??_pwm_set_duty
  4440  002062  0E01               	movlw	1
  4441  002064  1621               	andwf	??_pwm_set_duty^0,f,c
  4442  002066  3A21               	swapf	??_pwm_set_duty^0,f,c
  4443  002068  50BA               	movf	186,w,c	;volatile
  4444  00206A  1821               	xorwf	??_pwm_set_duty^0,w,c
  4445  00206C  0BEF               	andlw	-17
  4446  00206E  1821               	xorwf	??_pwm_set_duty^0,w,c
  4447  002070  6EBA               	movwf	186,c	;volatile
  4448  002072                     l328:
  4449  002072  FFFF               	dw	65535	; assembler added errata NOP
  4450  002074  0012               	return		;funcret
  4451  002076  FFFF               	dw	65535	; errata NOP
  4452  002078                     __end_of_pwm_set_duty:
  4453                           	opt callstack 0
  4454                           
  4455 ;; *************** function _pcf8574_write_port *****************
  4456 ;; Defined at:
  4457 ;;		line 8 in file "../../lib_comp/pcf8574.c"
  4458 ;; Parameters:    Size  Location     Type
  4459 ;;  i2c_bus_id      1    wreg     enum E2394
  4460 ;;  adr_chip        1   34[COMRAM] unsigned char 
  4461 ;;  data            1   35[COMRAM] unsigned char 
  4462 ;; Auto vars:     Size  Location     Type
  4463 ;;  i2c_bus_id      1   36[COMRAM] enum E2394
  4464 ;; Return value:  Size  Location     Type
  4465 ;;                  1    wreg      enum E2383
  4466 ;; Registers used:
  4467 ;;		wreg, status,2, status,0, cstack
  4468 ;; Tracked objects:
  4469 ;;		On entry : 0/0
  4470 ;;		On exit  : 0/0
  4471 ;;		Unchanged: 0/0
  4472 ;; Data sizes:     COMRAM   BANK0   BANK1   BANK2   BANK3   BANK4   BANK5
  4473 ;;      Params:         2       0       0       0       0       0       0
  4474 ;;      Locals:         1       0       0       0       0       0       0
  4475 ;;      Temps:          0       0       0       0       0       0       0
  4476 ;;      Totals:         3       0       0       0       0       0       0
  4477 ;;Total ram usage:        3 bytes
  4478 ;; Hardware stack levels used:    1
  4479 ;; Hardware stack levels required when called:    7
  4480 ;; This function calls:
  4481 ;;		_i2c_start
  4482 ;;		_i2c_stop
  4483 ;;		_i2c_write
  4484 ;; This function is called by:
  4485 ;;		_main
  4486 ;; This function uses a non-reentrant model
  4487 ;;
  4488                           
  4489                           	psect	text11
  4490  0021FC                     __ptext11:
  4491                           	opt callstack 0
  4492  0021FC                     _pcf8574_write_port:
  4493                           	opt callstack 0
  4494  0021FC  FFFF               	dw	65535	; assembler added errata NOP
  4495                           
  4496                           ;incstack = 0
  4497                           ;pcf8574_write_port@i2c_bus_id stored from wreg
  4498  0021FE  6E25               	movwf	pcf8574_write_port@i2c_bus_id^0,c
  4499  002200                     
  4500                           ;../../lib_comp/pcf8574.c: 8: result_t pcf8574_write_port (I2C_BUS i2c_bus_id, u8 adr_ch
      +                          ip, u8 data);../../lib_comp/pcf8574.c: 9: {;../../lib_comp/pcf8574.c: 10:     if (i2c_st
      +                          art(i2c_bus_id) != SUCCESS)
  4501  002200  5025               	movf	pcf8574_write_port@i2c_bus_id^0,w,c
  4502  002202  ECC9  F013         	call	_i2c_start
  4503  002206  0900               	iorlw	0
  4504  002208  B4D8               	btfsc	status,2,c
  4505  00220A  EF09  F011         	goto	u4711
  4506  00220E  EF0C  F011         	goto	u4710
  4507  002212                     u4711:
  4508  002212  FFFF               	dw	65535	; assembler added errata NOP
  4509  002214  EF0F  F011         	goto	l4477
  4510  002218                     u4710:
  4511  002218  FFFF               	dw	65535	; assembler added errata NOP
  4512  00221A  EF39  F011         	goto	l561
  4513  00221E                     l4477:
  4514  00221E  FFFF               	dw	65535	; assembler added errata NOP
  4515                           
  4516                           ;../../lib_comp/pcf8574.c: 13:     if (i2c_write(i2c_bus_id, (adr_chip<<1) & 0xFE) != SU
      +                          CCESS)
  4517  002220  5023               	movf	pcf8574_write_port@adr_chip^0,w,c
  4518  002222  2423               	addwf	pcf8574_write_port@adr_chip^0,w,c
  4519  002224  0BFE               	andlw	254
  4520  002226  6E20               	movwf	i2c_write@data^0,c
  4521  002228  5025               	movf	pcf8574_write_port@i2c_bus_id^0,w,c
  4522  00222A  EC03  F014         	call	_i2c_write
  4523  00222E  0900               	iorlw	0
  4524  002230  B4D8               	btfsc	status,2,c
  4525  002232  EF1D  F011         	goto	u4721
  4526  002236  EF20  F011         	goto	u4720
  4527  00223A                     u4721:
  4528  00223A  FFFF               	dw	65535	; assembler added errata NOP
  4529  00223C  EF23  F011         	goto	l4481
  4530  002240                     u4720:
  4531  002240  FFFF               	dw	65535	; assembler added errata NOP
  4532  002242  EF39  F011         	goto	l561
  4533  002246                     l4481:
  4534  002246  FFFF               	dw	65535	; assembler added errata NOP
  4535                           
  4536                           ;../../lib_comp/pcf8574.c: 16:     if (i2c_write(i2c_bus_id, data) != SUCCESS)
  4537  002248  C024  F020         	movff	pcf8574_write_port@data,i2c_write@data
  4538  00224C  5025               	movf	pcf8574_write_port@i2c_bus_id^0,w,c
  4539  00224E  EC03  F014         	call	_i2c_write
  4540  002252  0900               	iorlw	0
  4541  002254  B4D8               	btfsc	status,2,c
  4542  002256  EF2F  F011         	goto	u4731
  4543  00225A  EF32  F011         	goto	u4730
  4544  00225E                     u4731:
  4545  00225E  FFFF               	dw	65535	; assembler added errata NOP
  4546  002260  EF35  F011         	goto	l4485
  4547  002264                     u4730:
  4548  002264  FFFF               	dw	65535	; assembler added errata NOP
  4549  002266  EF39  F011         	goto	l561
  4550  00226A                     l4485:
  4551  00226A  FFFF               	dw	65535	; assembler added errata NOP
  4552                           
  4553                           ;../../lib_comp/pcf8574.c: 19:     if (i2c_stop(i2c_bus_id) != SUCCESS)
  4554  00226C  5025               	movf	pcf8574_write_port@i2c_bus_id^0,w,c
  4555  00226E  ECBA  F013         	call	_i2c_stop
  4556  002272                     l561:
  4557  002272  FFFF               	dw	65535	; assembler added errata NOP
  4558  002274  0012               	return		;funcret
  4559  002276  FFFF               	dw	65535	; errata NOP
  4560  002278                     __end_of_pcf8574_write_port:
  4561                           	opt callstack 0
  4562                           
  4563 ;; *************** function _i2c_write *****************
  4564 ;; Defined at:
  4565 ;;		line 364 in file "../../lib_pic/i2c.c"
  4566 ;; Parameters:    Size  Location     Type
  4567 ;;  bus_id          1    wreg     enum E2394
  4568 ;;  data            1   31[COMRAM] unsigned char 
  4569 ;; Auto vars:     Size  Location     Type
  4570 ;;  bus_id          1   32[COMRAM] enum E2394
  4571 ;;  result          1   33[COMRAM] enum E2383
  4572 ;; Return value:  Size  Location     Type
  4573 ;;                  1    wreg      enum E2383
  4574 ;; Registers used:
  4575 ;;		wreg, status,2, status,0, cstack
  4576 ;; Tracked objects:
  4577 ;;		On entry : 0/0
  4578 ;;		On exit  : 0/0
  4579 ;;		Unchanged: 0/0
  4580 ;; Data sizes:     COMRAM   BANK0   BANK1   BANK2   BANK3   BANK4   BANK5
  4581 ;;      Params:         1       0       0       0       0       0       0
  4582 ;;      Locals:         2       0       0       0       0       0       0
  4583 ;;      Temps:          0       0       0       0       0       0       0
  4584 ;;      Totals:         3       0       0       0       0       0       0
  4585 ;;Total ram usage:        3 bytes
  4586 ;; Hardware stack levels used:    1
  4587 ;; Hardware stack levels required when called:    6
  4588 ;; This function calls:
  4589 ;;		_i2c_wait_ack
  4590 ;; This function is called by:
  4591 ;;		_pcf8574_write_port
  4592 ;;		_i2c_read_reg
  4593 ;;		_i2c_write_reg
  4594 ;;		_ds1307_init
  4595 ;;		_pcf8574_read_port
  4596 ;; This function uses a non-reentrant model
  4597 ;;
  4598                           
  4599                           	psect	text12
  4600  002806                     __ptext12:
  4601                           	opt callstack 0
  4602  002806                     _i2c_write:
  4603                           	opt callstack 0
  4604  002806  FFFF               	dw	65535	; assembler added errata NOP
  4605                           
  4606                           ;incstack = 0
  4607                           ;i2c_write@bus_id stored from wreg
  4608  002808  6E21               	movwf	i2c_write@bus_id^0,c
  4609  00280A                     
  4610                           ;../../lib_pic/i2c.c: 370:         SSPBUF = data;
  4611  00280A  C020  FFC9         	movff	i2c_write@data,4041	;volatile
  4612  00280E                     
  4613                           ;../../lib_pic/i2c.c: 371:         PIR1bits.SSPIF = 0;
  4614  00280E  969E               	bcf	158,3,c	;volatile
  4615  002810                     
  4616                           ;../../lib_pic/i2c.c: 374:         result = i2c_wait_ack(bus_id);
  4617  002810  5021               	movf	i2c_write@bus_id^0,w,c
  4618  002812  EC6B  F011         	call	_i2c_wait_ack
  4619  002816  6E22               	movwf	i2c_write@result^0,c
  4620  002818                     
  4621                           ;../../lib_pic/i2c.c: 406:     return result;
  4622  002818  5022               	movf	i2c_write@result^0,w,c
  4623  00281A  0012               	return		;funcret
  4624  00281C  FFFF               	dw	65535	; errata NOP
  4625  00281E                     __end_of_i2c_write:
  4626                           	opt callstack 0
  4627                           
  4628 ;; *************** function _i2c_wait_ack *****************
  4629 ;; Defined at:
  4630 ;;		line 259 in file "../../lib_pic/i2c.c"
  4631 ;; Parameters:    Size  Location     Type
  4632 ;;  bus_id          1    wreg     enum E2394
  4633 ;; Auto vars:     Size  Location     Type
  4634 ;;  bus_id          1    0[COMRAM] enum E2394
  4635 ;;  i               1   30[COMRAM] unsigned char 
  4636 ;; Return value:  Size  Location     Type
  4637 ;;                  1    wreg      enum E2383
  4638 ;; Registers used:
  4639 ;;		wreg, status,2, status,0
  4640 ;; Tracked objects:
  4641 ;;		On entry : 0/0
  4642 ;;		On exit  : 0/0
  4643 ;;		Unchanged: 0/0
  4644 ;; Data sizes:     COMRAM   BANK0   BANK1   BANK2   BANK3   BANK4   BANK5
  4645 ;;      Params:         0       0       0       0       0       0       0
  4646 ;;      Locals:         1       0       0       0       0       0       0
  4647 ;;      Temps:          0       0       0       0       0       0       0
  4648 ;;      Totals:         1       0       0       0       0       0       0
  4649 ;;Total ram usage:        1 bytes
  4650 ;; Hardware stack levels used:    1
  4651 ;; Hardware stack levels required when called:    5
  4652 ;; This function calls:
  4653 ;;		Nothing
  4654 ;; This function is called by:
  4655 ;;		_i2c_write
  4656 ;; This function uses a non-reentrant model
  4657 ;;
  4658                           
  4659                           	psect	text13
  4660  0022D6                     __ptext13:
  4661                           	opt callstack 0
  4662  0022D6                     _i2c_wait_ack:
  4663                           	opt callstack 0
  4664  0022D6  FFFF               	dw	65535	; assembler added errata NOP
  4665  0022D8                     l153:
  4666  0022D8  FFFF               	dw	65535	; assembler added errata NOP
  4667  0022DA  B4C7               	btfsc	199,2,c	;volatile
  4668  0022DC  EF72  F011         	goto	u3101
  4669  0022E0  EF75  F011         	goto	u3100
  4670  0022E4                     u3101:
  4671  0022E4  FFFF               	dw	65535	; assembler added errata NOP
  4672  0022E6  EF6C  F011         	goto	l153
  4673  0022EA                     u3100:
  4674  0022EA  FFFF               	dw	65535	; assembler added errata NOP
  4675  0022EC                     
  4676                           ;../../lib_pic/i2c.c: 266:         for (i=0; i<100; i++)
  4677  0022EC  0E00               	movlw	0
  4678  0022EE  6E1F               	movwf	i2c_wait_ack@i^0,c
  4679  0022F0                     l156:
  4680  0022F0  FFFF               	dw	65535	; assembler added errata NOP
  4681                           
  4682                           ;../../lib_pic/i2c.c: 267:         {;../../lib_pic/i2c.c: 268:             if (!SSPCON2b
      +                          its.ACKSTAT)
  4683  0022F2  BCC5               	btfsc	197,6,c	;volatile
  4684  0022F4  EF7E  F011         	goto	u3111
  4685  0022F8  EF81  F011         	goto	u3110
  4686  0022FC                     u3111:
  4687  0022FC  FFFF               	dw	65535	; assembler added errata NOP
  4688  0022FE  EF86  F011         	goto	l3515
  4689  002302                     u3110:
  4690  002302  FFFF               	dw	65535	; assembler added errata NOP
  4691  002304                     l3511:
  4692  002304  FFFF               	dw	65535	; assembler added errata NOP
  4693                           
  4694                           ;../../lib_pic/i2c.c: 269:             {;../../lib_pic/i2c.c: 270:                 retur
      +                          n SUCCESS;
  4695  002306  0E00               	movlw	0
  4696  002308  EF95  F011         	goto	l159
  4697  00230C                     l3515:
  4698  00230C  FFFF               	dw	65535	; assembler added errata NOP
  4699                           
  4700                           ;../../lib_pic/i2c.c: 272:         }
  4701  00230E  2A1F               	incf	i2c_wait_ack@i^0,f,c
  4702  002310  0E63               	movlw	99
  4703  002312  641F               	cpfsgt	i2c_wait_ack@i^0,c
  4704  002314  EF8E  F011         	goto	u3121
  4705  002318  EF91  F011         	goto	u3120
  4706  00231C                     u3121:
  4707  00231C  FFFF               	dw	65535	; assembler added errata NOP
  4708  00231E  EF78  F011         	goto	l156
  4709  002322                     u3120:
  4710  002322  FFFF               	dw	65535	; assembler added errata NOP
  4711  002324                     
  4712                           ;../../lib_pic/i2c.c: 273:         PIR1bits.SSPIF = 0;
  4713  002324  969E               	bcf	158,3,c	;volatile
  4714  002326  EF82  F011         	goto	l3511
  4715  00232A                     l159:
  4716  00232A  FFFF               	dw	65535	; assembler added errata NOP
  4717  00232C  0012               	return		;funcret
  4718  00232E  FFFF               	dw	65535	; errata NOP
  4719  002330                     __end_of_i2c_wait_ack:
  4720                           	opt callstack 0
  4721                           
  4722 ;; *************** function _i2c_stop *****************
  4723 ;; Defined at:
  4724 ;;		line 412 in file "../../lib_pic/i2c.c"
  4725 ;; Parameters:    Size  Location     Type
  4726 ;;  bus_id          1    wreg     enum E2394
  4727 ;; Auto vars:     Size  Location     Type
  4728 ;;  bus_id          1    0[COMRAM] enum E2394
  4729 ;; Return value:  Size  Location     Type
  4730 ;;                  1    wreg      enum E2383
  4731 ;; Registers used:
  4732 ;;		wreg
  4733 ;; Tracked objects:
  4734 ;;		On entry : 0/0
  4735 ;;		On exit  : 0/0
  4736 ;;		Unchanged: 0/0
  4737 ;; Data sizes:     COMRAM   BANK0   BANK1   BANK2   BANK3   BANK4   BANK5
  4738 ;;      Params:         0       0       0       0       0       0       0
  4739 ;;      Locals:         0       0       0       0       0       0       0
  4740 ;;      Temps:          0       0       0       0       0       0       0
  4741 ;;      Totals:         0       0       0       0       0       0       0
  4742 ;;Total ram usage:        0 bytes
  4743 ;; Hardware stack levels used:    1
  4744 ;; Hardware stack levels required when called:    5
  4745 ;; This function calls:
  4746 ;;		Nothing
  4747 ;; This function is called by:
  4748 ;;		_pcf8574_write_port
  4749 ;;		_i2c_read_reg
  4750 ;;		_i2c_write_reg
  4751 ;;		_ds1307_init
  4752 ;;		_pcf8574_read_port
  4753 ;; This function uses a non-reentrant model
  4754 ;;
  4755                           
  4756                           	psect	text14
  4757  002774                     __ptext14:
  4758                           	opt callstack 0
  4759  002774                     _i2c_stop:
  4760                           	opt callstack 0
  4761  002774  FFFF               	dw	65535	; assembler added errata NOP
  4762  002776                     
  4763                           ;../../lib_pic/i2c.c: 412: result_t i2c_stop(I2C_BUS bus_id);../../lib_pic/i2c.c: 413: {
      +                          ;../../lib_pic/i2c.c: 416:         SSPCON2bits.PEN = 1;
  4764  002776  84C5               	bsf	197,2,c	;volatile
  4765  002778                     l171:
  4766  002778  FFFF               	dw	65535	; assembler added errata NOP
  4767  00277A  B4C5               	btfsc	197,2,c	;volatile
  4768  00277C  EFC2  F013         	goto	u3361
  4769  002780  EFC5  F013         	goto	u3360
  4770  002784                     u3361:
  4771  002784  FFFF               	dw	65535	; assembler added errata NOP
  4772  002786  EFBC  F013         	goto	l171
  4773  00278A                     u3360:
  4774  00278A  FFFF               	dw	65535	; assembler added errata NOP
  4775  00278C                     
  4776                           ;../../lib_pic/i2c.c: 444:     return SUCCESS;
  4777  00278C  0E00               	movlw	0
  4778  00278E  0012               	return		;funcret
  4779  002790  FFFF               	dw	65535	; errata NOP
  4780  002792                     __end_of_i2c_stop:
  4781                           	opt callstack 0
  4782                           
  4783 ;; *************** function _i2c_start *****************
  4784 ;; Defined at:
  4785 ;;		line 137 in file "../../lib_pic/i2c.c"
  4786 ;; Parameters:    Size  Location     Type
  4787 ;;  bus_id          1    wreg     enum E2394
  4788 ;; Auto vars:     Size  Location     Type
  4789 ;;  bus_id          1    0[COMRAM] enum E2394
  4790 ;;  result          1    0        enum E2383
  4791 ;; Return value:  Size  Location     Type
  4792 ;;                  1    wreg      enum E2383
  4793 ;; Registers used:
  4794 ;;		wreg, status,2
  4795 ;; Tracked objects:
  4796 ;;		On entry : 0/0
  4797 ;;		On exit  : 0/0
  4798 ;;		Unchanged: 0/0
  4799 ;; Data sizes:     COMRAM   BANK0   BANK1   BANK2   BANK3   BANK4   BANK5
  4800 ;;      Params:         0       0       0       0       0       0       0
  4801 ;;      Locals:         1       0       0       0       0       0       0
  4802 ;;      Temps:          0       0       0       0       0       0       0
  4803 ;;      Totals:         1       0       0       0       0       0       0
  4804 ;;Total ram usage:        1 bytes
  4805 ;; Hardware stack levels used:    1
  4806 ;; Hardware stack levels required when called:    5
  4807 ;; This function calls:
  4808 ;;		Nothing
  4809 ;; This function is called by:
  4810 ;;		_pcf8574_write_port
  4811 ;;		_i2c_read_reg
  4812 ;;		_i2c_write_reg
  4813 ;;		_ds1307_init
  4814 ;;		_pcf8574_read_port
  4815 ;; This function uses a non-reentrant model
  4816 ;;
  4817                           
  4818                           	psect	text15
  4819  002792                     __ptext15:
  4820                           	opt callstack 0
  4821  002792                     _i2c_start:
  4822                           	opt callstack 0
  4823  002792  FFFF               	dw	65535	; assembler added errata NOP
  4824  002794                     
  4825                           ;../../lib_pic/i2c.c: 143:         SSPCON2bits.SEN = 1;
  4826  002794  80C5               	bsf	197,0,c	;volatile
  4827  002796                     l135:
  4828  002796  FFFF               	dw	65535	; assembler added errata NOP
  4829  002798  B0C5               	btfsc	197,0,c	;volatile
  4830  00279A  EFD1  F013         	goto	u3351
  4831  00279E  EFD4  F013         	goto	u3350
  4832  0027A2                     u3351:
  4833  0027A2  FFFF               	dw	65535	; assembler added errata NOP
  4834  0027A4  EFCB  F013         	goto	l135
  4835  0027A8                     u3350:
  4836  0027A8  FFFF               	dw	65535	; assembler added errata NOP
  4837  0027AA                     
  4838                           ;../../lib_pic/i2c.c: 173:     return result;
  4839  0027AA  0E00               	movlw	0
  4840  0027AC  0012               	return		;funcret
  4841  0027AE  FFFF               	dw	65535	; errata NOP
  4842  0027B0                     __end_of_i2c_start:
  4843                           	opt callstack 0
  4844                           
  4845 ;; *************** function _dec_2_bcd *****************
  4846 ;; Defined at:
  4847 ;;		line 8 in file "../../lib_misc/bcd.c"
  4848 ;; Parameters:    Size  Location     Type
  4849 ;;  dec             2   30[COMRAM] unsigned short 
  4850 ;;  bcd             2   32[COMRAM] PTR unsigned char 
  4851 ;;		 -> uart_write_temperature@bcd(5), uart_write_date@bcd(5), uart_write_u16@bcd(5), uart_write_u8@bcd(5), 
  4852 ;;		 -> uart_write_char@bcd(5), main@bcd(5), 
  4853 ;; Auto vars:     Size  Location     Type
  4854 ;;		None
  4855 ;; Return value:  Size  Location     Type
  4856 ;;                  1    wreg      void 
  4857 ;; Registers used:
  4858 ;;		wreg, fsr2l, fsr2h, status,2, status,0
  4859 ;; Tracked objects:
  4860 ;;		On entry : 0/0
  4861 ;;		On exit  : 0/0
  4862 ;;		Unchanged: 0/0
  4863 ;; Data sizes:     COMRAM   BANK0   BANK1   BANK2   BANK3   BANK4   BANK5
  4864 ;;      Params:         4       0       0       0       0       0       0
  4865 ;;      Locals:         0       0       0       0       0       0       0
  4866 ;;      Temps:          0       0       0       0       0       0       0
  4867 ;;      Totals:         4       0       0       0       0       0       0
  4868 ;;Total ram usage:        4 bytes
  4869 ;; Hardware stack levels used:    1
  4870 ;; Hardware stack levels required when called:    5
  4871 ;; This function calls:
  4872 ;;		Nothing
  4873 ;; This function is called by:
  4874 ;;		_main
  4875 ;;		_uart_write_char
  4876 ;;		_uart_write_u8
  4877 ;;		_uart_write_u16
  4878 ;;		_uart_write_date
  4879 ;;		_uart_write_temperature
  4880 ;; This function uses a non-reentrant model
  4881 ;;
  4882                           
  4883                           	psect	text16
  4884  001B34                     __ptext16:
  4885                           	opt callstack 0
  4886  001B34                     _dec_2_bcd:
  4887                           	opt callstack 25
  4888  001B34  FFFF               	dw	65535	; assembler added errata NOP
  4889                           
  4890                           ;../../lib_misc/bcd.c: 8: void dec_2_bcd(u16 dec, u8 bcd[]);../../lib_misc/bcd.c: 9: {;.
      +                          ./../lib_misc/bcd.c: 10:     bcd[0]=0, bcd[1]=0, bcd[2]=0, bcd[3]=0, bcd[4]=0;
  4891  001B36  C021  FFD9         	movff	dec_2_bcd@bcd,fsr2l
  4892  001B3A  C022  FFDA         	movff	dec_2_bcd@bcd+1,fsr2h
  4893  001B3E  0E00               	movlw	0
  4894  001B40  6EDF               	movwf	indf2,c
  4895  001B42  EE20 F001          	lfsr	2,1
  4896  001B46  5021               	movf	dec_2_bcd@bcd^0,w,c
  4897  001B48  26D9               	addwf	fsr2l,f,c
  4898  001B4A  5022               	movf	(dec_2_bcd@bcd+1)^0,w,c
  4899  001B4C  22DA               	addwfc	fsr2h,f,c
  4900  001B4E  0E00               	movlw	0
  4901  001B50  6EDF               	movwf	indf2,c
  4902  001B52  EE20 F002          	lfsr	2,2
  4903  001B56  5021               	movf	dec_2_bcd@bcd^0,w,c
  4904  001B58  26D9               	addwf	fsr2l,f,c
  4905  001B5A  5022               	movf	(dec_2_bcd@bcd+1)^0,w,c
  4906  001B5C  22DA               	addwfc	fsr2h,f,c
  4907  001B5E  0E00               	movlw	0
  4908  001B60  6EDF               	movwf	indf2,c
  4909  001B62  EE20 F003          	lfsr	2,3
  4910  001B66  5021               	movf	dec_2_bcd@bcd^0,w,c
  4911  001B68  26D9               	addwf	fsr2l,f,c
  4912  001B6A  5022               	movf	(dec_2_bcd@bcd+1)^0,w,c
  4913  001B6C  22DA               	addwfc	fsr2h,f,c
  4914  001B6E  0E00               	movlw	0
  4915  001B70  6EDF               	movwf	indf2,c
  4916  001B72  EE20 F004          	lfsr	2,4
  4917  001B76  5021               	movf	dec_2_bcd@bcd^0,w,c
  4918  001B78  26D9               	addwf	fsr2l,f,c
  4919  001B7A  5022               	movf	(dec_2_bcd@bcd+1)^0,w,c
  4920  001B7C  22DA               	addwfc	fsr2h,f,c
  4921  001B7E  0E00               	movlw	0
  4922  001B80  6EDF               	movwf	indf2,c
  4923                           
  4924                           ;../../lib_misc/bcd.c: 12:     while (dec>=10000) {bcd[4]++; dec -= 10000;}
  4925  001B82  EFCF  F00D         	goto	l4451
  4926  001B86                     l4447:
  4927  001B86  FFFF               	dw	65535	; assembler added errata NOP
  4928  001B88  EE20 F004          	lfsr	2,4
  4929  001B8C  5021               	movf	dec_2_bcd@bcd^0,w,c
  4930  001B8E  26D9               	addwf	fsr2l,f,c
  4931  001B90  5022               	movf	(dec_2_bcd@bcd+1)^0,w,c
  4932  001B92  22DA               	addwfc	fsr2h,f,c
  4933  001B94  2ADF               	incf	indf2,f,c
  4934  001B96  0E10               	movlw	16
  4935  001B98  5E1F               	subwf	dec_2_bcd@dec^0,f,c
  4936  001B9A  0E27               	movlw	39
  4937  001B9C  5A20               	subwfb	(dec_2_bcd@dec+1)^0,f,c
  4938  001B9E                     l4451:
  4939  001B9E  FFFF               	dw	65535	; assembler added errata NOP
  4940  001BA0  0E10               	movlw	16
  4941  001BA2  5C1F               	subwf	dec_2_bcd@dec^0,w,c
  4942  001BA4  0E27               	movlw	39
  4943  001BA6  5820               	subwfb	(dec_2_bcd@dec+1)^0,w,c
  4944  001BA8  B0D8               	btfsc	status,0,c
  4945  001BAA  EFD9  F00D         	goto	u4671
  4946  001BAE  EFDC  F00D         	goto	u4670
  4947  001BB2                     u4671:
  4948  001BB2  FFFF               	dw	65535	; assembler added errata NOP
  4949  001BB4  EFC3  F00D         	goto	l4447
  4950  001BB8                     u4670:
  4951  001BB8  FFFF               	dw	65535	; assembler added errata NOP
  4952  001BBA  EFEB  F00D         	goto	l4457
  4953  001BBE                     l4453:
  4954  001BBE  FFFF               	dw	65535	; assembler added errata NOP
  4955  001BC0  EE20 F003          	lfsr	2,3
  4956  001BC4  5021               	movf	dec_2_bcd@bcd^0,w,c
  4957  001BC6  26D9               	addwf	fsr2l,f,c
  4958  001BC8  5022               	movf	(dec_2_bcd@bcd+1)^0,w,c
  4959  001BCA  22DA               	addwfc	fsr2h,f,c
  4960  001BCC  2ADF               	incf	indf2,f,c
  4961  001BCE  0EE8               	movlw	232
  4962  001BD0  5E1F               	subwf	dec_2_bcd@dec^0,f,c
  4963  001BD2  0E03               	movlw	3
  4964  001BD4  5A20               	subwfb	(dec_2_bcd@dec+1)^0,f,c
  4965  001BD6                     l4457:
  4966  001BD6  FFFF               	dw	65535	; assembler added errata NOP
  4967  001BD8  0EE8               	movlw	232
  4968  001BDA  5C1F               	subwf	dec_2_bcd@dec^0,w,c
  4969  001BDC  0E03               	movlw	3
  4970  001BDE  5820               	subwfb	(dec_2_bcd@dec+1)^0,w,c
  4971  001BE0  B0D8               	btfsc	status,0,c
  4972  001BE2  EFF5  F00D         	goto	u4681
  4973  001BE6  EFF8  F00D         	goto	u4680
  4974  001BEA                     u4681:
  4975  001BEA  FFFF               	dw	65535	; assembler added errata NOP
  4976  001BEC  EFDF  F00D         	goto	l4453
  4977  001BF0                     u4680:
  4978  001BF0  FFFF               	dw	65535	; assembler added errata NOP
  4979  001BF2  EF07  F00E         	goto	l4463
  4980  001BF6                     l4459:
  4981  001BF6  FFFF               	dw	65535	; assembler added errata NOP
  4982  001BF8  EE20 F002          	lfsr	2,2
  4983  001BFC  5021               	movf	dec_2_bcd@bcd^0,w,c
  4984  001BFE  26D9               	addwf	fsr2l,f,c
  4985  001C00  5022               	movf	(dec_2_bcd@bcd+1)^0,w,c
  4986  001C02  22DA               	addwfc	fsr2h,f,c
  4987  001C04  2ADF               	incf	indf2,f,c
  4988  001C06  0E64               	movlw	100
  4989  001C08  5E1F               	subwf	dec_2_bcd@dec^0,f,c
  4990  001C0A  0E00               	movlw	0
  4991  001C0C  5A20               	subwfb	(dec_2_bcd@dec+1)^0,f,c
  4992  001C0E                     l4463:
  4993  001C0E  FFFF               	dw	65535	; assembler added errata NOP
  4994  001C10  5020               	movf	(dec_2_bcd@dec+1)^0,w,c
  4995  001C12  E107               	bnz	u4691
  4996  001C14  0E64               	movlw	100
  4997  001C16  5C1F               	subwf	dec_2_bcd@dec^0,w,c
  4998  001C18  B0D8               	btfsc	status,0,c
  4999  001C1A  EF11  F00E         	goto	u4691
  5000  001C1E  EF14  F00E         	goto	u4690
  5001  001C22                     u4691:
  5002  001C22  FFFF               	dw	65535	; assembler added errata NOP
  5003  001C24  EFFB  F00D         	goto	l4459
  5004  001C28                     u4690:
  5005  001C28  FFFF               	dw	65535	; assembler added errata NOP
  5006  001C2A  EF23  F00E         	goto	l4469
  5007  001C2E                     l4465:
  5008  001C2E  FFFF               	dw	65535	; assembler added errata NOP
  5009  001C30  EE20 F001          	lfsr	2,1
  5010  001C34  5021               	movf	dec_2_bcd@bcd^0,w,c
  5011  001C36  26D9               	addwf	fsr2l,f,c
  5012  001C38  5022               	movf	(dec_2_bcd@bcd+1)^0,w,c
  5013  001C3A  22DA               	addwfc	fsr2h,f,c
  5014  001C3C  2ADF               	incf	indf2,f,c
  5015  001C3E  0E0A               	movlw	10
  5016  001C40  5E1F               	subwf	dec_2_bcd@dec^0,f,c
  5017  001C42  0E00               	movlw	0
  5018  001C44  5A20               	subwfb	(dec_2_bcd@dec+1)^0,f,c
  5019  001C46                     l4469:
  5020  001C46  FFFF               	dw	65535	; assembler added errata NOP
  5021  001C48  5020               	movf	(dec_2_bcd@dec+1)^0,w,c
  5022  001C4A  E107               	bnz	u4701
  5023  001C4C  0E0A               	movlw	10
  5024  001C4E  5C1F               	subwf	dec_2_bcd@dec^0,w,c
  5025  001C50  B0D8               	btfsc	status,0,c
  5026  001C52  EF2D  F00E         	goto	u4701
  5027  001C56  EF30  F00E         	goto	u4700
  5028  001C5A                     u4701:
  5029  001C5A  FFFF               	dw	65535	; assembler added errata NOP
  5030  001C5C  EF17  F00E         	goto	l4465
  5031  001C60                     u4700:
  5032  001C60  FFFF               	dw	65535	; assembler added errata NOP
  5033  001C62                     
  5034                           ;../../lib_misc/bcd.c: 16:     bcd[0] = dec;
  5035  001C62  C021  FFD9         	movff	dec_2_bcd@bcd,fsr2l
  5036  001C66  C022  FFDA         	movff	dec_2_bcd@bcd+1,fsr2h
  5037  001C6A  C01F  FFDF         	movff	dec_2_bcd@dec,indf2
  5038  001C6E  0012               	return		;funcret
  5039  001C70  FFFF               	dw	65535	; errata NOP
  5040  001C72                     __end_of_dec_2_bcd:
  5041                           	opt callstack 0
  5042                           
  5043 ;; *************** function _datetime_increase_minutes *****************
  5044 ;; Defined at:
  5045 ;;		line 44 in file "../../lib_misc/date_time.c"
  5046 ;; Parameters:    Size  Location     Type
  5047 ;;  t               2   36[COMRAM] PTR struct .
  5048 ;;		 -> t(7), 
  5049 ;; Auto vars:     Size  Location     Type
  5050 ;;		None
  5051 ;; Return value:  Size  Location     Type
  5052 ;;                  1    wreg      void 
  5053 ;; Registers used:
  5054 ;;		wreg, fsr2l, fsr2h, status,2, status,0, cstack
  5055 ;; Tracked objects:
  5056 ;;		On entry : 0/0
  5057 ;;		On exit  : 0/0
  5058 ;;		Unchanged: 0/0
  5059 ;; Data sizes:     COMRAM   BANK0   BANK1   BANK2   BANK3   BANK4   BANK5
  5060 ;;      Params:         2       0       0       0       0       0       0
  5061 ;;      Locals:         0       0       0       0       0       0       0
  5062 ;;      Temps:          1       0       0       0       0       0       0
  5063 ;;      Totals:         3       0       0       0       0       0       0
  5064 ;;Total ram usage:        3 bytes
  5065 ;; Hardware stack levels used:    1
  5066 ;; Hardware stack levels required when called:    7
  5067 ;; This function calls:
  5068 ;;		_datetime_increase_hours
  5069 ;; This function is called by:
  5070 ;;		_main
  5071 ;; This function uses a non-reentrant model
  5072 ;;
  5073                           
  5074                           	psect	text17
  5075  00238A                     __ptext17:
  5076                           	opt callstack 0
  5077  00238A                     _datetime_increase_minutes:
  5078                           	opt callstack 23
  5079  00238A  FFFF               	dw	65535	; assembler added errata NOP
  5080                           
  5081                           ;../../lib_misc/date_time.c: 44: void datetime_increase_minutes(date_time_t *t);../../li
      +                          b_misc/date_time.c: 45: {;../../lib_misc/date_time.c: 46:     if (t->min >= 59)
  5082  00238C  EE20 F001          	lfsr	2,1
  5083  002390  5025               	movf	datetime_increase_minutes@t^0,w,c
  5084  002392  26D9               	addwf	fsr2l,f,c
  5085  002394  5026               	movf	(datetime_increase_minutes@t+1)^0,w,c
  5086  002396  22DA               	addwfc	fsr2h,f,c
  5087  002398  0E3A               	movlw	58
  5088  00239A  64DF               	cpfsgt	indf2,c
  5089  00239C  EFD2  F011         	goto	u4651
  5090  0023A0  EFD5  F011         	goto	u4650
  5091  0023A4                     u4651:
  5092  0023A4  FFFF               	dw	65535	; assembler added errata NOP
  5093  0023A6  EFE6  F011         	goto	l4427
  5094  0023AA                     u4650:
  5095  0023AA  FFFF               	dw	65535	; assembler added errata NOP
  5096  0023AC                     
  5097                           ;../../lib_misc/date_time.c: 47:     {;../../lib_misc/date_time.c: 48:         t->min = 
      +                          0;
  5098  0023AC  EE20 F001          	lfsr	2,1
  5099  0023B0  5025               	movf	datetime_increase_minutes@t^0,w,c
  5100  0023B2  26D9               	addwf	fsr2l,f,c
  5101  0023B4  5026               	movf	(datetime_increase_minutes@t+1)^0,w,c
  5102  0023B6  22DA               	addwfc	fsr2h,f,c
  5103  0023B8  0E00               	movlw	0
  5104  0023BA  6EDF               	movwf	indf2,c
  5105  0023BC                     
  5106                           ;../../lib_misc/date_time.c: 49:         datetime_increase_hours(t);
  5107  0023BC  C025  F022         	movff	datetime_increase_minutes@t,datetime_increase_hours@t
  5108  0023C0  C026  F023         	movff	datetime_increase_minutes@t+1,datetime_increase_hours@t+1
  5109  0023C4  EC75  F012         	call	_datetime_increase_hours	;wreg free
  5110                           
  5111                           ;../../lib_misc/date_time.c: 50:     }
  5112  0023C8  EFEE  F011         	goto	l603
  5113  0023CC                     l4427:
  5114  0023CC  FFFF               	dw	65535	; assembler added errata NOP
  5115                           
  5116                           ;../../lib_misc/date_time.c: 52:     {;../../lib_misc/date_time.c: 53:         t->min++;
  5117  0023CE  EE20 F001          	lfsr	2,1
  5118  0023D2  5025               	movf	datetime_increase_minutes@t^0,w,c
  5119  0023D4  26D9               	addwf	fsr2l,f,c
  5120  0023D6  5026               	movf	(datetime_increase_minutes@t+1)^0,w,c
  5121  0023D8  22DA               	addwfc	fsr2h,f,c
  5122  0023DA  2ADF               	incf	indf2,f,c
  5123  0023DC                     l603:
  5124  0023DC  FFFF               	dw	65535	; assembler added errata NOP
  5125  0023DE  0012               	return		;funcret
  5126  0023E0  FFFF               	dw	65535	; errata NOP
  5127  0023E2                     __end_of_datetime_increase_minutes:
  5128                           	opt callstack 0
  5129                           
  5130 ;; *************** function _datetime_increase_hours *****************
  5131 ;; Defined at:
  5132 ;;		line 70 in file "../../lib_misc/date_time.c"
  5133 ;; Parameters:    Size  Location     Type
  5134 ;;  t               2   33[COMRAM] PTR struct .
  5135 ;;		 -> t(7), 
  5136 ;; Auto vars:     Size  Location     Type
  5137 ;;		None
  5138 ;; Return value:  Size  Location     Type
  5139 ;;                  1    wreg      void 
  5140 ;; Registers used:
  5141 ;;		wreg, fsr2l, fsr2h, status,2, status,0, cstack
  5142 ;; Tracked objects:
  5143 ;;		On entry : 0/0
  5144 ;;		On exit  : 0/0
  5145 ;;		Unchanged: 0/0
  5146 ;; Data sizes:     COMRAM   BANK0   BANK1   BANK2   BANK3   BANK4   BANK5
  5147 ;;      Params:         2       0       0       0       0       0       0
  5148 ;;      Locals:         0       0       0       0       0       0       0
  5149 ;;      Temps:          1       0       0       0       0       0       0
  5150 ;;      Totals:         3       0       0       0       0       0       0
  5151 ;;Total ram usage:        3 bytes
  5152 ;; Hardware stack levels used:    1
  5153 ;; Hardware stack levels required when called:    6
  5154 ;; This function calls:
  5155 ;;		_datetime_increase_days
  5156 ;; This function is called by:
  5157 ;;		_main
  5158 ;;		_datetime_increase_minutes
  5159 ;; This function uses a non-reentrant model
  5160 ;;
  5161                           
  5162                           	psect	text18
  5163  0024EA                     __ptext18:
  5164                           	opt callstack 0
  5165  0024EA                     _datetime_increase_hours:
  5166                           	opt callstack 0
  5167  0024EA  FFFF               	dw	65535	; assembler added errata NOP
  5168  0024EC                     
  5169                           ;../../lib_misc/date_time.c: 70: void datetime_increase_hours(date_time_t *t);../../lib_
      +                          misc/date_time.c: 71: {;../../lib_misc/date_time.c: 72:     if (t->hrs >= 23)
  5170  0024EC  C022  FFD9         	movff	datetime_increase_hours@t,fsr2l
  5171  0024F0  C023  FFDA         	movff	datetime_increase_hours@t+1,fsr2h
  5172  0024F4  0E16               	movlw	22
  5173  0024F6  64DF               	cpfsgt	indf2,c
  5174  0024F8  EF80  F012         	goto	u3331
  5175  0024FC  EF83  F012         	goto	u3330
  5176  002500                     u3331:
  5177  002500  FFFF               	dw	65535	; assembler added errata NOP
  5178  002502  EF92  F012         	goto	l3677
  5179  002506                     u3330:
  5180  002506  FFFF               	dw	65535	; assembler added errata NOP
  5181  002508                     
  5182                           ;../../lib_misc/date_time.c: 73:     {;../../lib_misc/date_time.c: 74:         t->hrs = 
      +                          0;
  5183  002508  C022  FFD9         	movff	datetime_increase_hours@t,fsr2l
  5184  00250C  C023  FFDA         	movff	datetime_increase_hours@t+1,fsr2h
  5185  002510  0E00               	movlw	0
  5186  002512  6EDF               	movwf	indf2,c
  5187  002514                     
  5188                           ;../../lib_misc/date_time.c: 75:         datetime_increase_days(t);
  5189  002514  C022  F01F         	movff	datetime_increase_hours@t,datetime_increase_days@t
  5190  002518  C023  F020         	movff	datetime_increase_hours@t+1,datetime_increase_days@t+1
  5191  00251C  EC9B  F012         	call	_datetime_increase_days	;wreg free
  5192                           
  5193                           ;../../lib_misc/date_time.c: 76:     }
  5194  002520  EF98  F012         	goto	l613
  5195  002524                     l3677:
  5196  002524  FFFF               	dw	65535	; assembler added errata NOP
  5197                           
  5198                           ;../../lib_misc/date_time.c: 78:     {;../../lib_misc/date_time.c: 79:         t->hrs++;
  5199  002526  C022  FFD9         	movff	datetime_increase_hours@t,fsr2l
  5200  00252A  C023  FFDA         	movff	datetime_increase_hours@t+1,fsr2h
  5201  00252E  2ADF               	incf	indf2,f,c
  5202  002530                     l613:
  5203  002530  FFFF               	dw	65535	; assembler added errata NOP
  5204  002532  0012               	return		;funcret
  5205  002534  FFFF               	dw	65535	; errata NOP
  5206  002536                     __end_of_datetime_increase_hours:
  5207                           	opt callstack 0
  5208                           
  5209 ;; *************** function _datetime_increase_days *****************
  5210 ;; Defined at:
  5211 ;;		line 95 in file "../../lib_misc/date_time.c"
  5212 ;; Parameters:    Size  Location     Type
  5213 ;;  t               2   30[COMRAM] PTR struct .
  5214 ;;		 -> t(7), 
  5215 ;; Auto vars:     Size  Location     Type
  5216 ;;		None
  5217 ;; Return value:  Size  Location     Type
  5218 ;;                  1    wreg      void 
  5219 ;; Registers used:
  5220 ;;		wreg, fsr2l, fsr2h, status,2, status,0
  5221 ;; Tracked objects:
  5222 ;;		On entry : 0/0
  5223 ;;		On exit  : 0/0
  5224 ;;		Unchanged: 0/0
  5225 ;; Data sizes:     COMRAM   BANK0   BANK1   BANK2   BANK3   BANK4   BANK5
  5226 ;;      Params:         2       0       0       0       0       0       0
  5227 ;;      Locals:         0       0       0       0       0       0       0
  5228 ;;      Temps:          1       0       0       0       0       0       0
  5229 ;;      Totals:         3       0       0       0       0       0       0
  5230 ;;Total ram usage:        3 bytes
  5231 ;; Hardware stack levels used:    1
  5232 ;; Hardware stack levels required when called:    5
  5233 ;; This function calls:
  5234 ;;		Nothing
  5235 ;; This function is called by:
  5236 ;;		_datetime_increase_hours
  5237 ;; This function uses a non-reentrant model
  5238 ;;
  5239                           
  5240                           	psect	text19
  5241  002536                     __ptext19:
  5242                           	opt callstack 0
  5243  002536                     _datetime_increase_days:
  5244                           	opt callstack 0
  5245  002536  FFFF               	dw	65535	; assembler added errata NOP
  5246  002538                     
  5247                           ;../../lib_misc/date_time.c: 95: void datetime_increase_days(date_time_t *t);../../lib_m
      +                          isc/date_time.c: 96: {;../../lib_misc/date_time.c: 97:     if (t->day >= 23)
  5248  002538  EE20 F004          	lfsr	2,4
  5249  00253C  501F               	movf	datetime_increase_days@t^0,w,c
  5250  00253E  26D9               	addwf	fsr2l,f,c
  5251  002540  5020               	movf	(datetime_increase_days@t+1)^0,w,c
  5252  002542  22DA               	addwfc	fsr2h,f,c
  5253  002544  0E16               	movlw	22
  5254  002546  64DF               	cpfsgt	indf2,c
  5255  002548  EFA8  F012         	goto	u3141
  5256  00254C  EFAB  F012         	goto	u3140
  5257  002550                     u3141:
  5258  002550  FFFF               	dw	65535	; assembler added errata NOP
  5259  002552  EFB6  F012         	goto	l3537
  5260  002556                     u3140:
  5261  002556  FFFF               	dw	65535	; assembler added errata NOP
  5262  002558                     
  5263                           ;../../lib_misc/date_time.c: 98:     {;../../lib_misc/date_time.c: 99:         t->day = 
      +                          0;
  5264  002558  EE20 F004          	lfsr	2,4
  5265  00255C  501F               	movf	datetime_increase_days@t^0,w,c
  5266  00255E  26D9               	addwf	fsr2l,f,c
  5267  002560  5020               	movf	(datetime_increase_days@t+1)^0,w,c
  5268  002562  22DA               	addwfc	fsr2h,f,c
  5269  002564  0E00               	movlw	0
  5270  002566  6EDF               	movwf	indf2,c
  5271                           
  5272                           ;../../lib_misc/date_time.c: 100:     }
  5273  002568  EFBE  F012         	goto	l623
  5274  00256C                     l3537:
  5275  00256C  FFFF               	dw	65535	; assembler added errata NOP
  5276                           
  5277                           ;../../lib_misc/date_time.c: 102:     {;../../lib_misc/date_time.c: 103:         t->day+
      +                          +;
  5278  00256E  EE20 F004          	lfsr	2,4
  5279  002572  501F               	movf	datetime_increase_days@t^0,w,c
  5280  002574  26D9               	addwf	fsr2l,f,c
  5281  002576  5020               	movf	(datetime_increase_days@t+1)^0,w,c
  5282  002578  22DA               	addwfc	fsr2h,f,c
  5283  00257A  2ADF               	incf	indf2,f,c
  5284  00257C                     l623:
  5285  00257C  FFFF               	dw	65535	; assembler added errata NOP
  5286  00257E  0012               	return		;funcret
  5287  002580  FFFF               	dw	65535	; errata NOP
  5288  002582                     __end_of_datetime_increase_days:
  5289                           	opt callstack 0
  5290                           
  5291 ;; *************** function _datetime_decrease_minutes *****************
  5292 ;; Defined at:
  5293 ;;		line 31 in file "../../lib_misc/date_time.c"
  5294 ;; Parameters:    Size  Location     Type
  5295 ;;  t               2   34[COMRAM] PTR struct .
  5296 ;;		 -> t(7), 
  5297 ;; Auto vars:     Size  Location     Type
  5298 ;;		None
  5299 ;; Return value:  Size  Location     Type
  5300 ;;                  1    wreg      void 
  5301 ;; Registers used:
  5302 ;;		wreg, fsr2l, fsr2h, status,2, status,0, cstack
  5303 ;; Tracked objects:
  5304 ;;		On entry : 0/0
  5305 ;;		On exit  : 0/0
  5306 ;;		Unchanged: 0/0
  5307 ;; Data sizes:     COMRAM   BANK0   BANK1   BANK2   BANK3   BANK4   BANK5
  5308 ;;      Params:         2       0       0       0       0       0       0
  5309 ;;      Locals:         0       0       0       0       0       0       0
  5310 ;;      Temps:          0       0       0       0       0       0       0
  5311 ;;      Totals:         2       0       0       0       0       0       0
  5312 ;;Total ram usage:        2 bytes
  5313 ;; Hardware stack levels used:    1
  5314 ;; Hardware stack levels required when called:    7
  5315 ;; This function calls:
  5316 ;;		_datetime_decrease_hours
  5317 ;; This function is called by:
  5318 ;;		_main
  5319 ;;		_datetime_decrease_seconds
  5320 ;; This function uses a non-reentrant model
  5321 ;;
  5322                           
  5323                           	psect	text20
  5324  0023E2                     __ptext20:
  5325                           	opt callstack 0
  5326  0023E2                     _datetime_decrease_minutes:
  5327                           	opt callstack 23
  5328  0023E2  FFFF               	dw	65535	; assembler added errata NOP
  5329                           
  5330                           ;../../lib_misc/date_time.c: 31: void datetime_decrease_minutes(date_time_t *t);../../li
      +                          b_misc/date_time.c: 32: {;../../lib_misc/date_time.c: 33:     if (t->min == 0)
  5331  0023E4  EE20 F001          	lfsr	2,1
  5332  0023E8  5023               	movf	datetime_decrease_minutes@t^0,w,c
  5333  0023EA  26D9               	addwf	fsr2l,f,c
  5334  0023EC  5024               	movf	(datetime_decrease_minutes@t+1)^0,w,c
  5335  0023EE  22DA               	addwfc	fsr2h,f,c
  5336  0023F0  50DF               	movf	indf2,w,c
  5337  0023F2  A4D8               	btfss	status,2,c
  5338  0023F4  EFFE  F011         	goto	u4661
  5339  0023F8  EF01  F012         	goto	u4660
  5340  0023FC                     u4661:
  5341  0023FC  FFFF               	dw	65535	; assembler added errata NOP
  5342  0023FE  EF12  F012         	goto	l4435
  5343  002402                     u4660:
  5344  002402  FFFF               	dw	65535	; assembler added errata NOP
  5345  002404                     
  5346                           ;../../lib_misc/date_time.c: 34:     {;../../lib_misc/date_time.c: 35:         t->min = 
      +                          59;
  5347  002404  EE20 F001          	lfsr	2,1
  5348  002408  5023               	movf	datetime_decrease_minutes@t^0,w,c
  5349  00240A  26D9               	addwf	fsr2l,f,c
  5350  00240C  5024               	movf	(datetime_decrease_minutes@t+1)^0,w,c
  5351  00240E  22DA               	addwfc	fsr2h,f,c
  5352  002410  0E3B               	movlw	59
  5353  002412  6EDF               	movwf	indf2,c
  5354  002414                     
  5355                           ;../../lib_misc/date_time.c: 36:         datetime_decrease_hours(t);
  5356  002414  C023  F021         	movff	datetime_decrease_minutes@t,datetime_decrease_hours@t
  5357  002418  C024  F022         	movff	datetime_decrease_minutes@t+1,datetime_decrease_hours@t+1
  5358  00241C  ECC1  F012         	call	_datetime_decrease_hours	;wreg free
  5359                           
  5360                           ;../../lib_misc/date_time.c: 37:     }
  5361  002420  EF1A  F012         	goto	l598
  5362  002424                     l4435:
  5363  002424  FFFF               	dw	65535	; assembler added errata NOP
  5364                           
  5365                           ;../../lib_misc/date_time.c: 39:     {;../../lib_misc/date_time.c: 40:         t->min--;
  5366  002426  EE20 F001          	lfsr	2,1
  5367  00242A  5023               	movf	datetime_decrease_minutes@t^0,w,c
  5368  00242C  26D9               	addwf	fsr2l,f,c
  5369  00242E  5024               	movf	(datetime_decrease_minutes@t+1)^0,w,c
  5370  002430  22DA               	addwfc	fsr2h,f,c
  5371  002432  06DF               	decf	indf2,f,c
  5372  002434                     l598:
  5373  002434  FFFF               	dw	65535	; assembler added errata NOP
  5374  002436  0012               	return		;funcret
  5375  002438  FFFF               	dw	65535	; errata NOP
  5376  00243A                     __end_of_datetime_decrease_minutes:
  5377                           	opt callstack 0
  5378                           
  5379 ;; *************** function _datetime_decrease_hours *****************
  5380 ;; Defined at:
  5381 ;;		line 57 in file "../../lib_misc/date_time.c"
  5382 ;; Parameters:    Size  Location     Type
  5383 ;;  t               2   32[COMRAM] PTR struct .
  5384 ;;		 -> t(7), 
  5385 ;; Auto vars:     Size  Location     Type
  5386 ;;		None
  5387 ;; Return value:  Size  Location     Type
  5388 ;;                  1    wreg      void 
  5389 ;; Registers used:
  5390 ;;		wreg, fsr2l, fsr2h, status,2, status,0, cstack
  5391 ;; Tracked objects:
  5392 ;;		On entry : 0/0
  5393 ;;		On exit  : 0/0
  5394 ;;		Unchanged: 0/0
  5395 ;; Data sizes:     COMRAM   BANK0   BANK1   BANK2   BANK3   BANK4   BANK5
  5396 ;;      Params:         2       0       0       0       0       0       0
  5397 ;;      Locals:         0       0       0       0       0       0       0
  5398 ;;      Temps:          0       0       0       0       0       0       0
  5399 ;;      Totals:         2       0       0       0       0       0       0
  5400 ;;Total ram usage:        2 bytes
  5401 ;; Hardware stack levels used:    1
  5402 ;; Hardware stack levels required when called:    6
  5403 ;; This function calls:
  5404 ;;		_datetime_decrease_days
  5405 ;; This function is called by:
  5406 ;;		_main
  5407 ;;		_datetime_decrease_minutes
  5408 ;; This function uses a non-reentrant model
  5409 ;;
  5410                           
  5411                           	psect	text21
  5412  002582                     __ptext21:
  5413                           	opt callstack 0
  5414  002582                     _datetime_decrease_hours:
  5415                           	opt callstack 0
  5416  002582  FFFF               	dw	65535	; assembler added errata NOP
  5417  002584                     
  5418                           ;../../lib_misc/date_time.c: 57: void datetime_decrease_hours(date_time_t *t);../../lib_
      +                          misc/date_time.c: 58: {;../../lib_misc/date_time.c: 59:     if (t->hrs == 0)
  5419  002584  C021  FFD9         	movff	datetime_decrease_hours@t,fsr2l
  5420  002588  C022  FFDA         	movff	datetime_decrease_hours@t+1,fsr2h
  5421  00258C  50DF               	movf	indf2,w,c
  5422  00258E  A4D8               	btfss	status,2,c
  5423  002590  EFCC  F012         	goto	u3341
  5424  002594  EFCF  F012         	goto	u3340
  5425  002598                     u3341:
  5426  002598  FFFF               	dw	65535	; assembler added errata NOP
  5427  00259A  EFDE  F012         	goto	l3685
  5428  00259E                     u3340:
  5429  00259E  FFFF               	dw	65535	; assembler added errata NOP
  5430  0025A0                     
  5431                           ;../../lib_misc/date_time.c: 60:     {;../../lib_misc/date_time.c: 61:         t->hrs = 
      +                          23;
  5432  0025A0  C021  FFD9         	movff	datetime_decrease_hours@t,fsr2l
  5433  0025A4  C022  FFDA         	movff	datetime_decrease_hours@t+1,fsr2h
  5434  0025A8  0E17               	movlw	23
  5435  0025AA  6EDF               	movwf	indf2,c
  5436  0025AC                     
  5437                           ;../../lib_misc/date_time.c: 62:         datetime_decrease_days(t);
  5438  0025AC  C021  F01F         	movff	datetime_decrease_hours@t,datetime_decrease_days@t
  5439  0025B0  C022  F020         	movff	datetime_decrease_hours@t+1,datetime_decrease_days@t+1
  5440  0025B4  ECE7  F012         	call	_datetime_decrease_days	;wreg free
  5441                           
  5442                           ;../../lib_misc/date_time.c: 63:     }
  5443  0025B8  EFE4  F012         	goto	l608
  5444  0025BC                     l3685:
  5445  0025BC  FFFF               	dw	65535	; assembler added errata NOP
  5446                           
  5447                           ;../../lib_misc/date_time.c: 65:     {;../../lib_misc/date_time.c: 66:         t->hrs--;
  5448  0025BE  C021  FFD9         	movff	datetime_decrease_hours@t,fsr2l
  5449  0025C2  C022  FFDA         	movff	datetime_decrease_hours@t+1,fsr2h
  5450  0025C6  06DF               	decf	indf2,f,c
  5451  0025C8                     l608:
  5452  0025C8  FFFF               	dw	65535	; assembler added errata NOP
  5453  0025CA  0012               	return		;funcret
  5454  0025CC  FFFF               	dw	65535	; errata NOP
  5455  0025CE                     __end_of_datetime_decrease_hours:
  5456                           	opt callstack 0
  5457                           
  5458 ;; *************** function _datetime_decrease_days *****************
  5459 ;; Defined at:
  5460 ;;		line 83 in file "../../lib_misc/date_time.c"
  5461 ;; Parameters:    Size  Location     Type
  5462 ;;  t               2   30[COMRAM] PTR struct .
  5463 ;;		 -> t(7), 
  5464 ;; Auto vars:     Size  Location     Type
  5465 ;;		None
  5466 ;; Return value:  Size  Location     Type
  5467 ;;                  1    wreg      void 
  5468 ;; Registers used:
  5469 ;;		wreg, fsr2l, fsr2h, status,2, status,0
  5470 ;; Tracked objects:
  5471 ;;		On entry : 0/0
  5472 ;;		On exit  : 0/0
  5473 ;;		Unchanged: 0/0
  5474 ;; Data sizes:     COMRAM   BANK0   BANK1   BANK2   BANK3   BANK4   BANK5
  5475 ;;      Params:         2       0       0       0       0       0       0
  5476 ;;      Locals:         0       0       0       0       0       0       0
  5477 ;;      Temps:          0       0       0       0       0       0       0
  5478 ;;      Totals:         2       0       0       0       0       0       0
  5479 ;;Total ram usage:        2 bytes
  5480 ;; Hardware stack levels used:    1
  5481 ;; Hardware stack levels required when called:    5
  5482 ;; This function calls:
  5483 ;;		Nothing
  5484 ;; This function is called by:
  5485 ;;		_datetime_decrease_hours
  5486 ;; This function uses a non-reentrant model
  5487 ;;
  5488                           
  5489                           	psect	text22
  5490  0025CE                     __ptext22:
  5491                           	opt callstack 0
  5492  0025CE                     _datetime_decrease_days:
  5493                           	opt callstack 0
  5494  0025CE  FFFF               	dw	65535	; assembler added errata NOP
  5495  0025D0                     
  5496                           ;../../lib_misc/date_time.c: 83: void datetime_decrease_days(date_time_t *t);../../lib_m
      +                          isc/date_time.c: 84: {;../../lib_misc/date_time.c: 85:     if (t->day == 0)
  5497  0025D0  EE20 F004          	lfsr	2,4
  5498  0025D4  501F               	movf	datetime_decrease_days@t^0,w,c
  5499  0025D6  26D9               	addwf	fsr2l,f,c
  5500  0025D8  5020               	movf	(datetime_decrease_days@t+1)^0,w,c
  5501  0025DA  22DA               	addwfc	fsr2h,f,c
  5502  0025DC  50DF               	movf	indf2,w,c
  5503  0025DE  A4D8               	btfss	status,2,c
  5504  0025E0  EFF4  F012         	goto	u3131
  5505  0025E4  EFF7  F012         	goto	u3130
  5506  0025E8                     u3131:
  5507  0025E8  FFFF               	dw	65535	; assembler added errata NOP
  5508  0025EA  EF02  F013         	goto	l3531
  5509  0025EE                     u3130:
  5510  0025EE  FFFF               	dw	65535	; assembler added errata NOP
  5511  0025F0                     
  5512                           ;../../lib_misc/date_time.c: 86:     {;../../lib_misc/date_time.c: 87:         t->day = 
      +                          23;
  5513  0025F0  EE20 F004          	lfsr	2,4
  5514  0025F4  501F               	movf	datetime_decrease_days@t^0,w,c
  5515  0025F6  26D9               	addwf	fsr2l,f,c
  5516  0025F8  5020               	movf	(datetime_decrease_days@t+1)^0,w,c
  5517  0025FA  22DA               	addwfc	fsr2h,f,c
  5518  0025FC  0E17               	movlw	23
  5519  0025FE  6EDF               	movwf	indf2,c
  5520                           
  5521                           ;../../lib_misc/date_time.c: 88:     }
  5522  002600  EF0A  F013         	goto	l618
  5523  002604                     l3531:
  5524  002604  FFFF               	dw	65535	; assembler added errata NOP
  5525                           
  5526                           ;../../lib_misc/date_time.c: 90:     {;../../lib_misc/date_time.c: 91:         t->day--;
  5527  002606  EE20 F004          	lfsr	2,4
  5528  00260A  501F               	movf	datetime_decrease_days@t^0,w,c
  5529  00260C  26D9               	addwf	fsr2l,f,c
  5530  00260E  5020               	movf	(datetime_decrease_days@t+1)^0,w,c
  5531  002610  22DA               	addwfc	fsr2h,f,c
  5532  002612  06DF               	decf	indf2,f,c
  5533  002614                     l618:
  5534  002614  FFFF               	dw	65535	; assembler added errata NOP
  5535  002616  0012               	return		;funcret
  5536  002618  FFFF               	dw	65535	; errata NOP
  5537  00261A                     __end_of_datetime_decrease_days:
  5538                           	opt callstack 0
  5539                           
  5540 ;; *************** function _timer2_irq *****************
  5541 ;; Defined at:
  5542 ;;		line 58 in file "main.c"
  5543 ;; Parameters:    Size  Location     Type
  5544 ;;		None
  5545 ;; Auto vars:     Size  Location     Type
  5546 ;;		None
  5547 ;; Return value:  Size  Location     Type
  5548 ;;                  1    wreg      void 
  5549 ;; Registers used:
  5550 ;;		wreg, fsr0l, fsr0h, fsr2l, fsr2h, status,2, status,0, prodl, prodh, cstack
  5551 ;; Tracked objects:
  5552 ;;		On entry : 0/0
  5553 ;;		On exit  : 0/0
  5554 ;;		Unchanged: 0/0
  5555 ;; Data sizes:     COMRAM   BANK0   BANK1   BANK2   BANK3   BANK4   BANK5
  5556 ;;      Params:         0       0       0       0       0       0       0
  5557 ;;      Locals:         0       0       0       0       0       0       0
  5558 ;;      Temps:          7       0       0       0       0       0       0
  5559 ;;      Totals:         7       0       0       0       0       0       0
  5560 ;;Total ram usage:        7 bytes
  5561 ;; Hardware stack levels used:    1
  5562 ;; Hardware stack levels required when called:    4
  5563 ;; This function calls:
  5564 ;;		_datetime_increase_seconds
  5565 ;;		_ds1307_set_time
  5566 ;; This function is called by:
  5567 ;;		Interrupt level 2
  5568 ;; This function uses a non-reentrant model
  5569 ;;
  5570                           
  5571                           	psect	intcode
  5572  000008                     __pintcode:
  5573                           	opt callstack 0
  5574  000008                     _timer2_irq:
  5575                           	opt callstack 0
  5576  000008  FFFF               	dw	65535	; assembler added errata NOP
  5577                           
  5578                           ;incstack = 0
  5579  00000A  8261               	bsf	int$flags,1,c	;set compiler interrupt flag (level 2)
  5580  00000C  CFE9 F019          	movff	fsr0l,??_timer2_irq+1
  5581  000010  CFEA F01A          	movff	fsr0h,??_timer2_irq+2
  5582  000014  CFD9 F01B          	movff	fsr2l,??_timer2_irq+3
  5583  000018  CFDA F01C          	movff	fsr2h,??_timer2_irq+4
  5584  00001C  CFF3 F01D          	movff	prodl,??_timer2_irq+5
  5585  000020  CFF4 F01E          	movff	prodh,??_timer2_irq+6
  5586  000024                     
  5587                           ;main.c: 60:     static u32 CntTmrLedSec = 0;;main.c: 61:     static u32 CntTmrIncSec = 
      +                          0;;main.c: 63:     T2CONbits.TMR2ON = 0;
  5588  000024  94CA               	bcf	202,2,c	;volatile
  5589                           
  5590                           ;main.c: 64:     PIR1bits.TMR2IF = 0;
  5591  000026  929E               	bcf	158,1,c	;volatile
  5592                           
  5593                           ;main.c: 66:     {__nop(); __nop(); __nop(); __nop(); __nop(); __nop(); __nop(); __nop()
      +                          ; __nop(); __nop();}; {__nop(); __nop(); __nop(); __nop(); __nop(); __nop(); __nop(); __
      +                          nop(); __nop(); __nop();}; {__nop(); __nop(); __nop(); __nop(); __nop(); __nop(); __nop(
      +                          ); __nop(); __nop(); __nop();}; {__nop(); __nop(); __nop(); __nop(); __nop(); __nop(); _
      +                          _nop(); __nop(); __nop(); __nop();}; {__nop(); __nop(); __nop(); __nop(); __nop(); __nop
      +                          (); __nop(); __nop(); __nop(); __nop();}; {__nop(); __nop(); __nop(); __nop(); __nop(); 
      +                          __nop(); __nop(); __nop(); __nop(); __nop();}; {__nop(); __nop(); __nop(); __nop(); __no
      +                          p(); __nop(); __nop(); __nop(); __nop(); __nop();}; {__nop(); __nop(); __nop(); __nop();
      +                           __nop(); __nop(); __nop(); __nop(); __nop(); __nop();};
  5594  000028  F000               	nop	
  5595  00002A  F000               	nop	
  5596  00002C  F000               	nop	
  5597  00002E  F000               	nop	
  5598  000030  F000               	nop	
  5599  000032  F000               	nop	
  5600  000034  F000               	nop	
  5601  000036  F000               	nop	
  5602  000038  F000               	nop	
  5603  00003A  F000               	nop	
  5604  00003C  F000               	nop	
  5605  00003E  F000               	nop	
  5606  000040  F000               	nop	
  5607  000042  F000               	nop	
  5608  000044  F000               	nop	
  5609  000046  F000               	nop	
  5610  000048  F000               	nop	
  5611  00004A  F000               	nop	
  5612  00004C  F000               	nop	
  5613  00004E  F000               	nop	
  5614  000050  F000               	nop	
  5615  000052  F000               	nop	
  5616  000054  F000               	nop	
  5617  000056  F000               	nop	
  5618  000058  F000               	nop	
  5619  00005A  F000               	nop	
  5620  00005C  F000               	nop	
  5621  00005E  F000               	nop	
  5622  000060  F000               	nop	
  5623  000062  F000               	nop	
  5624  000064  F000               	nop	
  5625  000066  F000               	nop	
  5626  000068  F000               	nop	
  5627  00006A  F000               	nop	
  5628  00006C  F000               	nop	
  5629  00006E  F000               	nop	
  5630  000070  F000               	nop	
  5631  000072  F000               	nop	
  5632  000074  F000               	nop	
  5633  000076  F000               	nop	
  5634  000078  F000               	nop	
  5635  00007A  F000               	nop	
  5636  00007C  F000               	nop	
  5637  00007E  F000               	nop	
  5638  000080  F000               	nop	
  5639  000082  F000               	nop	
  5640  000084  F000               	nop	
  5641  000086  F000               	nop	
  5642  000088  F000               	nop	
  5643  00008A  F000               	nop	
  5644  00008C  F000               	nop	
  5645  00008E  F000               	nop	
  5646  000090  F000               	nop	
  5647  000092  F000               	nop	
  5648  000094  F000               	nop	
  5649  000096  F000               	nop	
  5650  000098  F000               	nop	
  5651  00009A  F000               	nop	
  5652  00009C  F000               	nop	
  5653  00009E  F000               	nop	
  5654  0000A0  F000               	nop	
  5655  0000A2  F000               	nop	
  5656  0000A4  F000               	nop	
  5657  0000A6  F000               	nop	
  5658  0000A8  F000               	nop	
  5659  0000AA  F000               	nop	
  5660  0000AC  F000               	nop	
  5661  0000AE  F000               	nop	
  5662  0000B0  F000               	nop	
  5663  0000B2  F000               	nop	
  5664  0000B4  F000               	nop	
  5665  0000B6  F000               	nop	
  5666  0000B8  F000               	nop	
  5667  0000BA  F000               	nop	
  5668  0000BC  F000               	nop	
  5669  0000BE  F000               	nop	
  5670  0000C0  F000               	nop	
  5671  0000C2  F000               	nop	
  5672  0000C4  F000               	nop	
  5673  0000C6  F000               	nop	
  5674                           
  5675                           ;main.c: 67:     {__nop(); __nop(); __nop(); __nop(); __nop(); __nop(); __nop(); __nop()
      +                          ; __nop(); __nop();}; {__nop(); __nop(); __nop(); __nop(); __nop(); __nop(); __nop(); __
      +                          nop(); __nop(); __nop();}; {__nop(); __nop(); __nop(); __nop(); __nop(); __nop(); __nop(
      +                          ); __nop(); __nop(); __nop();}; {__nop(); __nop(); __nop(); __nop(); __nop(); __nop(); _
      +                          _nop(); __nop(); __nop(); __nop();}; {__nop(); __nop(); __nop(); __nop(); __nop(); __nop
      +                          (); __nop(); __nop(); __nop(); __nop();}; {__nop(); __nop(); __nop(); __nop(); __nop(); 
      +                          __nop(); __nop(); __nop(); __nop(); __nop();}; {__nop(); __nop(); __nop(); __nop(); __no
      +                          p(); __nop(); __nop(); __nop(); __nop(); __nop();}; {__nop(); __nop(); __nop(); __nop();
      +                           __nop(); __nop(); __nop(); __nop(); __nop(); __nop();};
  5676  0000C8  F000               	nop	
  5677  0000CA  F000               	nop	
  5678  0000CC  F000               	nop	
  5679  0000CE  F000               	nop	
  5680  0000D0  F000               	nop	
  5681  0000D2  F000               	nop	
  5682  0000D4  F000               	nop	
  5683  0000D6  F000               	nop	
  5684  0000D8  F000               	nop	
  5685  0000DA  F000               	nop	
  5686  0000DC  F000               	nop	
  5687  0000DE  F000               	nop	
  5688  0000E0  F000               	nop	
  5689  0000E2  F000               	nop	
  5690  0000E4  F000               	nop	
  5691  0000E6  F000               	nop	
  5692  0000E8  F000               	nop	
  5693  0000EA  F000               	nop	
  5694  0000EC  F000               	nop	
  5695  0000EE  F000               	nop	
  5696  0000F0  F000               	nop	
  5697  0000F2  F000               	nop	
  5698  0000F4  F000               	nop	
  5699  0000F6  F000               	nop	
  5700  0000F8  F000               	nop	
  5701  0000FA  F000               	nop	
  5702  0000FC  F000               	nop	
  5703  0000FE  F000               	nop	
  5704  000100  F000               	nop	
  5705  000102  F000               	nop	
  5706  000104  F000               	nop	
  5707  000106  F000               	nop	
  5708  000108  F000               	nop	
  5709  00010A  F000               	nop	
  5710  00010C  F000               	nop	
  5711  00010E  F000               	nop	
  5712  000110  F000               	nop	
  5713  000112  F000               	nop	
  5714  000114  F000               	nop	
  5715  000116  F000               	nop	
  5716  000118  F000               	nop	
  5717  00011A  F000               	nop	
  5718  00011C  F000               	nop	
  5719  00011E  F000               	nop	
  5720  000120  F000               	nop	
  5721  000122  F000               	nop	
  5722  000124  F000               	nop	
  5723  000126  F000               	nop	
  5724  000128  F000               	nop	
  5725  00012A  F000               	nop	
  5726  00012C  F000               	nop	
  5727  00012E  F000               	nop	
  5728  000130  F000               	nop	
  5729  000132  F000               	nop	
  5730  000134  F000               	nop	
  5731  000136  F000               	nop	
  5732  000138  F000               	nop	
  5733  00013A  F000               	nop	
  5734  00013C  F000               	nop	
  5735  00013E  F000               	nop	
  5736  000140  F000               	nop	
  5737  000142  F000               	nop	
  5738  000144  F000               	nop	
  5739  000146  F000               	nop	
  5740  000148  F000               	nop	
  5741  00014A  F000               	nop	
  5742  00014C  F000               	nop	
  5743  00014E  F000               	nop	
  5744  000150  F000               	nop	
  5745  000152  F000               	nop	
  5746  000154  F000               	nop	
  5747  000156  F000               	nop	
  5748  000158  F000               	nop	
  5749  00015A  F000               	nop	
  5750  00015C  F000               	nop	
  5751  00015E  F000               	nop	
  5752  000160  F000               	nop	
  5753  000162  F000               	nop	
  5754  000164  F000               	nop	
  5755  000166  F000               	nop	
  5756                           
  5757                           ;main.c: 68:     {__nop(); __nop(); __nop(); __nop(); __nop(); __nop(); __nop(); __nop()
      +                          ; __nop(); __nop();}; {__nop(); __nop(); __nop(); __nop(); __nop(); __nop(); __nop(); __
      +                          nop(); __nop(); __nop();}; {__nop(); __nop(); __nop(); __nop(); __nop(); __nop(); __nop(
      +                          ); __nop(); __nop(); __nop();}; {__nop(); __nop(); __nop(); __nop(); __nop(); __nop(); _
      +                          _nop(); __nop(); __nop(); __nop();}; {__nop(); __nop(); __nop(); __nop(); __nop(); __nop
      +                          (); __nop(); __nop(); __nop(); __nop();}; {__nop(); __nop(); __nop(); __nop(); __nop(); 
      +                          __nop(); __nop(); __nop(); __nop(); __nop();}; {__nop(); __nop(); __nop(); __nop(); __no
      +                          p(); __nop(); __nop(); __nop(); __nop(); __nop();}; {__nop(); __nop(); __nop(); __nop();
      +                           __nop(); __nop(); __nop(); __nop(); __nop(); __nop();};
  5758  000168  F000               	nop	
  5759  00016A  F000               	nop	
  5760  00016C  F000               	nop	
  5761  00016E  F000               	nop	
  5762  000170  F000               	nop	
  5763  000172  F000               	nop	
  5764  000174  F000               	nop	
  5765  000176  F000               	nop	
  5766  000178  F000               	nop	
  5767  00017A  F000               	nop	
  5768  00017C  F000               	nop	
  5769  00017E  F000               	nop	
  5770  000180  F000               	nop	
  5771  000182  F000               	nop	
  5772  000184  F000               	nop	
  5773  000186  F000               	nop	
  5774  000188  F000               	nop	
  5775  00018A  F000               	nop	
  5776  00018C  F000               	nop	
  5777  00018E  F000               	nop	
  5778  000190  F000               	nop	
  5779  000192  F000               	nop	
  5780  000194  F000               	nop	
  5781  000196  F000               	nop	
  5782  000198  F000               	nop	
  5783  00019A  F000               	nop	
  5784  00019C  F000               	nop	
  5785  00019E  F000               	nop	
  5786  0001A0  F000               	nop	
  5787  0001A2  F000               	nop	
  5788  0001A4  F000               	nop	
  5789  0001A6  F000               	nop	
  5790  0001A8  F000               	nop	
  5791  0001AA  F000               	nop	
  5792  0001AC  F000               	nop	
  5793  0001AE  F000               	nop	
  5794  0001B0  F000               	nop	
  5795  0001B2  F000               	nop	
  5796  0001B4  F000               	nop	
  5797  0001B6  F000               	nop	
  5798  0001B8  F000               	nop	
  5799  0001BA  F000               	nop	
  5800  0001BC  F000               	nop	
  5801  0001BE  F000               	nop	
  5802  0001C0  F000               	nop	
  5803  0001C2  F000               	nop	
  5804  0001C4  F000               	nop	
  5805  0001C6  F000               	nop	
  5806  0001C8  F000               	nop	
  5807  0001CA  F000               	nop	
  5808  0001CC  F000               	nop	
  5809  0001CE  F000               	nop	
  5810  0001D0  F000               	nop	
  5811  0001D2  F000               	nop	
  5812  0001D4  F000               	nop	
  5813  0001D6  F000               	nop	
  5814  0001D8  F000               	nop	
  5815  0001DA  F000               	nop	
  5816  0001DC  F000               	nop	
  5817  0001DE  F000               	nop	
  5818  0001E0  F000               	nop	
  5819  0001E2  F000               	nop	
  5820  0001E4  F000               	nop	
  5821  0001E6  F000               	nop	
  5822  0001E8  F000               	nop	
  5823  0001EA  F000               	nop	
  5824  0001EC  F000               	nop	
  5825  0001EE  F000               	nop	
  5826  0001F0  F000               	nop	
  5827  0001F2  F000               	nop	
  5828  0001F4  F000               	nop	
  5829  0001F6  F000               	nop	
  5830  0001F8  F000               	nop	
  5831  0001FA  F000               	nop	
  5832  0001FC  F000               	nop	
  5833  0001FE  F000               	nop	
  5834  000200  F000               	nop	
  5835  000202  F000               	nop	
  5836  000204  F000               	nop	
  5837  000206  F000               	nop	
  5838                           
  5839                           ;main.c: 69:     {__nop(); __nop(); __nop(); __nop(); __nop(); __nop(); __nop(); __nop()
      +                          ; __nop(); __nop();}; {__nop(); __nop(); __nop(); __nop(); __nop(); __nop(); __nop(); __
      +                          nop(); __nop(); __nop();};
  5840  000208  F000               	nop	
  5841  00020A  F000               	nop	
  5842  00020C  F000               	nop	
  5843  00020E  F000               	nop	
  5844  000210  F000               	nop	
  5845  000212  F000               	nop	
  5846  000214  F000               	nop	
  5847  000216  F000               	nop	
  5848  000218  F000               	nop	
  5849  00021A  F000               	nop	
  5850  00021C  F000               	nop	
  5851  00021E  F000               	nop	
  5852  000220  F000               	nop	
  5853  000222  F000               	nop	
  5854  000224  F000               	nop	
  5855  000226  F000               	nop	
  5856  000228  F000               	nop	
  5857  00022A  F000               	nop	
  5858  00022C  F000               	nop	
  5859  00022E  F000               	nop	
  5860                           
  5861                           ;main.c: 74:     T2CONbits.TMR2ON = 1;
  5862  000230  84CA               	bsf	202,2,c	;volatile
  5863  000232                     
  5864                           ;main.c: 76:     if (CntTmrIncSec++ == 37)
  5865  000232  0E01               	movlw	1
  5866  000234  264E               	addwf	timer2_irq@CntTmrIncSec^0,f,c
  5867  000236  0E00               	movlw	0
  5868  000238  224F               	addwfc	(timer2_irq@CntTmrIncSec+1)^0,f,c
  5869  00023A  2250               	addwfc	(timer2_irq@CntTmrIncSec+2)^0,f,c
  5870  00023C  2251               	addwfc	(timer2_irq@CntTmrIncSec+3)^0,f,c
  5871  00023E  0E26               	movlw	38
  5872  000240  184E               	xorwf	timer2_irq@CntTmrIncSec^0,w,c
  5873  000242  104F               	iorwf	(timer2_irq@CntTmrIncSec+1)^0,w,c
  5874  000244  1050               	iorwf	(timer2_irq@CntTmrIncSec+2)^0,w,c
  5875  000246  1051               	iorwf	(timer2_irq@CntTmrIncSec+3)^0,w,c
  5876  000248  A4D8               	btfss	status,2,c
  5877  00024A  EF29  F001         	goto	i2u483_41
  5878  00024E  EF2C  F001         	goto	i2u483_40
  5879  000252                     i2u483_41:
  5880  000252  FFFF               	dw	65535	; assembler added errata NOP
  5881  000254  EF5A  F001         	goto	i2l4563
  5882  000258                     i2u483_40:
  5883  000258  FFFF               	dw	65535	; assembler added errata NOP
  5884  00025A                     
  5885                           ;main.c: 77:     {;main.c: 78:         t.sec++;
  5886  00025A  2A5C               	incf	(_t+2)^0,f,c
  5887  00025C                     
  5888                           ;main.c: 79:         CntTmrIncSec = 0;
  5889  00025C  0E00               	movlw	0
  5890  00025E  6E4E               	movwf	timer2_irq@CntTmrIncSec^0,c
  5891  000260  0E00               	movlw	0
  5892  000262  6E4F               	movwf	(timer2_irq@CntTmrIncSec+1)^0,c
  5893  000264  0E00               	movlw	0
  5894  000266  6E50               	movwf	(timer2_irq@CntTmrIncSec+2)^0,c
  5895  000268  0E00               	movlw	0
  5896  00026A  6E51               	movwf	(timer2_irq@CntTmrIncSec+3)^0,c
  5897  00026C                     
  5898                           ;main.c: 82:         datetime_increase_seconds(&t);
  5899  00026C  0E5A               	movlw	low _t
  5900  00026E  6E0A               	movwf	datetime_increase_seconds@t^0,c
  5901  000270  0E00               	movlw	high _t
  5902  000272  6E0B               	movwf	(datetime_increase_seconds@t+1)^0,c
  5903  000274  EC1D  F012         	call	_datetime_increase_seconds	;wreg free
  5904  000278                     
  5905                           ;main.c: 84:         if (time_has_changed){
  5906  000278  5059               	movf	_time_has_changed^0,w,c
  5907  00027A  B4D8               	btfsc	status,2,c
  5908  00027C  EF42  F001         	goto	i2u484_41
  5909  000280  EF45  F001         	goto	i2u484_40
  5910  000284                     i2u484_41:
  5911  000284  FFFF               	dw	65535	; assembler added errata NOP
  5912  000286  EF56  F001         	goto	i2l4561
  5913  00028A                     i2u484_40:
  5914  00028A  FFFF               	dw	65535	; assembler added errata NOP
  5915  00028C                     
  5916                           ;main.c: 85:             time_has_changed = 0;
  5917  00028C  0E00               	movlw	0
  5918  00028E  6E59               	movwf	_time_has_changed^0,c
  5919  000290                     
  5920                           ;main.c: 86:             ds1307_set_time(I2C_BUS_1, 0x68, t);
  5921  000290  0E68               	movlw	104
  5922  000292  6E0E               	movwf	ds1307_set_time@adr_chip^0,c
  5923  000294  EE20  F05A         	lfsr	2,_t
  5924  000298  EE00  F00F         	lfsr	0,ds1307_set_time@t
  5925  00029C  0E06               	movlw	6
  5926  00029E                     i2u485_41:
  5927  00029E  CFDB FFEB          	movff	plusw2,plusw0
  5928  0002A2  06E8               	decf	wreg,f,c
  5929  0002A4  E2FC               	bc	i2u485_41
  5930  0002A6  0E00               	movlw	0
  5931  0002A8  ECAD  F00C         	call	_ds1307_set_time
  5932  0002AC                     i2l4561:
  5933  0002AC  FFFF               	dw	65535	; assembler added errata NOP
  5934                           
  5935                           ;main.c: 89:         update_7seg = 1;
  5936  0002AE  0E01               	movlw	1
  5937  0002B0  0100               	movlb	0	; () banked
  5938  0002B2  6FEE               	movwf	_update_7seg& (0+255),b
  5939  0002B4                     i2l4563:
  5940  0002B4  FFFF               	dw	65535	; assembler added errata NOP
  5941                           
  5942                           ;main.c: 92:     if (CntTmrLedSec++ == 16)
  5943  0002B6  0E01               	movlw	1
  5944  0002B8  2652               	addwf	timer2_irq@CntTmrLedSec^0,f,c
  5945  0002BA  0E00               	movlw	0
  5946  0002BC  2253               	addwfc	(timer2_irq@CntTmrLedSec+1)^0,f,c
  5947  0002BE  2254               	addwfc	(timer2_irq@CntTmrLedSec+2)^0,f,c
  5948  0002C0  2255               	addwfc	(timer2_irq@CntTmrLedSec+3)^0,f,c
  5949  0002C2  0E11               	movlw	17
  5950  0002C4  1852               	xorwf	timer2_irq@CntTmrLedSec^0,w,c
  5951  0002C6  1053               	iorwf	(timer2_irq@CntTmrLedSec+1)^0,w,c
  5952  0002C8  1054               	iorwf	(timer2_irq@CntTmrLedSec+2)^0,w,c
  5953  0002CA  1055               	iorwf	(timer2_irq@CntTmrLedSec+3)^0,w,c
  5954  0002CC  A4D8               	btfss	status,2,c
  5955  0002CE  EF6B  F001         	goto	i2u486_41
  5956  0002D2  EF6E  F001         	goto	i2u486_40
  5957  0002D6                     i2u486_41:
  5958  0002D6  FFFF               	dw	65535	; assembler added errata NOP
  5959  0002D8  EF89  F001         	goto	i2l62
  5960  0002DC                     i2u486_40:
  5961  0002DC  FFFF               	dw	65535	; assembler added errata NOP
  5962  0002DE                     
  5963                           ;main.c: 93:     {;main.c: 94:         LATCbits.LATC0 = !LATCbits.LATC0;
  5964  0002DE  A08B               	btfss	139,0,c	;volatile
  5965  0002E0  EF74  F001         	goto	i2u487_41
  5966  0002E4  EF79  F001         	goto	i2u487_40
  5967  0002E8                     i2u487_41:
  5968  0002E8  FFFF               	dw	65535	; assembler added errata NOP
  5969  0002EA  6A18               	clrf	??_timer2_irq^0,c
  5970  0002EC  2A18               	incf	??_timer2_irq^0,f,c
  5971  0002EE  EF7B  F001         	goto	i2u488_48
  5972  0002F2                     i2u487_40:
  5973  0002F2  FFFF               	dw	65535	; assembler added errata NOP
  5974  0002F4  6A18               	clrf	??_timer2_irq^0,c
  5975  0002F6                     i2u488_48:
  5976  0002F6  FFFF               	dw	65535	; assembler added errata NOP
  5977  0002F8  508B               	movf	139,w,c	;volatile
  5978  0002FA  1818               	xorwf	??_timer2_irq^0,w,c
  5979  0002FC  0BFE               	andlw	-2
  5980  0002FE  1818               	xorwf	??_timer2_irq^0,w,c
  5981  000300  6E8B               	movwf	139,c	;volatile
  5982  000302                     
  5983                           ;main.c: 95:         CntTmrLedSec = 0;
  5984  000302  0E00               	movlw	0
  5985  000304  6E52               	movwf	timer2_irq@CntTmrLedSec^0,c
  5986  000306  0E00               	movlw	0
  5987  000308  6E53               	movwf	(timer2_irq@CntTmrLedSec+1)^0,c
  5988  00030A  0E00               	movlw	0
  5989  00030C  6E54               	movwf	(timer2_irq@CntTmrLedSec+2)^0,c
  5990  00030E  0E00               	movlw	0
  5991  000310  6E55               	movwf	(timer2_irq@CntTmrLedSec+3)^0,c
  5992  000312                     i2l62:
  5993  000312  FFFF               	dw	65535	; assembler added errata NOP
  5994  000314  C01E  FFF4         	movff	??_timer2_irq+6,prodh
  5995  000318  C01D  FFF3         	movff	??_timer2_irq+5,prodl
  5996  00031C  C01C  FFDA         	movff	??_timer2_irq+4,fsr2h
  5997  000320  C01B  FFD9         	movff	??_timer2_irq+3,fsr2l
  5998  000324  C01A  FFEA         	movff	??_timer2_irq+2,fsr0h
  5999  000328  C019  FFE9         	movff	??_timer2_irq+1,fsr0l
  6000  00032C  9261               	bcf	int$flags,1,c	;clear compiler interrupt flag (level 2)
  6001  00032E  0011               	retfie		f
  6002  000330  FFFF               	dw	65535	; errata NOP
  6003  000332                     __end_of_timer2_irq:
  6004                           	opt callstack 0
  6005                           
  6006 ;; *************** function _ds1307_set_time *****************
  6007 ;; Defined at:
  6008 ;;		line 74 in file "../../lib_comp/ds1307.c"
  6009 ;; Parameters:    Size  Location     Type
  6010 ;;  i2c_bus_id      1    wreg     enum E2448
  6011 ;;  adr_chip        1   13[COMRAM] unsigned char 
  6012 ;;  t               7   14[COMRAM] struct .
  6013 ;; Auto vars:     Size  Location     Type
  6014 ;;  i2c_bus_id      1   21[COMRAM] enum E2448
  6015 ;;  tmp             1   22[COMRAM] unsigned char 
  6016 ;; Return value:  Size  Location     Type
  6017 ;;                  1    wreg      enum E2383
  6018 ;; Registers used:
  6019 ;;		wreg, fsr2l, fsr2h, status,2, status,0, prodl, prodh, cstack
  6020 ;; Tracked objects:
  6021 ;;		On entry : 0/0
  6022 ;;		On exit  : 0/0
  6023 ;;		Unchanged: 0/0
  6024 ;; Data sizes:     COMRAM   BANK0   BANK1   BANK2   BANK3   BANK4   BANK5
  6025 ;;      Params:         8       0       0       0       0       0       0
  6026 ;;      Locals:         2       0       0       0       0       0       0
  6027 ;;      Temps:          0       0       0       0       0       0       0
  6028 ;;      Totals:        10       0       0       0       0       0       0
  6029 ;;Total ram usage:       10 bytes
  6030 ;; Hardware stack levels used:    1
  6031 ;; Hardware stack levels required when called:    2
  6032 ;; This function calls:
  6033 ;;		_bin_2_bcd
  6034 ;;		i2_i2c_start
  6035 ;;		i2_i2c_stop
  6036 ;;		i2_i2c_write
  6037 ;; This function is called by:
  6038 ;;		_timer2_irq
  6039 ;; This function uses a non-reentrant model
  6040 ;;
  6041                           
  6042                           	psect	text24
  6043  00195A                     __ptext24:
  6044                           	opt callstack 0
  6045  00195A                     _ds1307_set_time:
  6046                           	opt callstack 0
  6047  00195A  FFFF               	dw	65535	; assembler added errata NOP
  6048                           
  6049                           ;incstack = 0
  6050                           ;ds1307_set_time@i2c_bus_id stored from wreg
  6051  00195C  6E16               	movwf	ds1307_set_time@i2c_bus_id^0,c
  6052  00195E                     
  6053                           ;../../lib_comp/ds1307.c: 74: result_t ds1307_set_time (I2C_BUS i2c_bus_id, u8 adr_chip,
      +                           date_time_t t);../../lib_comp/ds1307.c: 75: {;../../lib_comp/ds1307.c: 76:     u8 tmp;;
      +                          ../../lib_comp/ds1307.c: 78:     if (i2c_start(i2c_bus_id) != SUCCESS)
  6054  00195E  5016               	movf	ds1307_set_time@i2c_bus_id^0,w,c
  6055  001960  ECE7  F013         	call	i2_i2c_start
  6056  001964  0900               	iorlw	0
  6057  001966  B4D8               	btfsc	status,2,c
  6058  001968  EFB8  F00C         	goto	i2u449_41
  6059  00196C  EFBB  F00C         	goto	i2u449_40
  6060  001970                     i2u449_41:
  6061  001970  FFFF               	dw	65535	; assembler added errata NOP
  6062  001972  EFBE  F00C         	goto	i2l4341
  6063  001976                     i2u449_40:
  6064  001976  FFFF               	dw	65535	; assembler added errata NOP
  6065  001978  EF97  F00D         	goto	i2l539
  6066  00197C                     i2l4341:
  6067  00197C  FFFF               	dw	65535	; assembler added errata NOP
  6068                           
  6069                           ;../../lib_comp/ds1307.c: 81:     if (i2c_write(i2c_bus_id, (adr_chip<<1) & 0xFE) != SUC
      +                          CESS)
  6070  00197E  500E               	movf	ds1307_set_time@adr_chip^0,w,c
  6071  001980  240E               	addwf	ds1307_set_time@adr_chip^0,w,c
  6072  001982  0BFE               	andlw	254
  6073  001984  6E02               	movwf	i2i2c_write@data^0,c
  6074  001986  5016               	movf	ds1307_set_time@i2c_bus_id^0,w,c
  6075  001988  EC0F  F014         	call	i2_i2c_write
  6076  00198C  0900               	iorlw	0
  6077  00198E  B4D8               	btfsc	status,2,c
  6078  001990  EFCC  F00C         	goto	i2u450_41
  6079  001994  EFCF  F00C         	goto	i2u450_40
  6080  001998                     i2u450_41:
  6081  001998  FFFF               	dw	65535	; assembler added errata NOP
  6082  00199A  EFD2  F00C         	goto	i2l4345
  6083  00199E                     i2u450_40:
  6084  00199E  FFFF               	dw	65535	; assembler added errata NOP
  6085  0019A0  EF97  F00D         	goto	i2l539
  6086  0019A4                     i2l4345:
  6087  0019A4  FFFF               	dw	65535	; assembler added errata NOP
  6088                           
  6089                           ;../../lib_comp/ds1307.c: 84:     if (i2c_write(i2c_bus_id, 0x00) != SUCCESS)
  6090  0019A6  0E00               	movlw	0
  6091  0019A8  6E02               	movwf	i2i2c_write@data^0,c
  6092  0019AA  5016               	movf	ds1307_set_time@i2c_bus_id^0,w,c
  6093  0019AC  EC0F  F014         	call	i2_i2c_write
  6094  0019B0  0900               	iorlw	0
  6095  0019B2  B4D8               	btfsc	status,2,c
  6096  0019B4  EFDE  F00C         	goto	i2u451_41
  6097  0019B8  EFE1  F00C         	goto	i2u451_40
  6098  0019BC                     i2u451_41:
  6099  0019BC  FFFF               	dw	65535	; assembler added errata NOP
  6100  0019BE  EFE4  F00C         	goto	i2l4349
  6101  0019C2                     i2u451_40:
  6102  0019C2  FFFF               	dw	65535	; assembler added errata NOP
  6103  0019C4  EF97  F00D         	goto	i2l539
  6104  0019C8                     i2l4349:
  6105  0019C8  FFFF               	dw	65535	; assembler added errata NOP
  6106                           
  6107                           ;../../lib_comp/ds1307.c: 87:     bin_2_bcd(t.sec, &tmp);
  6108  0019CA  0E17               	movlw	low ds1307_set_time@tmp
  6109  0019CC  6E09               	movwf	bin_2_bcd@bcd^0,c
  6110  0019CE  0E00               	movlw	high ds1307_set_time@tmp
  6111  0019D0  6E0A               	movwf	(bin_2_bcd@bcd+1)^0,c
  6112  0019D2  5011               	movf	(ds1307_set_time@t+2)^0,w,c
  6113  0019D4  EC7C  F013         	call	_bin_2_bcd
  6114  0019D8                     
  6115                           ;../../lib_comp/ds1307.c: 88:     if (i2c_write(i2c_bus_id, tmp) != SUCCESS)
  6116  0019D8  C017  F002         	movff	ds1307_set_time@tmp,i2i2c_write@data
  6117  0019DC  5016               	movf	ds1307_set_time@i2c_bus_id^0,w,c
  6118  0019DE  EC0F  F014         	call	i2_i2c_write
  6119  0019E2  0900               	iorlw	0
  6120  0019E4  B4D8               	btfsc	status,2,c
  6121  0019E6  EFF7  F00C         	goto	i2u452_41
  6122  0019EA  EFFA  F00C         	goto	i2u452_40
  6123  0019EE                     i2u452_41:
  6124  0019EE  FFFF               	dw	65535	; assembler added errata NOP
  6125  0019F0  EFFD  F00C         	goto	i2l4355
  6126  0019F4                     i2u452_40:
  6127  0019F4  FFFF               	dw	65535	; assembler added errata NOP
  6128  0019F6  EF97  F00D         	goto	i2l539
  6129  0019FA                     i2l4355:
  6130  0019FA  FFFF               	dw	65535	; assembler added errata NOP
  6131                           
  6132                           ;../../lib_comp/ds1307.c: 91:     bin_2_bcd(t.min, &tmp);
  6133  0019FC  0E17               	movlw	low ds1307_set_time@tmp
  6134  0019FE  6E09               	movwf	bin_2_bcd@bcd^0,c
  6135  001A00  0E00               	movlw	high ds1307_set_time@tmp
  6136  001A02  6E0A               	movwf	(bin_2_bcd@bcd+1)^0,c
  6137  001A04  5010               	movf	(ds1307_set_time@t+1)^0,w,c
  6138  001A06  EC7C  F013         	call	_bin_2_bcd
  6139  001A0A                     
  6140                           ;../../lib_comp/ds1307.c: 92:     if (i2c_write(i2c_bus_id, tmp) != SUCCESS)
  6141  001A0A  C017  F002         	movff	ds1307_set_time@tmp,i2i2c_write@data
  6142  001A0E  5016               	movf	ds1307_set_time@i2c_bus_id^0,w,c
  6143  001A10  EC0F  F014         	call	i2_i2c_write
  6144  001A14  0900               	iorlw	0
  6145  001A16  B4D8               	btfsc	status,2,c
  6146  001A18  EF10  F00D         	goto	i2u453_41
  6147  001A1C  EF13  F00D         	goto	i2u453_40
  6148  001A20                     i2u453_41:
  6149  001A20  FFFF               	dw	65535	; assembler added errata NOP
  6150  001A22  EF16  F00D         	goto	i2l4361
  6151  001A26                     i2u453_40:
  6152  001A26  FFFF               	dw	65535	; assembler added errata NOP
  6153  001A28  EF97  F00D         	goto	i2l539
  6154  001A2C                     i2l4361:
  6155  001A2C  FFFF               	dw	65535	; assembler added errata NOP
  6156                           
  6157                           ;../../lib_comp/ds1307.c: 95:     bin_2_bcd(t.hrs, &tmp);
  6158  001A2E  0E17               	movlw	low ds1307_set_time@tmp
  6159  001A30  6E09               	movwf	bin_2_bcd@bcd^0,c
  6160  001A32  0E00               	movlw	high ds1307_set_time@tmp
  6161  001A34  6E0A               	movwf	(bin_2_bcd@bcd+1)^0,c
  6162  001A36  500F               	movf	ds1307_set_time@t^0,w,c
  6163  001A38  EC7C  F013         	call	_bin_2_bcd
  6164  001A3C                     
  6165                           ;../../lib_comp/ds1307.c: 96:     if (i2c_write(i2c_bus_id, tmp) != SUCCESS)
  6166  001A3C  C017  F002         	movff	ds1307_set_time@tmp,i2i2c_write@data
  6167  001A40  5016               	movf	ds1307_set_time@i2c_bus_id^0,w,c
  6168  001A42  EC0F  F014         	call	i2_i2c_write
  6169  001A46  0900               	iorlw	0
  6170  001A48  B4D8               	btfsc	status,2,c
  6171  001A4A  EF29  F00D         	goto	i2u454_41
  6172  001A4E  EF2C  F00D         	goto	i2u454_40
  6173  001A52                     i2u454_41:
  6174  001A52  FFFF               	dw	65535	; assembler added errata NOP
  6175  001A54  EF2F  F00D         	goto	i2l4367
  6176  001A58                     i2u454_40:
  6177  001A58  FFFF               	dw	65535	; assembler added errata NOP
  6178  001A5A  EF97  F00D         	goto	i2l539
  6179  001A5E                     i2l4367:
  6180  001A5E  FFFF               	dw	65535	; assembler added errata NOP
  6181                           
  6182                           ;../../lib_comp/ds1307.c: 99:     bin_2_bcd(t.dow, &tmp);
  6183  001A60  0E17               	movlw	low ds1307_set_time@tmp
  6184  001A62  6E09               	movwf	bin_2_bcd@bcd^0,c
  6185  001A64  0E00               	movlw	high ds1307_set_time@tmp
  6186  001A66  6E0A               	movwf	(bin_2_bcd@bcd+1)^0,c
  6187  001A68  5012               	movf	(ds1307_set_time@t+3)^0,w,c
  6188  001A6A  EC7C  F013         	call	_bin_2_bcd
  6189  001A6E                     
  6190                           ;../../lib_comp/ds1307.c: 100:     if (i2c_write(i2c_bus_id, tmp) != SUCCESS)
  6191  001A6E  C017  F002         	movff	ds1307_set_time@tmp,i2i2c_write@data
  6192  001A72  5016               	movf	ds1307_set_time@i2c_bus_id^0,w,c
  6193  001A74  EC0F  F014         	call	i2_i2c_write
  6194  001A78  0900               	iorlw	0
  6195  001A7A  B4D8               	btfsc	status,2,c
  6196  001A7C  EF42  F00D         	goto	i2u455_41
  6197  001A80  EF45  F00D         	goto	i2u455_40
  6198  001A84                     i2u455_41:
  6199  001A84  FFFF               	dw	65535	; assembler added errata NOP
  6200  001A86  EF48  F00D         	goto	i2l4373
  6201  001A8A                     i2u455_40:
  6202  001A8A  FFFF               	dw	65535	; assembler added errata NOP
  6203  001A8C  EF97  F00D         	goto	i2l539
  6204  001A90                     i2l4373:
  6205  001A90  FFFF               	dw	65535	; assembler added errata NOP
  6206                           
  6207                           ;../../lib_comp/ds1307.c: 103:     bin_2_bcd(t.day, &tmp);
  6208  001A92  0E17               	movlw	low ds1307_set_time@tmp
  6209  001A94  6E09               	movwf	bin_2_bcd@bcd^0,c
  6210  001A96  0E00               	movlw	high ds1307_set_time@tmp
  6211  001A98  6E0A               	movwf	(bin_2_bcd@bcd+1)^0,c
  6212  001A9A  5013               	movf	(ds1307_set_time@t+4)^0,w,c
  6213  001A9C  EC7C  F013         	call	_bin_2_bcd
  6214  001AA0                     
  6215                           ;../../lib_comp/ds1307.c: 104:     if (i2c_write(i2c_bus_id, tmp) != SUCCESS)
  6216  001AA0  C017  F002         	movff	ds1307_set_time@tmp,i2i2c_write@data
  6217  001AA4  5016               	movf	ds1307_set_time@i2c_bus_id^0,w,c
  6218  001AA6  EC0F  F014         	call	i2_i2c_write
  6219  001AAA  0900               	iorlw	0
  6220  001AAC  B4D8               	btfsc	status,2,c
  6221  001AAE  EF5B  F00D         	goto	i2u456_41
  6222  001AB2  EF5E  F00D         	goto	i2u456_40
  6223  001AB6                     i2u456_41:
  6224  001AB6  FFFF               	dw	65535	; assembler added errata NOP
  6225  001AB8  EF61  F00D         	goto	i2l4379
  6226  001ABC                     i2u456_40:
  6227  001ABC  FFFF               	dw	65535	; assembler added errata NOP
  6228  001ABE  EF97  F00D         	goto	i2l539
  6229  001AC2                     i2l4379:
  6230  001AC2  FFFF               	dw	65535	; assembler added errata NOP
  6231                           
  6232                           ;../../lib_comp/ds1307.c: 107:     bin_2_bcd(t.mth, &tmp);
  6233  001AC4  0E17               	movlw	low ds1307_set_time@tmp
  6234  001AC6  6E09               	movwf	bin_2_bcd@bcd^0,c
  6235  001AC8  0E00               	movlw	high ds1307_set_time@tmp
  6236  001ACA  6E0A               	movwf	(bin_2_bcd@bcd+1)^0,c
  6237  001ACC  5014               	movf	(ds1307_set_time@t+5)^0,w,c
  6238  001ACE  EC7C  F013         	call	_bin_2_bcd
  6239  001AD2                     
  6240                           ;../../lib_comp/ds1307.c: 108:     if (i2c_write(i2c_bus_id, tmp) != SUCCESS)
  6241  001AD2  C017  F002         	movff	ds1307_set_time@tmp,i2i2c_write@data
  6242  001AD6  5016               	movf	ds1307_set_time@i2c_bus_id^0,w,c
  6243  001AD8  EC0F  F014         	call	i2_i2c_write
  6244  001ADC  0900               	iorlw	0
  6245  001ADE  B4D8               	btfsc	status,2,c
  6246  001AE0  EF74  F00D         	goto	i2u457_41
  6247  001AE4  EF77  F00D         	goto	i2u457_40
  6248  001AE8                     i2u457_41:
  6249  001AE8  FFFF               	dw	65535	; assembler added errata NOP
  6250  001AEA  EF7A  F00D         	goto	i2l4385
  6251  001AEE                     i2u457_40:
  6252  001AEE  FFFF               	dw	65535	; assembler added errata NOP
  6253  001AF0  EF97  F00D         	goto	i2l539
  6254  001AF4                     i2l4385:
  6255  001AF4  FFFF               	dw	65535	; assembler added errata NOP
  6256                           
  6257                           ;../../lib_comp/ds1307.c: 111:     bin_2_bcd(t.yrs, &tmp);
  6258  001AF6  0E17               	movlw	low ds1307_set_time@tmp
  6259  001AF8  6E09               	movwf	bin_2_bcd@bcd^0,c
  6260  001AFA  0E00               	movlw	high ds1307_set_time@tmp
  6261  001AFC  6E0A               	movwf	(bin_2_bcd@bcd+1)^0,c
  6262  001AFE  5015               	movf	(ds1307_set_time@t+6)^0,w,c
  6263  001B00  EC7C  F013         	call	_bin_2_bcd
  6264  001B04                     
  6265                           ;../../lib_comp/ds1307.c: 112:     if (i2c_write(i2c_bus_id, tmp) != SUCCESS)
  6266  001B04  C017  F002         	movff	ds1307_set_time@tmp,i2i2c_write@data
  6267  001B08  5016               	movf	ds1307_set_time@i2c_bus_id^0,w,c
  6268  001B0A  EC0F  F014         	call	i2_i2c_write
  6269  001B0E  0900               	iorlw	0
  6270  001B10  B4D8               	btfsc	status,2,c
  6271  001B12  EF8D  F00D         	goto	i2u458_41
  6272  001B16  EF90  F00D         	goto	i2u458_40
  6273  001B1A                     i2u458_41:
  6274  001B1A  FFFF               	dw	65535	; assembler added errata NOP
  6275  001B1C  EF93  F00D         	goto	i2l4391
  6276  001B20                     i2u458_40:
  6277  001B20  FFFF               	dw	65535	; assembler added errata NOP
  6278  001B22  EF97  F00D         	goto	i2l539
  6279  001B26                     i2l4391:
  6280  001B26  FFFF               	dw	65535	; assembler added errata NOP
  6281                           
  6282                           ;../../lib_comp/ds1307.c: 115:     if (i2c_stop(i2c_bus_id) != SUCCESS)
  6283  001B28  5016               	movf	ds1307_set_time@i2c_bus_id^0,w,c
  6284  001B2A  ECD8  F013         	call	i2_i2c_stop
  6285  001B2E                     i2l539:
  6286  001B2E  FFFF               	dw	65535	; assembler added errata NOP
  6287  001B30  0012               	return		;funcret
  6288  001B32  FFFF               	dw	65535	; errata NOP
  6289  001B34                     __end_of_ds1307_set_time:
  6290                           	opt callstack 0
  6291                           
  6292 ;; *************** function i2_i2c_write *****************
  6293 ;; Defined at:
  6294 ;;		line 364 in file "../../lib_pic/i2c.c"
  6295 ;; Parameters:    Size  Location     Type
  6296 ;;  bus_id          1    wreg     enum E2394
  6297 ;;  data            1    1[COMRAM] unsigned char 
  6298 ;; Auto vars:     Size  Location     Type
  6299 ;;  bus_id          1    2[COMRAM] enum E2394
  6300 ;;  i2c_write       1    3[COMRAM] enum E2383
  6301 ;; Return value:  Size  Location     Type
  6302 ;;                  1    wreg      enum E2383
  6303 ;; Registers used:
  6304 ;;		wreg, status,2, status,0, cstack
  6305 ;; Tracked objects:
  6306 ;;		On entry : 0/0
  6307 ;;		On exit  : 0/0
  6308 ;;		Unchanged: 0/0
  6309 ;; Data sizes:     COMRAM   BANK0   BANK1   BANK2   BANK3   BANK4   BANK5
  6310 ;;      Params:         1       0       0       0       0       0       0
  6311 ;;      Locals:         2       0       0       0       0       0       0
  6312 ;;      Temps:          0       0       0       0       0       0       0
  6313 ;;      Totals:         3       0       0       0       0       0       0
  6314 ;;Total ram usage:        3 bytes
  6315 ;; Hardware stack levels used:    1
  6316 ;; Hardware stack levels required when called:    1
  6317 ;; This function calls:
  6318 ;;		i2_i2c_wait_ack
  6319 ;; This function is called by:
  6320 ;;		_ds1307_set_time
  6321 ;; This function uses a non-reentrant model
  6322 ;;
  6323                           
  6324                           	psect	text25
  6325  00281E                     __ptext25:
  6326                           	opt callstack 0
  6327  00281E                     i2_i2c_write:
  6328                           	opt callstack 0
  6329  00281E  FFFF               	dw	65535	; assembler added errata NOP
  6330                           
  6331                           ;incstack = 0
  6332                           ;i2i2c_write@bus_id stored from wreg
  6333  002820  6E03               	movwf	i2i2c_write@bus_id^0,c
  6334  002822                     
  6335                           ;../../lib_pic/i2c.c: 370:         SSPBUF = data;
  6336  002822  C002  FFC9         	movff	i2i2c_write@data,4041	;volatile
  6337  002826                     
  6338                           ;../../lib_pic/i2c.c: 371:         PIR1bits.SSPIF = 0;
  6339  002826  969E               	bcf	158,3,c	;volatile
  6340  002828                     
  6341                           ;../../lib_pic/i2c.c: 374:         result = i2c_wait_ack(bus_id);
  6342  002828  5003               	movf	i2i2c_write@bus_id^0,w,c
  6343  00282A  EC98  F011         	call	i2_i2c_wait_ack
  6344  00282E  6E04               	movwf	i2i2c_write@result^0,c
  6345  002830                     
  6346                           ;../../lib_pic/i2c.c: 406:     return result;
  6347  002830  5004               	movf	i2i2c_write@result^0,w,c
  6348  002832  0012               	return		;funcret
  6349  002834  FFFF               	dw	65535	; errata NOP
  6350  002836                     __end_ofi2_i2c_write:
  6351                           	opt callstack 0
  6352                           
  6353 ;; *************** function i2_i2c_wait_ack *****************
  6354 ;; Defined at:
  6355 ;;		line 259 in file "../../lib_pic/i2c.c"
  6356 ;; Parameters:    Size  Location     Type
  6357 ;;  bus_id          1    wreg     enum E2394
  6358 ;; Auto vars:     Size  Location     Type
  6359 ;;  bus_id          1  (no storage) enum E2394
  6360 ;;  i2c_wait_ack    1    0[COMRAM] unsigned char 
  6361 ;; Return value:  Size  Location     Type
  6362 ;;                  1    wreg      enum E2383
  6363 ;; Registers used:
  6364 ;;		wreg, status,2, status,0
  6365 ;; Tracked objects:
  6366 ;;		On entry : 0/0
  6367 ;;		On exit  : 0/0
  6368 ;;		Unchanged: 0/0
  6369 ;; Data sizes:     COMRAM   BANK0   BANK1   BANK2   BANK3   BANK4   BANK5
  6370 ;;      Params:         0       0       0       0       0       0       0
  6371 ;;      Locals:         1       0       0       0       0       0       0
  6372 ;;      Temps:          0       0       0       0       0       0       0
  6373 ;;      Totals:         1       0       0       0       0       0       0
  6374 ;;Total ram usage:        1 bytes
  6375 ;; Hardware stack levels used:    1
  6376 ;; This function calls:
  6377 ;;		Nothing
  6378 ;; This function is called by:
  6379 ;;		i2_i2c_write
  6380 ;; This function uses a non-reentrant model
  6381 ;;
  6382                           
  6383                           	psect	text26
  6384  002330                     __ptext26:
  6385                           	opt callstack 0
  6386  002330                     i2_i2c_wait_ack:
  6387                           	opt callstack 0
  6388  002330  FFFF               	dw	65535	; assembler added errata NOP
  6389  002332                     i2l153:
  6390  002332  FFFF               	dw	65535	; assembler added errata NOP
  6391  002334  B4C7               	btfsc	199,2,c	;volatile
  6392  002336  EF9F  F011         	goto	i2u327_41
  6393  00233A  EFA2  F011         	goto	i2u327_40
  6394  00233E                     i2u327_41:
  6395  00233E  FFFF               	dw	65535	; assembler added errata NOP
  6396  002340  EF99  F011         	goto	i2l153
  6397  002344                     i2u327_40:
  6398  002344  FFFF               	dw	65535	; assembler added errata NOP
  6399  002346                     
  6400                           ;../../lib_pic/i2c.c: 266:         for (i=0; i<100; i++)
  6401  002346  0E00               	movlw	0
  6402  002348  6E01               	movwf	i2i2c_wait_ack@i^0,c
  6403  00234A                     i2l156:
  6404  00234A  FFFF               	dw	65535	; assembler added errata NOP
  6405                           
  6406                           ;../../lib_pic/i2c.c: 267:         {;../../lib_pic/i2c.c: 268:             if (!SSPCON2b
      +                          its.ACKSTAT)
  6407  00234C  BCC5               	btfsc	197,6,c	;volatile
  6408  00234E  EFAB  F011         	goto	i2u328_41
  6409  002352  EFAE  F011         	goto	i2u328_40
  6410  002356                     i2u328_41:
  6411  002356  FFFF               	dw	65535	; assembler added errata NOP
  6412  002358  EFB3  F011         	goto	i2l3631
  6413  00235C                     i2u328_40:
  6414  00235C  FFFF               	dw	65535	; assembler added errata NOP
  6415  00235E                     i2l3627:
  6416  00235E  FFFF               	dw	65535	; assembler added errata NOP
  6417                           
  6418                           ;../../lib_pic/i2c.c: 269:             {;../../lib_pic/i2c.c: 270:                 retur
      +                          n SUCCESS;
  6419  002360  0E00               	movlw	0
  6420  002362  EFC2  F011         	goto	i2l159
  6421  002366                     i2l3631:
  6422  002366  FFFF               	dw	65535	; assembler added errata NOP
  6423                           
  6424                           ;../../lib_pic/i2c.c: 272:         }
  6425  002368  2A01               	incf	i2i2c_wait_ack@i^0,f,c
  6426  00236A  0E63               	movlw	99
  6427  00236C  6401               	cpfsgt	i2i2c_wait_ack@i^0,c
  6428  00236E  EFBB  F011         	goto	i2u329_41
  6429  002372  EFBE  F011         	goto	i2u329_40
  6430  002376                     i2u329_41:
  6431  002376  FFFF               	dw	65535	; assembler added errata NOP
  6432  002378  EFA5  F011         	goto	i2l156
  6433  00237C                     i2u329_40:
  6434  00237C  FFFF               	dw	65535	; assembler added errata NOP
  6435  00237E                     
  6436                           ;../../lib_pic/i2c.c: 273:         PIR1bits.SSPIF = 0;
  6437  00237E  969E               	bcf	158,3,c	;volatile
  6438  002380  EFAF  F011         	goto	i2l3627
  6439  002384                     i2l159:
  6440  002384  FFFF               	dw	65535	; assembler added errata NOP
  6441  002386  0012               	return		;funcret
  6442  002388  FFFF               	dw	65535	; errata NOP
  6443  00238A                     __end_ofi2_i2c_wait_ack:
  6444                           	opt callstack 0
  6445                           
  6446 ;; *************** function i2_i2c_stop *****************
  6447 ;; Defined at:
  6448 ;;		line 412 in file "../../lib_pic/i2c.c"
  6449 ;; Parameters:    Size  Location     Type
  6450 ;;  bus_id          1    wreg     enum E2394
  6451 ;; Auto vars:     Size  Location     Type
  6452 ;;  bus_id          1  (no storage) enum E2394
  6453 ;; Return value:  Size  Location     Type
  6454 ;;                  1    wreg      enum E2383
  6455 ;; Registers used:
  6456 ;;		wreg
  6457 ;; Tracked objects:
  6458 ;;		On entry : 0/0
  6459 ;;		On exit  : 0/0
  6460 ;;		Unchanged: 0/0
  6461 ;; Data sizes:     COMRAM   BANK0   BANK1   BANK2   BANK3   BANK4   BANK5
  6462 ;;      Params:         0       0       0       0       0       0       0
  6463 ;;      Locals:         0       0       0       0       0       0       0
  6464 ;;      Temps:          0       0       0       0       0       0       0
  6465 ;;      Totals:         0       0       0       0       0       0       0
  6466 ;;Total ram usage:        0 bytes
  6467 ;; Hardware stack levels used:    1
  6468 ;; This function calls:
  6469 ;;		Nothing
  6470 ;; This function is called by:
  6471 ;;		_ds1307_set_time
  6472 ;; This function uses a non-reentrant model
  6473 ;;
  6474                           
  6475                           	psect	text27
  6476  0027B0                     __ptext27:
  6477                           	opt callstack 0
  6478  0027B0                     i2_i2c_stop:
  6479                           	opt callstack 0
  6480  0027B0  FFFF               	dw	65535	; assembler added errata NOP
  6481  0027B2                     
  6482                           ;../../lib_pic/i2c.c: 412: result_t i2c_stop(I2C_BUS bus_id);../../lib_pic/i2c.c: 413: {
      +                          ;../../lib_pic/i2c.c: 416:         SSPCON2bits.PEN = 1;
  6483  0027B2  84C5               	bsf	197,2,c	;volatile
  6484  0027B4                     i2l171:
  6485  0027B4  FFFF               	dw	65535	; assembler added errata NOP
  6486  0027B6  B4C5               	btfsc	197,2,c	;volatile
  6487  0027B8  EFE0  F013         	goto	i2u446_41
  6488  0027BC  EFE3  F013         	goto	i2u446_40
  6489  0027C0                     i2u446_41:
  6490  0027C0  FFFF               	dw	65535	; assembler added errata NOP
  6491  0027C2  EFDA  F013         	goto	i2l171
  6492  0027C6                     i2u446_40:
  6493  0027C6  FFFF               	dw	65535	; assembler added errata NOP
  6494  0027C8                     
  6495                           ;../../lib_pic/i2c.c: 444:     return SUCCESS;
  6496  0027C8  0E00               	movlw	0
  6497  0027CA  0012               	return		;funcret
  6498  0027CC  FFFF               	dw	65535	; errata NOP
  6499  0027CE                     __end_ofi2_i2c_stop:
  6500                           	opt callstack 0
  6501                           
  6502 ;; *************** function i2_i2c_start *****************
  6503 ;; Defined at:
  6504 ;;		line 137 in file "../../lib_pic/i2c.c"
  6505 ;; Parameters:    Size  Location     Type
  6506 ;;  bus_id          1    wreg     enum E2394
  6507 ;; Auto vars:     Size  Location     Type
  6508 ;;  bus_id          1  (no storage) enum E2394
  6509 ;;  i2c_start       1    0        enum E2383
  6510 ;; Return value:  Size  Location     Type
  6511 ;;                  1    wreg      enum E2383
  6512 ;; Registers used:
  6513 ;;		wreg, status,2
  6514 ;; Tracked objects:
  6515 ;;		On entry : 0/0
  6516 ;;		On exit  : 0/0
  6517 ;;		Unchanged: 0/0
  6518 ;; Data sizes:     COMRAM   BANK0   BANK1   BANK2   BANK3   BANK4   BANK5
  6519 ;;      Params:         0       0       0       0       0       0       0
  6520 ;;      Locals:         1       0       0       0       0       0       0
  6521 ;;      Temps:          0       0       0       0       0       0       0
  6522 ;;      Totals:         1       0       0       0       0       0       0
  6523 ;;Total ram usage:        1 bytes
  6524 ;; Hardware stack levels used:    1
  6525 ;; This function calls:
  6526 ;;		Nothing
  6527 ;; This function is called by:
  6528 ;;		_ds1307_set_time
  6529 ;; This function uses a non-reentrant model
  6530 ;;
  6531                           
  6532                           	psect	text28
  6533  0027CE                     __ptext28:
  6534                           	opt callstack 0
  6535  0027CE                     i2_i2c_start:
  6536                           	opt callstack 0
  6537  0027CE  FFFF               	dw	65535	; assembler added errata NOP
  6538  0027D0                     
  6539                           ;../../lib_pic/i2c.c: 143:         SSPCON2bits.SEN = 1;
  6540  0027D0  80C5               	bsf	197,0,c	;volatile
  6541  0027D2                     i2l135:
  6542  0027D2  FFFF               	dw	65535	; assembler added errata NOP
  6543  0027D4  B0C5               	btfsc	197,0,c	;volatile
  6544  0027D6  EFEF  F013         	goto	i2u445_41
  6545  0027DA  EFF2  F013         	goto	i2u445_40
  6546  0027DE                     i2u445_41:
  6547  0027DE  FFFF               	dw	65535	; assembler added errata NOP
  6548  0027E0  EFE9  F013         	goto	i2l135
  6549  0027E4                     i2u445_40:
  6550  0027E4  FFFF               	dw	65535	; assembler added errata NOP
  6551  0027E6                     
  6552                           ;../../lib_pic/i2c.c: 173:     return result;
  6553  0027E6  0E00               	movlw	0
  6554  0027E8  0012               	return		;funcret
  6555  0027EA  FFFF               	dw	65535	; errata NOP
  6556  0027EC                     __end_ofi2_i2c_start:
  6557                           	opt callstack 0
  6558                           
  6559 ;; *************** function _bin_2_bcd *****************
  6560 ;; Defined at:
  6561 ;;		line 124 in file "../../lib_misc/bcd.c"
  6562 ;; Parameters:    Size  Location     Type
  6563 ;;  bin             1    wreg     unsigned char 
  6564 ;;  bcd             2    8[COMRAM] PTR unsigned char 
  6565 ;;		 -> ds1307_set_time@tmp(1), 
  6566 ;; Auto vars:     Size  Location     Type
  6567 ;;  bin             1   12[COMRAM] unsigned char 
  6568 ;; Return value:  Size  Location     Type
  6569 ;;                  1    wreg      void 
  6570 ;; Registers used:
  6571 ;;		wreg, fsr2l, fsr2h, status,2, status,0, prodl, prodh, cstack
  6572 ;; Tracked objects:
  6573 ;;		On entry : 0/0
  6574 ;;		On exit  : 0/0
  6575 ;;		Unchanged: 0/0
  6576 ;; Data sizes:     COMRAM   BANK0   BANK1   BANK2   BANK3   BANK4   BANK5
  6577 ;;      Params:         2       0       0       0       0       0       0
  6578 ;;      Locals:         1       0       0       0       0       0       0
  6579 ;;      Temps:          2       0       0       0       0       0       0
  6580 ;;      Totals:         5       0       0       0       0       0       0
  6581 ;;Total ram usage:        5 bytes
  6582 ;; Hardware stack levels used:    1
  6583 ;; Hardware stack levels required when called:    1
  6584 ;; This function calls:
  6585 ;;		___awdiv
  6586 ;;		___awmod
  6587 ;; This function is called by:
  6588 ;;		_ds1307_set_time
  6589 ;; This function uses a non-reentrant model
  6590 ;;
  6591                           
  6592                           	psect	text29
  6593  0026F8                     __ptext29:
  6594                           	opt callstack 0
  6595  0026F8                     _bin_2_bcd:
  6596                           	opt callstack 0
  6597  0026F8  FFFF               	dw	65535	; assembler added errata NOP
  6598                           
  6599                           ;incstack = 0
  6600                           ;bin_2_bcd@bin stored from wreg
  6601  0026FA  6E0D               	movwf	bin_2_bcd@bin^0,c
  6602  0026FC                     
  6603                           ;../../lib_misc/bcd.c: 124: void bin_2_bcd(u8 bin, u8 *bcd);../../lib_misc/bcd.c: 125: {
      +                          ;../../lib_misc/bcd.c: 126:     *bcd = ((bin / 10) << 4) + (bin % 10);
  6604  0026FC  C00D  F001         	movff	bin_2_bcd@bin,___awmod@dividend
  6605  002700  6A02               	clrf	(___awmod@dividend+1)^0,c
  6606  002702  0E00               	movlw	0
  6607  002704  6E04               	movwf	(___awmod@divisor+1)^0,c
  6608  002706  0E0A               	movlw	10
  6609  002708  6E03               	movwf	___awmod@divisor^0,c
  6610  00270A  EC3C  F010         	call	___awmod	;wreg free
  6611  00270E  C001  F00B         	movff	?___awmod,??_bin_2_bcd
  6612  002712  C002  F00C         	movff	?___awmod+1,??_bin_2_bcd+1
  6613  002716  C00D  F001         	movff	bin_2_bcd@bin,___awdiv@dividend
  6614  00271A  6A02               	clrf	(___awdiv@dividend+1)^0,c
  6615  00271C  0E00               	movlw	0
  6616  00271E  6E04               	movwf	(___awdiv@divisor+1)^0,c
  6617  002720  0E0A               	movlw	10
  6618  002722  6E03               	movwf	___awdiv@divisor^0,c
  6619  002724  EC51  F00F         	call	___awdiv	;wreg free
  6620  002728  5001               	movf	?___awdiv^0,w,c
  6621  00272A  0D10               	mullw	16
  6622  00272C  50F3               	movf	243,w,c
  6623  00272E  240B               	addwf	??_bin_2_bcd^0,w,c
  6624  002730  C009  FFD9         	movff	bin_2_bcd@bcd,fsr2l
  6625  002734  C00A  FFDA         	movff	bin_2_bcd@bcd+1,fsr2h
  6626  002738  6EDF               	movwf	indf2,c
  6627  00273A  0012               	return		;funcret
  6628  00273C  FFFF               	dw	65535	; errata NOP
  6629  00273E                     __end_of_bin_2_bcd:
  6630                           	opt callstack 0
  6631                           
  6632 ;; *************** function ___awmod *****************
  6633 ;; Defined at:
  6634 ;;		line 7 in file "C:\Programs\Microchip\xc8\v2.10\pic\sources\c99\common\awmod.c"
  6635 ;; Parameters:    Size  Location     Type
  6636 ;;  dividend        2    0[COMRAM] int 
  6637 ;;  divisor         2    2[COMRAM] int 
  6638 ;; Auto vars:     Size  Location     Type
  6639 ;;  sign            1    5[COMRAM] unsigned char 
  6640 ;;  counter         1    4[COMRAM] unsigned char 
  6641 ;; Return value:  Size  Location     Type
  6642 ;;                  2    0[COMRAM] int 
  6643 ;; Registers used:
  6644 ;;		wreg, status,2, status,0
  6645 ;; Tracked objects:
  6646 ;;		On entry : 0/0
  6647 ;;		On exit  : 0/0
  6648 ;;		Unchanged: 0/0
  6649 ;; Data sizes:     COMRAM   BANK0   BANK1   BANK2   BANK3   BANK4   BANK5
  6650 ;;      Params:         4       0       0       0       0       0       0
  6651 ;;      Locals:         2       0       0       0       0       0       0
  6652 ;;      Temps:          0       0       0       0       0       0       0
  6653 ;;      Totals:         6       0       0       0       0       0       0
  6654 ;;Total ram usage:        6 bytes
  6655 ;; Hardware stack levels used:    1
  6656 ;; This function calls:
  6657 ;;		Nothing
  6658 ;; This function is called by:
  6659 ;;		_bin_2_bcd
  6660 ;; This function uses a non-reentrant model
  6661 ;;
  6662                           
  6663                           	psect	text30
  6664  002078                     __ptext30:
  6665                           	opt callstack 0
  6666  002078                     ___awmod:
  6667                           	opt callstack 0
  6668  002078  FFFF               	dw	65535	; assembler added errata NOP
  6669  00207A  0E00               	movlw	0
  6670  00207C  6E06               	movwf	___awmod@sign^0,c
  6671  00207E  BE02               	btfsc	(___awmod@dividend+1)^0,7,c
  6672  002080  EF47  F010         	goto	i2u321_40
  6673  002084  EF44  F010         	goto	i2u321_41
  6674  002088                     i2u321_41:
  6675  002088  FFFF               	dw	65535	; assembler added errata NOP
  6676  00208A  EF4E  F010         	goto	i2l3591
  6677  00208E                     i2u321_40:
  6678  00208E  FFFF               	dw	65535	; assembler added errata NOP
  6679  002090  6C01               	negf	___awmod@dividend^0,c
  6680  002092  1E02               	comf	(___awmod@dividend+1)^0,f,c
  6681  002094  B0D8               	btfsc	status,0,c
  6682  002096  2A02               	incf	(___awmod@dividend+1)^0,f,c
  6683  002098  0E01               	movlw	1
  6684  00209A  6E06               	movwf	___awmod@sign^0,c
  6685  00209C                     i2l3591:
  6686  00209C  FFFF               	dw	65535	; assembler added errata NOP
  6687  00209E  BE04               	btfsc	(___awmod@divisor+1)^0,7,c
  6688  0020A0  EF57  F010         	goto	i2u322_40
  6689  0020A4  EF54  F010         	goto	i2u322_41
  6690  0020A8                     i2u322_41:
  6691  0020A8  FFFF               	dw	65535	; assembler added errata NOP
  6692  0020AA  EF5C  F010         	goto	i2l3595
  6693  0020AE                     i2u322_40:
  6694  0020AE  FFFF               	dw	65535	; assembler added errata NOP
  6695  0020B0  6C03               	negf	___awmod@divisor^0,c
  6696  0020B2  1E04               	comf	(___awmod@divisor+1)^0,f,c
  6697  0020B4  B0D8               	btfsc	status,0,c
  6698  0020B6  2A04               	incf	(___awmod@divisor+1)^0,f,c
  6699  0020B8                     i2l3595:
  6700  0020B8  FFFF               	dw	65535	; assembler added errata NOP
  6701  0020BA  5003               	movf	___awmod@divisor^0,w,c
  6702  0020BC  1004               	iorwf	(___awmod@divisor+1)^0,w,c
  6703  0020BE  B4D8               	btfsc	status,2,c
  6704  0020C0  EF64  F010         	goto	i2u323_41
  6705  0020C4  EF67  F010         	goto	i2u323_40
  6706  0020C8                     i2u323_41:
  6707  0020C8  FFFF               	dw	65535	; assembler added errata NOP
  6708  0020CA  EF94  F010         	goto	i2l3611
  6709  0020CE                     i2u323_40:
  6710  0020CE  FFFF               	dw	65535	; assembler added errata NOP
  6711  0020D0  0E01               	movlw	1
  6712  0020D2  6E05               	movwf	___awmod@counter^0,c
  6713  0020D4  EF71  F010         	goto	i2l3601
  6714  0020D8                     i2l3599:
  6715  0020D8  FFFF               	dw	65535	; assembler added errata NOP
  6716  0020DA  90D8               	bcf	status,0,c
  6717  0020DC  3603               	rlcf	___awmod@divisor^0,f,c
  6718  0020DE  3604               	rlcf	(___awmod@divisor+1)^0,f,c
  6719  0020E0  2A05               	incf	___awmod@counter^0,f,c
  6720  0020E2                     i2l3601:
  6721  0020E2  FFFF               	dw	65535	; assembler added errata NOP
  6722  0020E4  AE04               	btfss	(___awmod@divisor+1)^0,7,c
  6723  0020E6  EF77  F010         	goto	i2u324_41
  6724  0020EA  EF7A  F010         	goto	i2u324_40
  6725  0020EE                     i2u324_41:
  6726  0020EE  FFFF               	dw	65535	; assembler added errata NOP
  6727  0020F0  EF6C  F010         	goto	i2l3599
  6728  0020F4                     i2u324_40:
  6729  0020F4  FFFF               	dw	65535	; assembler added errata NOP
  6730  0020F6                     i2l3603:
  6731  0020F6  FFFF               	dw	65535	; assembler added errata NOP
  6732  0020F8  5003               	movf	___awmod@divisor^0,w,c
  6733  0020FA  5C01               	subwf	___awmod@dividend^0,w,c
  6734  0020FC  5004               	movf	(___awmod@divisor+1)^0,w,c
  6735  0020FE  5802               	subwfb	(___awmod@dividend+1)^0,w,c
  6736  002100  A0D8               	btfss	status,0,c
  6737  002102  EF85  F010         	goto	i2u325_41
  6738  002106  EF88  F010         	goto	i2u325_40
  6739  00210A                     i2u325_41:
  6740  00210A  FFFF               	dw	65535	; assembler added errata NOP
  6741  00210C  EF8D  F010         	goto	i2l3607
  6742  002110                     i2u325_40:
  6743  002110  FFFF               	dw	65535	; assembler added errata NOP
  6744  002112  5003               	movf	___awmod@divisor^0,w,c
  6745  002114  5E01               	subwf	___awmod@dividend^0,f,c
  6746  002116  5004               	movf	(___awmod@divisor+1)^0,w,c
  6747  002118  5A02               	subwfb	(___awmod@dividend+1)^0,f,c
  6748  00211A                     i2l3607:
  6749  00211A  FFFF               	dw	65535	; assembler added errata NOP
  6750  00211C  90D8               	bcf	status,0,c
  6751  00211E  3204               	rrcf	(___awmod@divisor+1)^0,f,c
  6752  002120  3203               	rrcf	___awmod@divisor^0,f,c
  6753  002122  2E05               	decfsz	___awmod@counter^0,f,c
  6754  002124  EF7B  F010         	goto	i2l3603
  6755  002128                     i2l3611:
  6756  002128  FFFF               	dw	65535	; assembler added errata NOP
  6757  00212A  5006               	movf	___awmod@sign^0,w,c
  6758  00212C  B4D8               	btfsc	status,2,c
  6759  00212E  EF9B  F010         	goto	i2u326_41
  6760  002132  EF9E  F010         	goto	i2u326_40
  6761  002136                     i2u326_41:
  6762  002136  FFFF               	dw	65535	; assembler added errata NOP
  6763  002138  EFA3  F010         	goto	i2l3615
  6764  00213C                     i2u326_40:
  6765  00213C  FFFF               	dw	65535	; assembler added errata NOP
  6766  00213E  6C01               	negf	___awmod@dividend^0,c
  6767  002140  1E02               	comf	(___awmod@dividend+1)^0,f,c
  6768  002142  B0D8               	btfsc	status,0,c
  6769  002144  2A02               	incf	(___awmod@dividend+1)^0,f,c
  6770  002146                     i2l3615:
  6771  002146  FFFF               	dw	65535	; assembler added errata NOP
  6772  002148  C001  F001         	movff	___awmod@dividend,?___awmod
  6773  00214C  C002  F002         	movff	___awmod@dividend+1,?___awmod+1
  6774  002150  0012               	return		;funcret
  6775  002152  FFFF               	dw	65535	; errata NOP
  6776  002154                     __end_of___awmod:
  6777                           	opt callstack 0
  6778                           
  6779 ;; *************** function ___awdiv *****************
  6780 ;; Defined at:
  6781 ;;		line 7 in file "C:\Programs\Microchip\xc8\v2.10\pic\sources\c99\common\awdiv.c"
  6782 ;; Parameters:    Size  Location     Type
  6783 ;;  dividend        2    0[COMRAM] int 
  6784 ;;  divisor         2    2[COMRAM] int 
  6785 ;; Auto vars:     Size  Location     Type
  6786 ;;  quotient        2    6[COMRAM] int 
  6787 ;;  sign            1    5[COMRAM] unsigned char 
  6788 ;;  counter         1    4[COMRAM] unsigned char 
  6789 ;; Return value:  Size  Location     Type
  6790 ;;                  2    0[COMRAM] int 
  6791 ;; Registers used:
  6792 ;;		wreg, status,2, status,0
  6793 ;; Tracked objects:
  6794 ;;		On entry : 0/0
  6795 ;;		On exit  : 0/0
  6796 ;;		Unchanged: 0/0
  6797 ;; Data sizes:     COMRAM   BANK0   BANK1   BANK2   BANK3   BANK4   BANK5
  6798 ;;      Params:         4       0       0       0       0       0       0
  6799 ;;      Locals:         4       0       0       0       0       0       0
  6800 ;;      Temps:          0       0       0       0       0       0       0
  6801 ;;      Totals:         8       0       0       0       0       0       0
  6802 ;;Total ram usage:        8 bytes
  6803 ;; Hardware stack levels used:    1
  6804 ;; This function calls:
  6805 ;;		Nothing
  6806 ;; This function is called by:
  6807 ;;		_bin_2_bcd
  6808 ;; This function uses a non-reentrant model
  6809 ;;
  6810                           
  6811                           	psect	text31
  6812  001EA2                     __ptext31:
  6813                           	opt callstack 0
  6814  001EA2                     ___awdiv:
  6815                           	opt callstack 0
  6816  001EA2  FFFF               	dw	65535	; assembler added errata NOP
  6817  001EA4  0E00               	movlw	0
  6818  001EA6  6E06               	movwf	___awdiv@sign^0,c
  6819  001EA8  BE04               	btfsc	(___awdiv@divisor+1)^0,7,c
  6820  001EAA  EF5C  F00F         	goto	i2u315_40
  6821  001EAE  EF59  F00F         	goto	i2u315_41
  6822  001EB2                     i2u315_41:
  6823  001EB2  FFFF               	dw	65535	; assembler added errata NOP
  6824  001EB4  EF63  F00F         	goto	i2l3547
  6825  001EB8                     i2u315_40:
  6826  001EB8  FFFF               	dw	65535	; assembler added errata NOP
  6827  001EBA  6C03               	negf	___awdiv@divisor^0,c
  6828  001EBC  1E04               	comf	(___awdiv@divisor+1)^0,f,c
  6829  001EBE  B0D8               	btfsc	status,0,c
  6830  001EC0  2A04               	incf	(___awdiv@divisor+1)^0,f,c
  6831  001EC2  0E01               	movlw	1
  6832  001EC4  6E06               	movwf	___awdiv@sign^0,c
  6833  001EC6                     i2l3547:
  6834  001EC6  FFFF               	dw	65535	; assembler added errata NOP
  6835  001EC8  BE02               	btfsc	(___awdiv@dividend+1)^0,7,c
  6836  001ECA  EF6C  F00F         	goto	i2u316_40
  6837  001ECE  EF69  F00F         	goto	i2u316_41
  6838  001ED2                     i2u316_41:
  6839  001ED2  FFFF               	dw	65535	; assembler added errata NOP
  6840  001ED4  EF73  F00F         	goto	i2l3553
  6841  001ED8                     i2u316_40:
  6842  001ED8  FFFF               	dw	65535	; assembler added errata NOP
  6843  001EDA  6C01               	negf	___awdiv@dividend^0,c
  6844  001EDC  1E02               	comf	(___awdiv@dividend+1)^0,f,c
  6845  001EDE  B0D8               	btfsc	status,0,c
  6846  001EE0  2A02               	incf	(___awdiv@dividend+1)^0,f,c
  6847  001EE2  0E01               	movlw	1
  6848  001EE4  1A06               	xorwf	___awdiv@sign^0,f,c
  6849  001EE6                     i2l3553:
  6850  001EE6  FFFF               	dw	65535	; assembler added errata NOP
  6851  001EE8  0E00               	movlw	0
  6852  001EEA  6E08               	movwf	(___awdiv@quotient+1)^0,c
  6853  001EEC  0E00               	movlw	0
  6854  001EEE  6E07               	movwf	___awdiv@quotient^0,c
  6855  001EF0  5003               	movf	___awdiv@divisor^0,w,c
  6856  001EF2  1004               	iorwf	(___awdiv@divisor+1)^0,w,c
  6857  001EF4  B4D8               	btfsc	status,2,c
  6858  001EF6  EF7F  F00F         	goto	i2u317_41
  6859  001EFA  EF82  F00F         	goto	i2u317_40
  6860  001EFE                     i2u317_41:
  6861  001EFE  FFFF               	dw	65535	; assembler added errata NOP
  6862  001F00  EFB3  F00F         	goto	i2l3575
  6863  001F04                     i2u317_40:
  6864  001F04  FFFF               	dw	65535	; assembler added errata NOP
  6865  001F06  0E01               	movlw	1
  6866  001F08  6E05               	movwf	___awdiv@counter^0,c
  6867  001F0A  EF8C  F00F         	goto	i2l3561
  6868  001F0E                     i2l3559:
  6869  001F0E  FFFF               	dw	65535	; assembler added errata NOP
  6870  001F10  90D8               	bcf	status,0,c
  6871  001F12  3603               	rlcf	___awdiv@divisor^0,f,c
  6872  001F14  3604               	rlcf	(___awdiv@divisor+1)^0,f,c
  6873  001F16  2A05               	incf	___awdiv@counter^0,f,c
  6874  001F18                     i2l3561:
  6875  001F18  FFFF               	dw	65535	; assembler added errata NOP
  6876  001F1A  AE04               	btfss	(___awdiv@divisor+1)^0,7,c
  6877  001F1C  EF92  F00F         	goto	i2u318_41
  6878  001F20  EF95  F00F         	goto	i2u318_40
  6879  001F24                     i2u318_41:
  6880  001F24  FFFF               	dw	65535	; assembler added errata NOP
  6881  001F26  EF87  F00F         	goto	i2l3559
  6882  001F2A                     i2u318_40:
  6883  001F2A  FFFF               	dw	65535	; assembler added errata NOP
  6884  001F2C                     i2l3563:
  6885  001F2C  FFFF               	dw	65535	; assembler added errata NOP
  6886  001F2E  90D8               	bcf	status,0,c
  6887  001F30  3607               	rlcf	___awdiv@quotient^0,f,c
  6888  001F32  3608               	rlcf	(___awdiv@quotient+1)^0,f,c
  6889  001F34  5003               	movf	___awdiv@divisor^0,w,c
  6890  001F36  5C01               	subwf	___awdiv@dividend^0,w,c
  6891  001F38  5004               	movf	(___awdiv@divisor+1)^0,w,c
  6892  001F3A  5802               	subwfb	(___awdiv@dividend+1)^0,w,c
  6893  001F3C  A0D8               	btfss	status,0,c
  6894  001F3E  EFA3  F00F         	goto	i2u319_41
  6895  001F42  EFA6  F00F         	goto	i2u319_40
  6896  001F46                     i2u319_41:
  6897  001F46  FFFF               	dw	65535	; assembler added errata NOP
  6898  001F48  EFAC  F00F         	goto	i2l3571
  6899  001F4C                     i2u319_40:
  6900  001F4C  FFFF               	dw	65535	; assembler added errata NOP
  6901  001F4E  5003               	movf	___awdiv@divisor^0,w,c
  6902  001F50  5E01               	subwf	___awdiv@dividend^0,f,c
  6903  001F52  5004               	movf	(___awdiv@divisor+1)^0,w,c
  6904  001F54  5A02               	subwfb	(___awdiv@dividend+1)^0,f,c
  6905  001F56  8007               	bsf	___awdiv@quotient^0,0,c
  6906  001F58                     i2l3571:
  6907  001F58  FFFF               	dw	65535	; assembler added errata NOP
  6908  001F5A  90D8               	bcf	status,0,c
  6909  001F5C  3204               	rrcf	(___awdiv@divisor+1)^0,f,c
  6910  001F5E  3203               	rrcf	___awdiv@divisor^0,f,c
  6911  001F60  2E05               	decfsz	___awdiv@counter^0,f,c
  6912  001F62  EF96  F00F         	goto	i2l3563
  6913  001F66                     i2l3575:
  6914  001F66  FFFF               	dw	65535	; assembler added errata NOP
  6915  001F68  5006               	movf	___awdiv@sign^0,w,c
  6916  001F6A  B4D8               	btfsc	status,2,c
  6917  001F6C  EFBA  F00F         	goto	i2u320_41
  6918  001F70  EFBD  F00F         	goto	i2u320_40
  6919  001F74                     i2u320_41:
  6920  001F74  FFFF               	dw	65535	; assembler added errata NOP
  6921  001F76  EFC2  F00F         	goto	i2l3579
  6922  001F7A                     i2u320_40:
  6923  001F7A  FFFF               	dw	65535	; assembler added errata NOP
  6924  001F7C  6C07               	negf	___awdiv@quotient^0,c
  6925  001F7E  1E08               	comf	(___awdiv@quotient+1)^0,f,c
  6926  001F80  B0D8               	btfsc	status,0,c
  6927  001F82  2A08               	incf	(___awdiv@quotient+1)^0,f,c
  6928  001F84                     i2l3579:
  6929  001F84  FFFF               	dw	65535	; assembler added errata NOP
  6930  001F86  C007  F001         	movff	___awdiv@quotient,?___awdiv
  6931  001F8A  C008  F002         	movff	___awdiv@quotient+1,?___awdiv+1
  6932  001F8E  0012               	return		;funcret
  6933  001F90  FFFF               	dw	65535	; errata NOP
  6934  001F92                     __end_of___awdiv:
  6935                           	opt callstack 0
  6936                           
  6937 ;; *************** function _datetime_increase_seconds *****************
  6938 ;; Defined at:
  6939 ;;		line 18 in file "../../lib_misc/date_time.c"
  6940 ;; Parameters:    Size  Location     Type
  6941 ;;  t               2    9[COMRAM] PTR struct .
  6942 ;;		 -> t(7), 
  6943 ;; Auto vars:     Size  Location     Type
  6944 ;;		None
  6945 ;; Return value:  Size  Location     Type
  6946 ;;                  1    wreg      void 
  6947 ;; Registers used:
  6948 ;;		wreg, fsr2l, fsr2h, status,2, status,0, cstack
  6949 ;; Tracked objects:
  6950 ;;		On entry : 0/0
  6951 ;;		On exit  : 0/0
  6952 ;;		Unchanged: 0/0
  6953 ;; Data sizes:     COMRAM   BANK0   BANK1   BANK2   BANK3   BANK4   BANK5
  6954 ;;      Params:         2       0       0       0       0       0       0
  6955 ;;      Locals:         0       0       0       0       0       0       0
  6956 ;;      Temps:          1       0       0       0       0       0       0
  6957 ;;      Totals:         3       0       0       0       0       0       0
  6958 ;;Total ram usage:        3 bytes
  6959 ;; Hardware stack levels used:    1
  6960 ;; Hardware stack levels required when called:    3
  6961 ;; This function calls:
  6962 ;;		i2_datetime_increase_minutes
  6963 ;; This function is called by:
  6964 ;;		_timer2_irq
  6965 ;; This function uses a non-reentrant model
  6966 ;;
  6967                           
  6968                           	psect	text32
  6969  00243A                     __ptext32:
  6970                           	opt callstack 0
  6971  00243A                     _datetime_increase_seconds:
  6972                           	opt callstack 0
  6973  00243A  FFFF               	dw	65535	; assembler added errata NOP
  6974  00243C                     
  6975                           ;../../lib_misc/date_time.c: 18: void datetime_increase_seconds(date_time_t *t);../../li
      +                          b_misc/date_time.c: 19: {;../../lib_misc/date_time.c: 20:     if (t->sec >= 59)
  6976  00243C  EE20 F002          	lfsr	2,2
  6977  002440  500A               	movf	datetime_increase_seconds@t^0,w,c
  6978  002442  26D9               	addwf	fsr2l,f,c
  6979  002444  500B               	movf	(datetime_increase_seconds@t+1)^0,w,c
  6980  002446  22DA               	addwfc	fsr2h,f,c
  6981  002448  0E3A               	movlw	58
  6982  00244A  64DF               	cpfsgt	indf2,c
  6983  00244C  EF2A  F012         	goto	i2u448_41
  6984  002450  EF2D  F012         	goto	i2u448_40
  6985  002454                     i2u448_41:
  6986  002454  FFFF               	dw	65535	; assembler added errata NOP
  6987  002456  EF3E  F012         	goto	i2l4335
  6988  00245A                     i2u448_40:
  6989  00245A  FFFF               	dw	65535	; assembler added errata NOP
  6990  00245C                     
  6991                           ;../../lib_misc/date_time.c: 21:     {;../../lib_misc/date_time.c: 22:         t->sec = 
      +                          0;
  6992  00245C  EE20 F002          	lfsr	2,2
  6993  002460  500A               	movf	datetime_increase_seconds@t^0,w,c
  6994  002462  26D9               	addwf	fsr2l,f,c
  6995  002464  500B               	movf	(datetime_increase_seconds@t+1)^0,w,c
  6996  002466  22DA               	addwfc	fsr2h,f,c
  6997  002468  0E00               	movlw	0
  6998  00246A  6EDF               	movwf	indf2,c
  6999  00246C                     
  7000                           ;../../lib_misc/date_time.c: 23:         datetime_increase_minutes(t);
  7001  00246C  C00A  F007         	movff	datetime_increase_seconds@t,i2datetime_increase_minutes@t
  7002  002470  C00B  F008         	movff	datetime_increase_seconds@t+1,i2datetime_increase_minutes@t+1
  7003  002474  EC49  F012         	call	i2_datetime_increase_minutes	;wreg free
  7004                           
  7005                           ;../../lib_misc/date_time.c: 24:     }
  7006  002478  EF46  F012         	goto	i2l593
  7007  00247C                     i2l4335:
  7008  00247C  FFFF               	dw	65535	; assembler added errata NOP
  7009                           
  7010                           ;../../lib_misc/date_time.c: 26:     {;../../lib_misc/date_time.c: 27:         t->sec++;
  7011  00247E  EE20 F002          	lfsr	2,2
  7012  002482  500A               	movf	datetime_increase_seconds@t^0,w,c
  7013  002484  26D9               	addwf	fsr2l,f,c
  7014  002486  500B               	movf	(datetime_increase_seconds@t+1)^0,w,c
  7015  002488  22DA               	addwfc	fsr2h,f,c
  7016  00248A  2ADF               	incf	indf2,f,c
  7017  00248C                     i2l593:
  7018  00248C  FFFF               	dw	65535	; assembler added errata NOP
  7019  00248E  0012               	return		;funcret
  7020  002490  FFFF               	dw	65535	; errata NOP
  7021  002492                     __end_of_datetime_increase_seconds:
  7022                           	opt callstack 0
  7023                           
  7024 ;; *************** function i2_datetime_increase_minutes *****************
  7025 ;; Defined at:
  7026 ;;		line 44 in file "../../lib_misc/date_time.c"
  7027 ;; Parameters:    Size  Location     Type
  7028 ;;  t               2    6[COMRAM] PTR struct .
  7029 ;;		 -> t(7), 
  7030 ;; Auto vars:     Size  Location     Type
  7031 ;;		None
  7032 ;; Return value:  Size  Location     Type
  7033 ;;                  1    wreg      void 
  7034 ;; Registers used:
  7035 ;;		wreg, fsr2l, fsr2h, status,2, status,0, cstack
  7036 ;; Tracked objects:
  7037 ;;		On entry : 0/0
  7038 ;;		On exit  : 0/0
  7039 ;;		Unchanged: 0/0
  7040 ;; Data sizes:     COMRAM   BANK0   BANK1   BANK2   BANK3   BANK4   BANK5
  7041 ;;      Params:         2       0       0       0       0       0       0
  7042 ;;      Locals:         0       0       0       0       0       0       0
  7043 ;;      Temps:          1       0       0       0       0       0       0
  7044 ;;      Totals:         3       0       0       0       0       0       0
  7045 ;;Total ram usage:        3 bytes
  7046 ;; Hardware stack levels used:    1
  7047 ;; Hardware stack levels required when called:    2
  7048 ;; This function calls:
  7049 ;;		i2_datetime_increase_hours
  7050 ;; This function is called by:
  7051 ;;		_datetime_increase_seconds
  7052 ;; This function uses a non-reentrant model
  7053 ;;
  7054                           
  7055                           	psect	text33
  7056  002492                     __ptext33:
  7057                           	opt callstack 0
  7058  002492                     i2_datetime_increase_minutes:
  7059                           	opt callstack 0
  7060  002492  FFFF               	dw	65535	; assembler added errata NOP
  7061  002494                     
  7062                           ;../../lib_misc/date_time.c: 44: void datetime_increase_minutes(date_time_t *t);../../li
      +                          b_misc/date_time.c: 45: {;../../lib_misc/date_time.c: 46:     if (t->min >= 59)
  7063  002494  EE20 F001          	lfsr	2,1
  7064  002498  5007               	movf	i2datetime_increase_minutes@t^0,w,c
  7065  00249A  26D9               	addwf	fsr2l,f,c
  7066  00249C  5008               	movf	(i2datetime_increase_minutes@t+1)^0,w,c
  7067  00249E  22DA               	addwfc	fsr2h,f,c
  7068  0024A0  0E3A               	movlw	58
  7069  0024A2  64DF               	cpfsgt	indf2,c
  7070  0024A4  EF56  F012         	goto	i2u447_41
  7071  0024A8  EF59  F012         	goto	i2u447_40
  7072  0024AC                     i2u447_41:
  7073  0024AC  FFFF               	dw	65535	; assembler added errata NOP
  7074  0024AE  EF6A  F012         	goto	i2l4327
  7075  0024B2                     i2u447_40:
  7076  0024B2  FFFF               	dw	65535	; assembler added errata NOP
  7077  0024B4                     
  7078                           ;../../lib_misc/date_time.c: 47:     {;../../lib_misc/date_time.c: 48:         t->min = 
      +                          0;
  7079  0024B4  EE20 F001          	lfsr	2,1
  7080  0024B8  5007               	movf	i2datetime_increase_minutes@t^0,w,c
  7081  0024BA  26D9               	addwf	fsr2l,f,c
  7082  0024BC  5008               	movf	(i2datetime_increase_minutes@t+1)^0,w,c
  7083  0024BE  22DA               	addwfc	fsr2h,f,c
  7084  0024C0  0E00               	movlw	0
  7085  0024C2  6EDF               	movwf	indf2,c
  7086  0024C4                     
  7087                           ;../../lib_misc/date_time.c: 49:         datetime_increase_hours(t);
  7088  0024C4  C007  F004         	movff	i2datetime_increase_minutes@t,i2datetime_increase_hours@t
  7089  0024C8  C008  F005         	movff	i2datetime_increase_minutes@t+1,i2datetime_increase_hours@t+1
  7090  0024CC  EC0D  F013         	call	i2_datetime_increase_hours	;wreg free
  7091                           
  7092                           ;../../lib_misc/date_time.c: 50:     }
  7093  0024D0  EF72  F012         	goto	i2l603
  7094  0024D4                     i2l4327:
  7095  0024D4  FFFF               	dw	65535	; assembler added errata NOP
  7096                           
  7097                           ;../../lib_misc/date_time.c: 52:     {;../../lib_misc/date_time.c: 53:         t->min++;
  7098  0024D6  EE20 F001          	lfsr	2,1
  7099  0024DA  5007               	movf	i2datetime_increase_minutes@t^0,w,c
  7100  0024DC  26D9               	addwf	fsr2l,f,c
  7101  0024DE  5008               	movf	(i2datetime_increase_minutes@t+1)^0,w,c
  7102  0024E0  22DA               	addwfc	fsr2h,f,c
  7103  0024E2  2ADF               	incf	indf2,f,c
  7104  0024E4                     i2l603:
  7105  0024E4  FFFF               	dw	65535	; assembler added errata NOP
  7106  0024E6  0012               	return		;funcret
  7107  0024E8  FFFF               	dw	65535	; errata NOP
  7108  0024EA                     __end_ofi2_datetime_increase_minutes:
  7109                           	opt callstack 0
  7110                           
  7111 ;; *************** function i2_datetime_increase_hours *****************
  7112 ;; Defined at:
  7113 ;;		line 70 in file "../../lib_misc/date_time.c"
  7114 ;; Parameters:    Size  Location     Type
  7115 ;;  t               2    3[COMRAM] PTR struct .
  7116 ;;		 -> t(7), 
  7117 ;; Auto vars:     Size  Location     Type
  7118 ;;		None
  7119 ;; Return value:  Size  Location     Type
  7120 ;;                  1    wreg      void 
  7121 ;; Registers used:
  7122 ;;		wreg, fsr2l, fsr2h, status,2, status,0, cstack
  7123 ;; Tracked objects:
  7124 ;;		On entry : 0/0
  7125 ;;		On exit  : 0/0
  7126 ;;		Unchanged: 0/0
  7127 ;; Data sizes:     COMRAM   BANK0   BANK1   BANK2   BANK3   BANK4   BANK5
  7128 ;;      Params:         2       0       0       0       0       0       0
  7129 ;;      Locals:         0       0       0       0       0       0       0
  7130 ;;      Temps:          1       0       0       0       0       0       0
  7131 ;;      Totals:         3       0       0       0       0       0       0
  7132 ;;Total ram usage:        3 bytes
  7133 ;; Hardware stack levels used:    1
  7134 ;; Hardware stack levels required when called:    1
  7135 ;; This function calls:
  7136 ;;		i2_datetime_increase_days
  7137 ;; This function is called by:
  7138 ;;		i2_datetime_increase_minutes
  7139 ;; This function uses a non-reentrant model
  7140 ;;
  7141                           
  7142                           	psect	text34
  7143  00261A                     __ptext34:
  7144                           	opt callstack 0
  7145  00261A                     i2_datetime_increase_hours:
  7146                           	opt callstack 0
  7147  00261A  FFFF               	dw	65535	; assembler added errata NOP
  7148  00261C                     
  7149                           ;../../lib_misc/date_time.c: 70: void datetime_increase_hours(date_time_t *t);../../lib_
      +                          misc/date_time.c: 71: {;../../lib_misc/date_time.c: 72:     if (t->hrs >= 23)
  7150  00261C  C004  FFD9         	movff	i2datetime_increase_hours@t,fsr2l
  7151  002620  C005  FFDA         	movff	i2datetime_increase_hours@t+1,fsr2h
  7152  002624  0E16               	movlw	22
  7153  002626  64DF               	cpfsgt	indf2,c
  7154  002628  EF18  F013         	goto	i2u330_41
  7155  00262C  EF1B  F013         	goto	i2u330_40
  7156  002630                     i2u330_41:
  7157  002630  FFFF               	dw	65535	; assembler added errata NOP
  7158  002632  EF2A  F013         	goto	i2l3649
  7159  002636                     i2u330_40:
  7160  002636  FFFF               	dw	65535	; assembler added errata NOP
  7161  002638                     
  7162                           ;../../lib_misc/date_time.c: 73:     {;../../lib_misc/date_time.c: 74:         t->hrs = 
      +                          0;
  7163  002638  C004  FFD9         	movff	i2datetime_increase_hours@t,fsr2l
  7164  00263C  C005  FFDA         	movff	i2datetime_increase_hours@t+1,fsr2h
  7165  002640  0E00               	movlw	0
  7166  002642  6EDF               	movwf	indf2,c
  7167  002644                     
  7168                           ;../../lib_misc/date_time.c: 75:         datetime_increase_days(t);
  7169  002644  C004  F001         	movff	i2datetime_increase_hours@t,i2datetime_increase_days@t
  7170  002648  C005  F002         	movff	i2datetime_increase_hours@t+1,i2datetime_increase_days@t+1
  7171  00264C  EC33  F013         	call	i2_datetime_increase_days	;wreg free
  7172                           
  7173                           ;../../lib_misc/date_time.c: 76:     }
  7174  002650  EF30  F013         	goto	i2l613
  7175  002654                     i2l3649:
  7176  002654  FFFF               	dw	65535	; assembler added errata NOP
  7177                           
  7178                           ;../../lib_misc/date_time.c: 78:     {;../../lib_misc/date_time.c: 79:         t->hrs++;
  7179  002656  C004  FFD9         	movff	i2datetime_increase_hours@t,fsr2l
  7180  00265A  C005  FFDA         	movff	i2datetime_increase_hours@t+1,fsr2h
  7181  00265E  2ADF               	incf	indf2,f,c
  7182  002660                     i2l613:
  7183  002660  FFFF               	dw	65535	; assembler added errata NOP
  7184  002662  0012               	return		;funcret
  7185  002664  FFFF               	dw	65535	; errata NOP
  7186  002666                     __end_ofi2_datetime_increase_hours:
  7187                           	opt callstack 0
  7188                           
  7189 ;; *************** function i2_datetime_increase_days *****************
  7190 ;; Defined at:
  7191 ;;		line 95 in file "../../lib_misc/date_time.c"
  7192 ;; Parameters:    Size  Location     Type
  7193 ;;  t               2    0[COMRAM] PTR struct .
  7194 ;;		 -> t(7), 
  7195 ;; Auto vars:     Size  Location     Type
  7196 ;;		None
  7197 ;; Return value:  Size  Location     Type
  7198 ;;                  1    wreg      void 
  7199 ;; Registers used:
  7200 ;;		wreg, fsr2l, fsr2h, status,2, status,0
  7201 ;; Tracked objects:
  7202 ;;		On entry : 0/0
  7203 ;;		On exit  : 0/0
  7204 ;;		Unchanged: 0/0
  7205 ;; Data sizes:     COMRAM   BANK0   BANK1   BANK2   BANK3   BANK4   BANK5
  7206 ;;      Params:         2       0       0       0       0       0       0
  7207 ;;      Locals:         0       0       0       0       0       0       0
  7208 ;;      Temps:          1       0       0       0       0       0       0
  7209 ;;      Totals:         3       0       0       0       0       0       0
  7210 ;;Total ram usage:        3 bytes
  7211 ;; Hardware stack levels used:    1
  7212 ;; This function calls:
  7213 ;;		Nothing
  7214 ;; This function is called by:
  7215 ;;		i2_datetime_increase_hours
  7216 ;; This function uses a non-reentrant model
  7217 ;;
  7218                           
  7219                           	psect	text35
  7220  002666                     __ptext35:
  7221                           	opt callstack 0
  7222  002666                     i2_datetime_increase_days:
  7223                           	opt callstack 0
  7224  002666  FFFF               	dw	65535	; assembler added errata NOP
  7225  002668                     
  7226                           ;../../lib_misc/date_time.c: 95: void datetime_increase_days(date_time_t *t);../../lib_m
      +                          isc/date_time.c: 96: {;../../lib_misc/date_time.c: 97:     if (t->day >= 23)
  7227  002668  EE20 F004          	lfsr	2,4
  7228  00266C  5001               	movf	i2datetime_increase_days@t^0,w,c
  7229  00266E  26D9               	addwf	fsr2l,f,c
  7230  002670  5002               	movf	(i2datetime_increase_days@t+1)^0,w,c
  7231  002672  22DA               	addwfc	fsr2h,f,c
  7232  002674  0E16               	movlw	22
  7233  002676  64DF               	cpfsgt	indf2,c
  7234  002678  EF40  F013         	goto	i2u309_41
  7235  00267C  EF43  F013         	goto	i2u309_40
  7236  002680                     i2u309_41:
  7237  002680  FFFF               	dw	65535	; assembler added errata NOP
  7238  002682  EF4E  F013         	goto	i2l3501
  7239  002686                     i2u309_40:
  7240  002686  FFFF               	dw	65535	; assembler added errata NOP
  7241  002688                     
  7242                           ;../../lib_misc/date_time.c: 98:     {;../../lib_misc/date_time.c: 99:         t->day = 
      +                          0;
  7243  002688  EE20 F004          	lfsr	2,4
  7244  00268C  5001               	movf	i2datetime_increase_days@t^0,w,c
  7245  00268E  26D9               	addwf	fsr2l,f,c
  7246  002690  5002               	movf	(i2datetime_increase_days@t+1)^0,w,c
  7247  002692  22DA               	addwfc	fsr2h,f,c
  7248  002694  0E00               	movlw	0
  7249  002696  6EDF               	movwf	indf2,c
  7250                           
  7251                           ;../../lib_misc/date_time.c: 100:     }
  7252  002698  EF56  F013         	goto	i2l623
  7253  00269C                     i2l3501:
  7254  00269C  FFFF               	dw	65535	; assembler added errata NOP
  7255                           
  7256                           ;../../lib_misc/date_time.c: 102:     {;../../lib_misc/date_time.c: 103:         t->day+
      +                          +;
  7257  00269E  EE20 F004          	lfsr	2,4
  7258  0026A2  5001               	movf	i2datetime_increase_days@t^0,w,c
  7259  0026A4  26D9               	addwf	fsr2l,f,c
  7260  0026A6  5002               	movf	(i2datetime_increase_days@t+1)^0,w,c
  7261  0026A8  22DA               	addwfc	fsr2h,f,c
  7262  0026AA  2ADF               	incf	indf2,f,c
  7263  0026AC                     i2l623:
  7264  0026AC  FFFF               	dw	65535	; assembler added errata NOP
  7265  0026AE  0012               	return		;funcret
  7266  0026B0  FFFF               	dw	65535	; errata NOP
  7267  0026B2                     __end_ofi2_datetime_increase_days:
  7268                           	opt callstack 0
  7269                           
  7270                           	psect	rparam
  7271  0000                     
  7272                           	psect	temp
  7273  000061                     btemp:
  7274                           	opt callstack 0
  7275  000061                     	ds	1
  7276  0000                     int$flags	set	btemp
  7277  0000                     wtemp8	set	btemp+1
  7278  0000                     ttemp5	set	btemp+1
  7279  0000                     ttemp6	set	btemp+4
  7280  0000                     ttemp7	set	btemp+8
  7281                           tosu	equ	0xFFF
  7282                           tosh	equ	0xFFE
  7283                           tosl	equ	0xFFD
  7284                           stkptr	equ	0xFFC
  7285                           pclatu	equ	0xFFB
  7286                           pclath	equ	0xFFA
  7287                           pcl	equ	0xFF9
  7288                           tblptru	equ	0xFF8
  7289                           tblptrh	equ	0xFF7
  7290                           tblptrl	equ	0xFF6
  7291                           tablat	equ	0xFF5
  7292                           prodh	equ	0xFF4
  7293                           prodl	equ	0xFF3
  7294                           indf0	equ	0xFEF
  7295                           postinc0	equ	0xFEE
  7296                           postdec0	equ	0xFED
  7297                           preinc0	equ	0xFEC
  7298                           plusw0	equ	0xFEB
  7299                           fsr0h	equ	0xFEA
  7300                           fsr0l	equ	0xFE9
  7301                           wreg	equ	0xFE8
  7302                           indf1	equ	0xFE7
  7303                           postinc1	equ	0xFE6
  7304                           postdec1	equ	0xFE5
  7305                           preinc1	equ	0xFE4
  7306                           plusw1	equ	0xFE3
  7307                           fsr1h	equ	0xFE2
  7308                           fsr1l	equ	0xFE1
  7309                           bsr	equ	0xFE0
  7310                           indf2	equ	0xFDF
  7311                           postinc2	equ	0xFDE
  7312                           postdec2	equ	0xFDD
  7313                           preinc2	equ	0xFDC
  7314                           plusw2	equ	0xFDB
  7315                           fsr2h	equ	0xFDA
  7316                           fsr2l	equ	0xFD9
  7317                           status	equ	0xFD8


Data Sizes:
    Strings     137
    Constant    0
    Data        25
    BSS         24
    Persistent  0
    Stack       0

Auto Spaces:
    Space          Size  Autos    Used
    COMRAM          126     77      96
    BANK0           128     81     111
    BANK1           256      0       0
    BANK2           256      0       0
    BANK3           256      0       0
    BANK4           256      0       0
    BANK5           256      0       0

Pointer List with Targets:

    uart_write_date@F3039	PTR const unsigned char [7] size(2) Largest target is 10
		 -> STR_23(CODE[7]), STR_22(CODE[9]), STR_21(CODE[7]), STR_20(CODE[9]), 
		 -> STR_19(CODE[10]), STR_18(CODE[8]), STR_17(CODE[7]), 

    datetime_increase_days@t	PTR struct . size(2) Largest target is 7
		 -> t(COMRAM[7]), 

    datetime_decrease_days@t	PTR struct . size(2) Largest target is 7
		 -> t(COMRAM[7]), 

    datetime_increase_hours@t	PTR struct . size(2) Largest target is 7
		 -> t(COMRAM[7]), 

    datetime_decrease_hours@t	PTR struct . size(2) Largest target is 7
		 -> t(COMRAM[7]), 

    datetime_increase_minutes@t	PTR struct . size(2) Largest target is 7
		 -> t(COMRAM[7]), 

    datetime_decrease_minutes@t	PTR struct . size(2) Largest target is 7
		 -> t(COMRAM[7]), 

    datetime_increase_seconds@t	PTR struct . size(2) Largest target is 7
		 -> t(COMRAM[7]), 

    bin_2_bcd@bcd	PTR unsigned char  size(2) Largest target is 1
		 -> ds1307_set_time@tmp(COMRAM[1]), 

    dec_2_bcd@bcd	PTR unsigned char  size(2) Largest target is 5
		 -> uart_write_temperature@bcd(COMRAM[5]), uart_write_date@bcd(COMRAM[5]), uart_write_u16@bcd(COMRAM[5]), uart_write_u8@bcd(COMRAM[5]), 
		 -> uart_write_char@bcd(COMRAM[5]), main@bcd(BANK0[5]), 

    sp__u4_to_bin	PTR const unsigned char  size(2) Largest target is 5
		 -> STR_16(CODE[5]), STR_15(CODE[5]), STR_14(CODE[5]), STR_13(CODE[5]), 
		 -> STR_12(CODE[5]), STR_11(CODE[5]), STR_10(CODE[5]), STR_9(CODE[5]), 
		 -> STR_8(CODE[5]), STR_7(CODE[5]), STR_6(CODE[5]), STR_5(CODE[5]), 
		 -> STR_4(CODE[5]), STR_3(CODE[5]), STR_2(CODE[5]), STR_1(CODE[5]), 


Critical Paths under _main in COMRAM

    _uart_init->___fldiv
    _ceilf->___fldiv
    ___flmul->___xxtofl
    ___fldiv->___flmul
    ___fladd->___fldiv
    _pcf8574_write_port->_i2c_write
    _i2c_write->_i2c_wait_ack
    _datetime_increase_minutes->_datetime_increase_hours
    _datetime_increase_hours->_datetime_increase_days
    _datetime_decrease_minutes->_datetime_decrease_hours
    _datetime_decrease_hours->_datetime_decrease_days

Critical Paths under _timer2_irq in COMRAM

    _timer2_irq->_ds1307_set_time
    _ds1307_set_time->_bin_2_bcd
    i2_i2c_write->i2_i2c_wait_ack
    _bin_2_bcd->___awdiv
    _datetime_increase_seconds->i2_datetime_increase_minutes
    i2_datetime_increase_minutes->i2_datetime_increase_hours
    i2_datetime_increase_hours->i2_datetime_increase_days

Critical Paths under _main in BANK0

    _main->_uart_init
    _uart_init->_ceilf
    _ceilf->___fladd
    ___fladd->___fldiv

Critical Paths under _timer2_irq in BANK0

    None.

Critical Paths under _main in BANK1

    None.

Critical Paths under _timer2_irq in BANK1

    None.

Critical Paths under _main in BANK2

    None.

Critical Paths under _timer2_irq in BANK2

    None.

Critical Paths under _main in BANK3

    None.

Critical Paths under _timer2_irq in BANK3

    None.

Critical Paths under _main in BANK4

    None.

Critical Paths under _timer2_irq in BANK4

    None.

Critical Paths under _main in BANK5

    None.

Critical Paths under _timer2_irq in BANK5

    None.

Call Graph Tables:

 ---------------------------------------------------------------------------------
 (Depth) Function   	        Calls       Base Space   Used Autos Params    Refs
 ---------------------------------------------------------------------------------
 (0) _main                                                17    17      0   24531
                                             64 BANK0     17    17      0
            _datetime_decrease_hours
          _datetime_decrease_minutes
            _datetime_increase_hours
          _datetime_increase_minutes
                          _dec_2_bcd
                           _delay_ms
                 _pcf8574_write_port
                       _pwm_set_duty
                          _uart_init
                         _uart_write
 ---------------------------------------------------------------------------------
 (1) _uart_write                                           2     1      1    7644
                                             30 COMRAM     2     1      1
 ---------------------------------------------------------------------------------
 (1) _uart_init                                           11     5      6    8174
                                             53 BANK0     11     5      6
                            ___fladd
                            ___fldiv
                            ___flmul
                            ___fltol
                           ___xxtofl
                              _ceilf
                           _delay_ms
 ---------------------------------------------------------------------------------
 (2) _delay_ms                                             6     4      2     646
                                             30 COMRAM     6     4      2
 ---------------------------------------------------------------------------------
 (2) _ceilf                                               20    16      4     414
                                             33 BANK0     20    16      4
                            ___fladd (ARG)
                            ___fldiv (ARG)
                            ___flmul (ARG)
                           ___xxtofl (ARG)
 ---------------------------------------------------------------------------------
 (2) ___xxtofl                                            14    10      4     398
                                             30 COMRAM    14    10      4
 ---------------------------------------------------------------------------------
 (2) ___fltol                                             10     6      4     305
                                             30 COMRAM    10     6      4
 ---------------------------------------------------------------------------------
 (2) ___flmul                                             25    17      8    1744
                                             44 COMRAM    25    17      8
                           ___xxtofl (ARG)
 ---------------------------------------------------------------------------------
 (2) ___fldiv                                             25    17      8    2003
                                             69 COMRAM     8     0      8
                                              0 BANK0     17    17      0
                            ___flmul (ARG)
                           ___xxtofl (ARG)
 ---------------------------------------------------------------------------------
 (2) ___fladd                                             16     8      8    2388
                                             17 BANK0     16     8      8
                            ___fldiv (ARG)
                            ___flmul (ARG)
                           ___xxtofl (ARG)
 ---------------------------------------------------------------------------------
 (1) _pwm_set_duty                                         5     3      2     959
                                             30 COMRAM     5     3      2
 ---------------------------------------------------------------------------------
 (1) _pcf8574_write_port                                   3     1      2    2391
                                             34 COMRAM     3     1      2
                          _i2c_start
                           _i2c_stop
                          _i2c_write
 ---------------------------------------------------------------------------------
 (2) _i2c_write                                            3     2      1    1476
                                             31 COMRAM     3     2      1
                       _i2c_wait_ack
 ---------------------------------------------------------------------------------
 (3) _i2c_wait_ack                                         2     2      0      46
                                             30 COMRAM     1     1      0
 ---------------------------------------------------------------------------------
 (2) _i2c_stop                                             1     1      0       0
 ---------------------------------------------------------------------------------
 (2) _i2c_start                                            2     2      0      23
                                             30 COMRAM     1     1      0
 ---------------------------------------------------------------------------------
 (1) _dec_2_bcd                                            4     0      4    2310
                                             30 COMRAM     4     0      4
 ---------------------------------------------------------------------------------
 (1) _datetime_increase_minutes                            3     1      2     596
                                             36 COMRAM     3     1      2
            _datetime_increase_hours
 ---------------------------------------------------------------------------------
 (2) _datetime_increase_hours                              3     1      2     382
                                             33 COMRAM     3     1      2
             _datetime_increase_days
 ---------------------------------------------------------------------------------
 (3) _datetime_increase_days                               3     1      2     142
                                             30 COMRAM     3     1      2
 ---------------------------------------------------------------------------------
 (1) _datetime_decrease_minutes                            2     0      2     622
                                             34 COMRAM     2     0      2
            _datetime_decrease_hours
 ---------------------------------------------------------------------------------
 (2) _datetime_decrease_hours                              2     0      2     382
                                             32 COMRAM     2     0      2
             _datetime_decrease_days
 ---------------------------------------------------------------------------------
 (3) _datetime_decrease_days                               2     0      2     142
                                             30 COMRAM     2     0      2
 ---------------------------------------------------------------------------------
 Estimated maximum stack depth 3
 ---------------------------------------------------------------------------------
 (Depth) Function   	        Calls       Base Space   Used Autos Params    Refs
 ---------------------------------------------------------------------------------
 (4) _timer2_irq                                           7     7      0    3239
                                             23 COMRAM     7     7      0
          _datetime_increase_seconds
                    _ds1307_set_time
 ---------------------------------------------------------------------------------
 (5) _ds1307_set_time                                     10     2      8    2755
                                             13 COMRAM    10     2      8
                          _bin_2_bcd
                        i2_i2c_start
                         i2_i2c_stop
                        i2_i2c_write
 ---------------------------------------------------------------------------------
 (6) i2_i2c_write                                          3     2      1     348
                                              1 COMRAM     3     2      1
                     i2_i2c_wait_ack
 ---------------------------------------------------------------------------------
 (7) i2_i2c_wait_ack                                       2     2      0      46
                                              0 COMRAM     1     1      0
 ---------------------------------------------------------------------------------
 (6) i2_i2c_stop                                           1     1      0       0
 ---------------------------------------------------------------------------------
 (6) i2_i2c_start                                          2     2      0      23
                                              0 COMRAM     1     1      0
 ---------------------------------------------------------------------------------
 (6) _bin_2_bcd                                            5     3      2    1498
                                              8 COMRAM     5     3      2
                            ___awdiv
                            ___awmod
 ---------------------------------------------------------------------------------
 (7) ___awmod                                              6     2      4     448
                                              0 COMRAM     6     2      4
 ---------------------------------------------------------------------------------
 (7) ___awdiv                                              8     4      4     452
                                              0 COMRAM     8     4      4
 ---------------------------------------------------------------------------------
 (5) _datetime_increase_seconds                            3     1      2     484
                                              9 COMRAM     3     1      2
        i2_datetime_increase_minutes
 ---------------------------------------------------------------------------------
 (6) i2_datetime_increase_minutes                          3     1      2     320
                                              6 COMRAM     3     1      2
          i2_datetime_increase_hours
 ---------------------------------------------------------------------------------
 (7) i2_datetime_increase_hours                            3     1      2     206
                                              3 COMRAM     3     1      2
           i2_datetime_increase_days
 ---------------------------------------------------------------------------------
 (8) i2_datetime_increase_days                             3     1      2      92
                                              0 COMRAM     3     1      2
 ---------------------------------------------------------------------------------
 Estimated maximum stack depth 8
 ---------------------------------------------------------------------------------

 Call Graph Graphs:

 _main (ROOT)
   _datetime_decrease_hours
     _datetime_decrease_days
   _datetime_decrease_minutes
     _datetime_decrease_hours
       _datetime_decrease_days
   _datetime_increase_hours
     _datetime_increase_days
   _datetime_increase_minutes
     _datetime_increase_hours
       _datetime_increase_days
   _dec_2_bcd
   _delay_ms
   _pcf8574_write_port
     _i2c_start
     _i2c_stop
     _i2c_write
       _i2c_wait_ack
   _pwm_set_duty
   _uart_init
     ___fladd
       ___fldiv (ARG)
         ___flmul (ARG)
           ___xxtofl (ARG)
         ___xxtofl (ARG)
       ___flmul (ARG)
         ___xxtofl (ARG)
       ___xxtofl (ARG)
     ___fldiv
       ___flmul (ARG)
         ___xxtofl (ARG)
       ___xxtofl (ARG)
     ___flmul
       ___xxtofl (ARG)
     ___fltol
     ___xxtofl
     _ceilf
       ___fladd (ARG)
         ___fldiv (ARG)
           ___flmul (ARG)
             ___xxtofl (ARG)
           ___xxtofl (ARG)
         ___flmul (ARG)
           ___xxtofl (ARG)
         ___xxtofl (ARG)
       ___fldiv (ARG)
         ___flmul (ARG)
           ___xxtofl (ARG)
         ___xxtofl (ARG)
       ___flmul (ARG)
         ___xxtofl (ARG)
       ___xxtofl (ARG)
     _delay_ms
   _uart_write

 _timer2_irq (ROOT)
   _datetime_increase_seconds
     i2_datetime_increase_minutes
       i2_datetime_increase_hours
         i2_datetime_increase_days
   _ds1307_set_time
     _bin_2_bcd
       ___awdiv
       ___awmod
     i2_i2c_start
     i2_i2c_stop
     i2_i2c_write
       i2_i2c_wait_ack

 Address spaces:
Name               Size   Autos  Total    Cost      Usage
BIGRAM             5FF      0       0      17        0.0%
EEDATA             100      0       0       0        0.0%
BITBANK5           100      0       0      16        0.0%
BANK5              100      0       0      14        0.0%
BITBANK4           100      0       0      12        0.0%
BANK4              100      0       0      13        0.0%
BITBANK3           100      0       0      10        0.0%
BANK3              100      0       0      11        0.0%
BITBANK2           100      0       0       8        0.0%
BANK2              100      0       0       9        0.0%
BITBANK1           100      0       0       6        0.0%
BANK1              100      0       0       7        0.0%
BITBANK0            80      0       0       4        0.0%
BANK0               80     51      6F       5       86.7%
BITCOMRAM           7E      0       0       0        0.0%
COMRAM              7E     4D      60       1       76.2%
BITSFR               0      0       0     200        0.0%
SFR                  0      0       0     200        0.0%
STACK                0      0       0       2        0.0%
NULL                 0      0       0       0        0.0%
ABS                  0      0      CF      15        0.0%
DATA                 0      0      CF       3        0.0%
CODE                 0      0       0       0        0.0%


Microchip Technology PIC18 Macro Assembler V2.10 build 88905656 
Symbol Table                                                                                   Thu Apr 30 00:50:23 2020

                                         __size_of_datetime_decrease_days 004C  
                                                            ___fldiv@aexp 0090  
                                                            ___fldiv@bexp 008F  
                                                                       _t 005A  
                                                            ___fldiv@sign 0088  
                                        __size_of_datetime_decrease_hours 004C  
                                                          uart_write@data 001F  
                                                             _SSPSTATbits 000FC7  
                                                            ___awdiv@sign 0006  
                                     __end_ofi2_datetime_increase_minutes 24EA  
                                             i2_datetime_increase_minutes 2492  
                                                             __CFG_OSC$HS 000000  
                                                                     l213 22D0  
                                                                     l135 2796  
                                                                     l137 27AA  
                                                                     l153 22D8  
                                                                     l138 27AC  
                                                                     l171 2778  
                                                                     l156 22F0  
                                                                     l324 1FB2  
                                                                     l157 2324  
                                                                     l174 278E  
                                                                     l343 1C6E  
                                                                     l159 232A  
                                                                     l168 281A  
                                                                     l328 2072  
                                                                     l603 23DC  
                                                                     l613 2530  
                                                                     l623 257C  
                                                                     l608 25C8  
                                                                     l561 2272  
                                                                     l618 2614  
                                                                     l662 2756  
                                                                     l655 1E9E  
                                                                     l664 276A  
                                                                     l665 276E  
                                                                     l598 2434  
                                                                     _PR2 000FCB  
                                                            __CFG_BOR$OFF 000000  
                                                            ___awmod@sign 0006  
                                                            _pwm_set_duty 1F92  
                                                                     wreg 000FE8  
                                                            ___flmul@aexp 003E  
                                                            ___flmul@bexp 003F  
                                                            ___flmul@sign 0039  
                                                            ___flmul@temp 0044  
                                                            ___flmul@prod 0040  
                                                            __CFG_LVP$OFF 000000  
                                                            ___fltol@exp1 0028  
                                              ?_datetime_decrease_minutes 0023  
                                                            __CFG_WDT$OFF 000000  
                                                                    l1300 08C0  
                                                                    l1301 0876  
                                                                    l1402 108C  
                                                                    l1316 0A1A  
                                                                    l1308 0C30  
                                                                    l1068 1DA2  
                                                                    l1325 0B1E  
                                                                    l1326 0B06  
                                                                    l1440 18DA  
                                                                    l1353 1508  
                                                                    l1433 186E  
                                                                    l1426 17C2  
                                                                    l1355 1320  
                                                                    l1451 168C  
                                                                    l1364 1376  
                                                                    l4101 0CCC  
                                                                    l1429 1954  
                                                                    l1366 1406  
                                                                    l1358 12DA  
                                                                    l1367 13EE  
                                                                    l4111 0D10  
                                                                    l4103 0CCE  
                                                                    l1392 0F2E  
                                                                    l1448 175C  
                                                                    l4201 10B6  
                                                                    l4121 0D6E  
                                                                    l4113 0D38  
                                                                    l1385 0D22  
                                                                    l4105 0CE4  
                                                                    l1394 0FBE  
                                                                    l1299 08D6  
                                                                    l4203 10BE  
                                                                    l1395 0FA6  
                                                                    l4131 0DBE  
                                                                    l4123 0D78  
                                                                    l4115 0D4A  
                                                                    l4107 0CF8  
                                                                    l4211 1C8E  
                                                                    l4205 10C4  
                                                                    l4141 0E00  
                                                                    l4133 0DCA  
                                                                    l4125 0D8E  
                                                                    l1389 10D4  
                                                                    l4109 0D08  
                                                                    l4221 1CE6  
                                                                    l3511 2304  
                                                                    l3503 22D8  
                                                                    l4151 0E62  
                                                                    l4143 0E10  
                                                                    l4135 0DD8  
                                                                    l4127 0D9A  
                                                                    l4119 0D60  
                                                                    l4231 1D18  
                                                                    l4223 1CEA  
                                                                    l4215 1CA4  
                                                                    l3505 22EC  
                                                                    l5201 11EC  
                                                                    l4161 0F0E  
                                                                    l4153 0E7E  
                                                                    l4145 0E2A  
                                                                    l4137 0DE4  
                                                                    l4129 0DB2  
                                                                    l4081 0C44  
                                                                    l4241 1D48  
                                                                    l4233 1D24  
                                                                    l4225 1CFC  
                                                                    l4217 1CD4  
                                                                    l4209 1C74  
                                                                    l3531 2604  
                                                                    l3515 230C  
                                                                    l4411 1F96  
                                                                    l5203 11FC  
                                                                    l5211 121E  
                                                                    l4171 0F58  
                                                                    l4163 0F1A  
                                                                    l4155 0EA8  
                                                                    l4147 0E3A  
                                                                    l4139 0DF4  
                                                                    l4091 0C92  
                                                                    l4083 0C56  
                                                                    l4243 1D56  
                                                                    l4235 1D2E  
                                                                    l4219 1CD6  
                                                                    l3533 2538  
                                                                    l4421 238A  
                                                                    l3517 2310  
                                                                    l4413 1FAC  
                                                                    l5221 1264  
                                                                    l5213 1234  
                                                                    l5205 1204  
                                                                    l4181 0FE0  
                                                                    l4173 0F6A  
                                                                    l4165 0F2C  
                                                                    l4157 0EE2  
                                                                    l4149 0E56  
                                                                    l4093 0C9A  
                                                                    l4085 0C58  
                                                                    l4245 1D6A  
                                                                    l4261 17F0  
                                                                    l4253 1766  
                                                                    l5301 1E56  
                                                                    l3527 25D0  
                                                                    l4431 2404  
                                                                    l3535 2558  
                                                                    l4423 23AC  
                                                                    l3703 2776  
                                                                    l4415 1FC8  
                                                                    l5231 12B2  
                                                                    l5223 1274  
                                                                    l5215 1234  
                                                                    l5207 120A  
                                                                    l4191 1054  
                                                                    l4183 0FF2  
                                                                    l4175 0F9C  
                                                                    l4167 0F40  
                                                                    l4159 0EF0  
                                                                    l4095 0CAC  
                                                                    l4087 0C6E  
                                                                    l4079 0C38  
                                                                    l4247 1D80  
                                                                    l4271 1854  
                                                                    l4255 177A  
                                                                    l3711 1510  
                                                                    l5303 1E6E  
                                                                    l4407 2742  
                                                                    l5311 2154  
                                                                    l3529 25F0  
                                                                    l4433 2414  
                                                                    l3537 256C  
                                                                    l4425 23BC  
                                                                    l4441 1B52  
                                                                    l3705 278C  
                                                                    l4417 2014  
                                                                    l3801 07E8  
                                                                    l5241 130C  
                                                                    l5233 12C6  
                                                                    l5225 1284  
                                                                    l5161 10DC  
                                                                    l4193 1074  
                                                                    l4185 101C  
                                                                    l4169 0F54  
                                                                    l4097 0CB4  
                                                                    l4089 0C82  
                                                                    l4249 1D90  
                                                                    l4281 18C8  
                                                                    l4273 1858  
                                                                    l4265 1804  
                                                                    l4257 178C  
                                                                    l3713 1530  
                                                                    l5305 1E84  
                                                                    l5321 2178  
                                                                    l5313 2168  
                                                                    l4435 2424  
                                                                    l4427 23CC  
                                                                    l4451 1B9E  
                                                                    l4443 1B62  
                                                                    l4419 202A  
                                                                    l3811 07FC  
                                                                    l3803 07EC  
                                                                    l5251 1362  
                                                                    l5243 131C  
                                                                    l5235 12D8  
                                                                    l5227 1294  
                                                                    l5219 1248  
                                                                    l5171 1128  
                                                                    l5163 10EA  
                                                                    l4195 1092  
                                                                    l4179 0FD4  
                                                                    l4187 1020  
                                                                    l4099 0CBA  
                                                                    l4291 192E  
                                                                    l4283 18EE  
                                                                    l4275 1864  
                                                                    l4267 180E  
                                                                    l4259 17D4  
                                                                    l3731 170C  
                                                                    l3723 1636  
                                                                    l3715 1590  
                                                                    l3651 227A  
                                                                    l5307 1E90  
                                                                    l5331 218C  
                                                                    l5323 217C  
                                                                    l5315 216C  
                                                                    l4429 23E2  
                                                                    l4461 1C06  
                                                                    l4453 1BBE  
                                                                    l4445 1B72  
                                                                    l4437 1B34  
                                                                    l3901 0AD0  
                                                                    l3821 083C  
                                                                    l3813 0800  
                                                                    l3805 07F0  
                                                                    l3741 069C  
                                                                    l5261 13B2  
                                                                    l5253 1374  
                                                                    l5245 1336  
                                                                    l5237 12E6  
                                                                    l5229 129C  
                                                                    l5181 115E  
                                                                    l5173 1138  
                                                                    l5165 10FC  
                                                                    l4197 10A2  
                                                                    l4189 1040  
                                                                    l4293 1940  
                                                                    l4285 18F0  
                                                                    l4277 18A6  
                                                                    l4269 181C  
                                                                    l3733 173A  
                                                                    l3725 167C  
                                                                    l3717 15A6  
                                                                    l3653 2282  
                                                                    l5341 21EA  
                                                                    l5333 2190  
                                                                    l5325 2180  
                                                                    l5317 2170  
                                                                    l3671 24EC  
                                                                    l4471 1C62  
                                                                    l4463 1C0E  
                                                                    l4455 1BCE  
                                                                    l4447 1B86  
                                                                    l4439 1B42  
                                                                    l3911 0B40  
                                                                    l3903 0AE2  
                                                                    l3831 089C  
                                                                    l3823 085E  
                                                                    l3815 0804  
                                                                    l3807 07F4  
                                                                    l3751 06EA  
                                                                    l3743 06AE  
                                                                    l5271 143A  
                                                                    l5263 13E4  
                                                                    l5247 1350  
                                                                    l5255 1388  
                                                                    l5239 130A  
                                                                    l5191 11A2  
                                                                    l5183 1164  
                                                                    l5175 113C  
                                                                    l5167 10FE  
                                                                    l4199 10B4  
                                                                    l4295 1942  
                                                                    l4287 18F6  
                                                                    l4279 18B4  
                                                                    l3735 174A  
                                                                    l3719 15BA  
                                                                    l3727 16B2  
                                                                    l3663 22A8  
                                                                    l5335 2194  
                                                                    l5327 2184  
                                                                    l5319 2174  
                                                                    l3681 25A0  
                                                                    l3673 2508  
                                                                    l4465 1C2E  
                                                                    l4457 1BD6  
                                                                    l4449 1B96  
                                                                    l4481 2246  
                                                                    l4473 2200  
                                                                    l3921 0BBA  
                                                                    l3913 0B52  
                                                                    l3905 0AFC  
                                                                    l3841 08FE  
                                                                    l3833 08B0  
                                                                    l3825 086E  
                                                                    l3809 07F8  
                                                                    l3817 0808  
                                                                    l3761 0726  
                                                                    l3753 06EE  
                                                                    l3745 06B0  
                                                                    l5281 14BE  
                                                                    l5273 1464  
                                                                    l5257 139C  
                                                                    l5249 1356  
                                                                    l5193 11B2  
                                                                    l5185 1176  
                                                                    l5169 1114  
                                                                    l5177 1144  
                                                                    l4289 191A  
                                                                    l3729 16F8  
                                                                    l3665 22B0  
                                                                    l3657 229E  
                                                                    l5337 21B4  
                                                                    l5329 2188  
                                                                    l3683 25AC  
                                                                    l3675 2514  
                                                                    l4467 1C3E  
                                                                    l4459 1BF6  
                                                                    l3691 280A  
                                                                    l3931 0C02  
                                                                    l3923 0BE0  
                                                                    l3915 0B90  
                                                                    l3851 0948  
                                                                    l3835 08B2  
                                                                    l3827 088A  
                                                                    l3819 080E  
                                                                    l3771 075A  
                                                                    l3763 0728  
                                                                    l3747 06C6  
                                                                    l3755 06F6  
                                                                    l3739 068E  
                                                                    l5291 14FC  
                                                                    l5283 14DA  
                                                                    l5267 141C  
                                                                    l5275 1468  
                                                                    l5259 13A0  
                                                                    l5195 11B6  
                                                                    l5187 1178  
                                                                    l5179 1156  
                                                                    l3667 22C6  
                                                                    l5339 21DE  
                                                                    l3685 25BC  
                                                                    l3677 2524  
                                                                    l4469 1C46  
                                                                    l3693 280A  
                                                                    l4485 226A  
                                                                    l4477 221E  
                                                                    l3933 0C0A  
                                                                    l3925 0BE4  
                                                                    l3909 0B34  
                                                                    l3917 0B92  
                                                                    l3861 097C  
                                                                    l3853 0954  
                                                                    l3845 0912  
                                                                    l3837 08BE  
                                                                    l3829 0896  
                                                                    l3781 079C  
                                                                    l3773 076E  
                                                                    l3765 0730  
                                                                    l3757 0708  
                                                                    l3749 06DA  
                                                                    l5285 14E0  
                                                                    l5277 1488  
                                                                    l5269 1428  
                                                                    l5189 118E  
                                                                    l5197 11BE  
                                                                    l3679 2584  
                                                                    l3687 2794  
                                                                    l3695 280E  
                                                                    l3935 0C1C  
                                                                    l3927 0BF8  
                                                                    l3919 0BA8  
                                                                    l3871 09F8  
                                                                    l3855 095A  
                                                                    l3847 0924  
                                                                    l3839 08EA  
                                                                    l3863 0982  
                                                                    l3791 07D4  
                                                                    l3783 07B4  
                                                                    l3775 077E  
                                                                    l3767 0742  
                                                                    l3759 0710  
                                                                    l5287 14F2  
                                                                    l5279 149E  
                                                                    l5199 11D0  
                                                                    l3689 2794  
                                                                    l3697 2810  
                                                                    l3937 0C1E  
                                                                    l3929 0BFE  
                                                                    l3881 0A5E  
                                                                    l3865 09AE  
                                                                    l3873 0A08  
                                                                    l3857 096E  
                                                                    l3849 0936  
                                                                    l3793 07D8  
                                                                    l3785 07C6  
                                                                    l3777 0782  
                                                                    l3769 0744  
                                                                    l5289 14F8  
                                                                    l3699 2818  
                                                                    l3891 0A9A  
                                                                    l3883 0A6A  
                                                                    l3875 0A36  
                                                                    l3867 09E2  
                                                                    l3859 0970  
                                                                    l3795 07DC  
                                                                    l3787 07CA  
                                                                    l3779 078A  
                                                                    l5299 1DAE  
                                                                    l3893 0AA0  
                                                                    l3885 0A7C  
                                                                    l3877 0A4A  
                                                                    l3869 09E4  
                                                                    l3797 07E0  
                                                                    l3789 07D0  
                                                                    l3895 0AB6  
                                                                    l3887 0A7E  
                                                                    l3799 07E4  
                                                                    l3889 0A92  
                                                                    l3897 0AB8  
                                                                    l3899 0ACA  
                                                                    STR_1 063A  
                                                                    STR_2 0662  
                                                                    STR_3 064E  
                                                                    STR_4 0676  
                                                                    STR_5 0644  
                                                                    STR_6 066C  
                                                                    STR_7 0658  
                                                                    STR_8 0680  
                                                                    STR_9 063F  
                                                                    u3100 22EA  
                                                                    u3101 22E4  
                                                                    u3110 2302  
                                                                    u3111 22FC  
                                                                    u3120 2322  
                                                                    u3121 231C  
                                                                    u3130 25EE  
                                                                    u3131 25E8  
                                                                    u3140 2556  
                                                                    u4100 0C6C  
                                                                    u3141 2550  
                                                                    u4101 0C66  
                                                                    u4110 0C80  
                                                                    u3310 2298  
                                                                    u4111 0C7A  
                                                                    u3311 2292  
                                                                    u4200 0F68  
                                                                    u4120 0CCA  
                                                                    u3320 22C4  
                                                                    u4201 0F62  
                                                                    u4121 0CC4  
                                                                    u3321 22BE  
                                                                    u3330 2506  
                                                                    u4210 0F9A  
                                                                    u4130 0CE2  
                                                                    u3410 1630  
                                                                    u3331 2500  
                                                                    u4211 0F94  
                                                                    u4131 0CDC  
                                                                    u3411 162A  
                                                                    u3340 259E  
                                                                    u3500 0724  
                                                                    u4220 0FB8  
                                                                    u4140 0CF6  
                                                                    u4300 1CFA  
                                                                    u3420 165A  
                                                                    u3341 2598  
                                                                    u3501 071E  
                                                                    u4221 0FB2  
                                                                    u4141 0CF0  
                                                                    u4301 1CF4  
                                                                    u3405 15CE  
                                                                    u3350 27A8  
                                                                    u3510 0740  
                                                                    u4230 0FD2  
                                                                    u4150 0D36  
                                                                    u4310 1D12  
                                                                    u3430 167A  
                                                                    u3406 15DA  
                                                                    u3351 27A2  
                                                                    u3511 073A  
                                                                    u4231 0FCC  
                                                                    u4151 0D30  
                                                                    u4311 1D0C  
                                                                    u3431 1674  
                                                                    u3407 15EC  
                                                                    _PIE1 000F9D  
                                                                    u3360 278A  
                                                                    u3600 08AE  
                                                                    u3520 0758  
                                                                    u4240 0FF0  
                                                                    u4160 0D4A  
                                                                    u4320 1D42  
                                                                    u4400 18C6  
                                                                    u3440 16D6  
                                                                    u3361 2784  
                                                                    u3601 08A8  
                                                                    u3521 0752  
                                                                    u4241 0FEA  
                                                                    u4161 0D44  
                                                                    u4321 1D3C  
                                                                    u4401 18C0  
                                                                    u3425 164E  
                                                                    u3610 08D6  
                                                                    u3530 076C  
                                                                    u4250 103E  
                                                                    u4170 0ECA  
                                                                    u4090 0C54  
                                                                    u4330 1D6A  
                                                                    u4410 18DA  
                                                                    u3450 16F6  
                                                                    u3370 155C  
                                                                    u3611 08D0  
                                                                    u3531 0766  
                                                                    u4251 1038  
                                                                    u4091 0C4E  
                                                                    u4331 1D64  
                                                                    u4411 18D4  
                                                                    u3451 16F0  
                                                                    u3700 0A48  
                                                                    u3620 08E8  
                                                                    u3540 07B2  
                                                                    u4260 1072  
                                                                    u4180 0F2A  
                                                                    u4340 1D7E  
                                                                    u4420 18EC  
                                                                    u3460 1738  
                                                                    u3380 158E  
                                                                    u3701 0A42  
                                                                    u3621 08E2  
                                                                    u3541 07AC  
                                                                    u4261 106C  
                                                                    u4181 0F24  
                                                                    u4341 1D78  
                                                                    u4421 18E6  
                                                                    u3461 1732  
                                                                    u3445 16CA  
                                                                    u3381 1588  
                                                                    u3710 0A7A  
                                                                    u3630 08FC  
                                                                    u3550 07C4  
                                                                    u3470 06AC  
                                                                    u4270 10B2  
                                                                    u4190 0F52  
                                                                    u4430 192C  
                                                                    u4350 1778  
                                                                    u3390 15B8  
                                                                    u3711 0A74  
                                                                    u3631 08F6  
                                                                    u3551 07BE  
                                                                    u3471 06A6  
                                                                    u4271 10AC  
                                                                    u4191 0F4C  
                                                                    u4175 0EBE  
                                                                    u4431 1926  
                                                                    u4351 1772  
                                                                    u3391 15B2  
                                                                    u3375 1550  
                                                                    u3800 0B8E  
                                                                    u3720 0A90  
                                                                    u3640 0934  
                                                                    u3560 083A  
                                                                    u3480 06C4  
                                                                    u4280 1C8C  
                                                                    u4440 193E  
                                                                    u4360 178A  
                                                                    u4600 2754  
                                                                    u3801 0B88  
                                                                    u3721 0A8A  
                                                                    u3641 092E  
                                                                    u3561 0834  
                                                                    u3481 06BE  
                                                                    u4281 1C86  
                                                                    u4441 1938  
                                                                    u4361 1784  
                                                                    u4601 274E  
                                                                    u3810 0BA6  
                                                                    u3730 0AB4  
                                                                    u3650 0946  
                                                                    u3570 0856  
                                                                    u3490 06D8  
                                                                    u4290 1CC8  
                                                                    u4370 17EE  
                                                                    u4610 2768  
                                                                    u3811 0BA0  
                                                                    u3731 0AAE  
                                                                    u3651 0940  
                                                                    u3571 084E  
                                                                    u3491 06D2  
                                                                    u4371 17E8  
                                                                    u4611 2762  
                                                                    u4700 1C60  
                                                                    u4620 1FAA  
                                                                    u3820 0BBA  
                                                                    u3740 0ACA  
                                                                    u3660 096C  
                                                                    u3580 085A  
                                                                    u4380 184E  
                                                                    u4701 1C5A  
                                                                    u4621 1FA4  
                                                                    u3821 0BB4  
                                                                    u3741 0AC4  
                                                                    u3661 0966  
                                                                    u4381 1848  
                                                                    u4710 2218  
                                                                    u4630 1FC6  
                                                                    u3830 0BDE  
                                                                    u3750 0AE0  
                                                                    u3670 09AC  
                                                                    u3590 0888  
                                                                    u4390 18A0  
                                                                    u4711 2212  
                                                                    u4631 1FC0  
                                                                    u3831 0BD8  
                                                                    u3751 0ADA  
                                                                    u3671 09A6  
                                                                    u3591 0882  
                                                                    u4295 1CBC  
                                                                    u4391 189A  
                                                                    u4720 2240  
                                                                    u4640 2028  
                                                                    u3840 0BF6  
                                                                    u3760 0AFA  
                                                                    u3680 09F6  
                                                                    u5600 11A0  
                                                                    u4721 223A  
                                                                    u4641 2022  
                                                                    u3841 0BF0  
                                                                    u3761 0AF4  
                                                                    u3681 09F0  
                                                                    u5601 119A  
                                                                    u4650 23AA  
                                                                    u4730 2264  
                                                                    u3850 0C1A  
                                                                    u3770 0B18  
                                                                    u3690 0A34  
                                                                    u5610 11EA  
                                                                    u4651 23A4  
                                                                    u4731 225E  
                                                                    u3851 0C14  
                                                                    u3771 0B12  
                                                                    u3691 0A2E  
                                                                    u5611 11E4  
                                                                    u4660 2402  
                                                                    u3780 0B32  
                                                                    u5700 13B0  
                                                                    u5620 1232  
                                                                    u4661 23FC  
                                                                    u3781 0B2C  
                                                                    u5701 13AA  
                                                                    u5621 122C  
                                                                    u4670 1BB8  
                                                                    u3790 0B50  
                                                                    u5710 13E2  
                                                                    u5630 12B0  
                                                                    u5550 10FA  
                                                                    u4671 1BB2  
                                                                    u3791 0B4A  
                                                                    u5711 13DC  
                                                                    u5631 12AA  
                                                                    u5551 10F4  
                                                                    u4680 1BF0  
                                                                    u5720 1400  
                                                                    u5640 12D6  
                                                                    u5560 1112  
                                                                    u5800 21CC  
                                                                    u4681 1BEA  
                                                                    u5721 13FA  
                                                                    u5641 12D0  
                                                                    u5561 110C  
                                                                    u5801 21C0  
                                                                    u4690 1C28  
                                                                    u5730 141A  
                                                                    u5650 1308  
                                                                    u5570 1126  
                                                                    u4691 1C22  
                                                                    u5731 1414  
                                                                    u5651 1302  
                                                                    u5571 1120  
                                                                    u5740 1438  
                                                                    u5660 1334  
                                                                    u5580 1174  
                                                                    u5741 1432  
                                                                    u5661 132E  
                                                                    u5581 116E  
                                                                    i2l62 0312  
                                                                    u5750 1486  
                                                                    u5670 134E  
                                                                    u5590 118C  
                                                                    u5751 1480  
                                                                    u5671 1348  
                                                                    u5591 1186  
                                                                    u5760 14BC  
                                                                    u5680 1372  
                                                                    u5761 14B6  
                                                                    u5681 136C  
                                                                    u5770 14F0  
                                                                    u5690 139A  
                                                                    u5818 21D2  
                                                                    u5771 14EA  
                                                                    u5691 1394  
                                                                    u5780 1E82  
                                                                    u5781 1E7C  
                                                                    u5791 2160  
                                            i2datetime_increase_minutes@t 0007  
                                                                    _main 2154  
                                                                    fsr0h 000FEA  
                                                                    fsr2h 000FDA  
                                                                    fsr0l 000FE9  
                                                                    indf2 000FDF  
                                                                    fsr1l 000FE1  
                                                                    fsr2l 000FD9  
                                                                    btemp 0061  
                                                                    prodh 000FF4  
                                                                    prodl 000FF3  
                                          __end_of_datetime_increase_days 2582  
                                                                    start 0332  
                                                        pwm_set_duty@duty 001F  
                                                         ___fldiv@new_exp 0089  
                                                       ??_ds1307_set_time 0016  
                                                            ___param_bank 000000  
                                                           ?_i2c_wait_ack 0001  
                                      __size_ofi2_datetime_increase_hours 004C  
                                                           ___fltol@sign1 0027  
                                                         __end_of___fladd 0C36  
                                                                   ?_main 0001  
                                                datetime_increase_hours@t 0022  
                                                         __end_of___fldiv 150E  
                                                         __end_of___awdiv 1F92  
                                                                   STR_10 0667  
                                                                   STR_11 0653  
                                                                   STR_12 067B  
                                                                   STR_20 0614  
                                                                   STR_13 0649  
                                                                   STR_21 0625  
                                                                   STR_14 0671  
                                                                   STR_22 060B  
                                                                   STR_15 065D  
                                                                   STR_23 0633  
                                                                   STR_16 0685  
                                                                   STR_17 062C  
                                                                   STR_18 061D  
                                                                   STR_19 0601  
                                                         __end_of___awmod 2154  
                                                         __end_of___flmul 10DA  
                                                         __end_of___fltol 1DA8  
                                                         ___awdiv@divisor 0003  
                                                                   i2l135 27D2  
                                                                   i2l137 27E6  
                                                                   i2l153 2332  
                                                                   i2l138 27E8  
                                                                   i2l171 27B4  
                                                                   i2l156 234A  
                                                                   i2l157 237E  
                                                                   i2l502 273A  
                                                                   i2l174 27CA  
                                                                   i2l159 2384  
                                                                   i2l168 2832  
                                                                   i2l603 24E4  
                                                                   i2l613 2660  
                                                                   i2l623 26AC  
                                                                   i2l539 1B2E  
                                                                   i2l593 248C  
                                                         ___awdiv@counter 0005  
                                                                   _RCREG 000FAE  
                                                                   _SPBRG 000FAF  
                                                                   _TRISA 000F92  
                                                                   _TRISB 000F93  
                                                                   _TRISC 000F94  
                                                                   _TXREG 000FAD  
                                                  _datetime_decrease_days 25CE  
                                                       uart_write@uart_id 0020  
                                                                   _ceilf 150E  
                                                            main@segments 00C1  
                                                                   tablat 000FF5  
                                                                   plusw0 000FEB  
                                                                   plusw1 000FE3  
                                                                   plusw2 000FDB  
                                                             ?i2_i2c_stop 0001  
                                                                   ttemp5 0062  
                                                                   ttemp6 0065  
                                                                   ttemp7 0069  
                                                                   status 000FD8  
                                                                   wtemp8 0062  
                                              datetime_increase_minutes@t 0025  
                                              datetime_increase_seconds@t 000A  
                                                        ??i2_i2c_wait_ack 0001  
                                                i2_datetime_increase_days 2666  
                                                         __initialization 26B2  
                                                          ??_i2c_wait_ack 001F  
                                                            __end_of_main 21FC  
                                                    uart_write_date@F3039 00D1  
                                                        __end_of_i2c_stop 2792  
                                                                  ??_main 00C0  
                                                           __activetblptr 000002  
                                                                  ?_ceilf 00A1  
                                                                  _ADCON1 000FC1  
                                                                  _CCPR1L 000FBE  
                                                                  _CCPR2L 000FBB  
                                                        ___awdiv@dividend 0001  
                                                                  i2l1002 1F8E  
                                                                  i2l1015 2150  
                                                                  i2l3501 269C  
                                                                  i2l4301 27D0  
                                                                  i2l4311 2830  
                                                                  i2l4303 2822  
                                                                  i2l4321 2494  
                                                                  i2l3601 20E2  
                                                                  i2l4305 2822  
                                                                  i2l4323 24B4  
                                                                  i2l4331 245C  
                                                                  i2l3603 20F6  
                                                                  i2l3611 2128  
                                                                  i2l4315 27B2  
                                                                  i2l4307 2826  
                                                                  i2l4325 24C4  
                                                                  i2l4333 246C  
                                                                  i2l3541 1EA8  
                                                                  i2l3613 213E  
                                                                  i2l3605 2112  
                                                                  i2l4317 27C8  
                                                                  i2l3621 2346  
                                                                  i2l4309 2828  
                                                                  i2l4341 197C  
                                                                  i2l4327 24D4  
                                                                  i2l4335 247C  
                                                                  i2l3551 1EE2  
                                                                  i2l3543 1EBA  
                                                                  i2l3615 2146  
                                                                  i2l3607 211A  
                                                                  i2l3631 2366  
                                                                  i2l4351 19D8  
                                                                  i2l4329 243C  
                                                                  i2l3561 1F18  
                                                                  i2l3553 1EE6  
                                                                  i2l3545 1EC2  
                                                                  i2l3609 2122  
                                                                  i2l3633 236A  
                                                                  i2l4361 1A2C  
                                                                  i2l4345 19A4  
                                                                  i2l4337 195E  
                                                                  i2l3643 261C  
                                                                  i2l3571 1F58  
                                                                  i2l3563 1F2C  
                                                                  i2l3555 1EF0  
                                                                  i2l3547 1EC6  
                                                                  i2l3539 1EA4  
                                                                  i2l3627 235E  
                                                                  i2l3619 2332  
                                                                  i2l4363 1A3C  
                                                                  i2l4355 19FA  
                                                                  i2l3645 2638  
                                                                  i2l3573 1F60  
                                                                  i2l3565 1F34  
                                                                  i2l3557 1F06  
                                                                  i2l3549 1EDA  
                                                                  i2l3709 26FC  
                                                                  i2l4381 1AD2  
                                                                  i2l4373 1A90  
                                                                  i2l4357 1A0A  
                                                                  i2l4349 19C8  
                                                                  i2l3647 2644  
                                                                  i2l3567 1F4E  
                                                                  i2l3559 1F0E  
                                                                  i2l3575 1F66  
                                                                  i2l3591 209C  
                                                                  i2l3583 207A  
                                                                  i2l4391 1B26  
                                                                  i2l4375 1AA0  
                                                                  i2l4367 1A5E  
                                                                  i2l4551 025C  
                                                                  i2l3497 2668  
                                                                  i2l3649 2654  
                                                                  i2l3577 1F7C  
                                                                  i2l3569 1F56  
                                                                  i2l3593 20B0  
                                                                  i2l3585 207E  
                                                                  i2l4385 1AF4  
                                                                  i2l4369 1A6E  
                                                                  i2l4561 02AC  
                                                                  i2l4553 026C  
                                                                  i2l4545 0024  
                                                                  i2l3499 2688  
                                                                  i2l3579 1F84  
                                                                  i2l3595 20B8  
                                                                  i2l3587 2090  
                                                                  i2l4299 27D0  
                                                                  i2l4387 1B04  
                                                                  i2l4379 1AC2  
                                                                  i2l4555 0278  
                                                                  i2l4563 02B4  
                                                                  i2l4547 0232  
                                                                  i2l3597 20D0  
                                                                  i2l3589 2098  
                                                                  i2l4565 02DE  
                                                                  i2l4557 028C  
                                                                  i2l4549 025A  
                                                                  i2l3599 20D8  
                                                                  i2l4567 0302  
                                                                  i2l4559 0290  
                                                                  _INTCON 000FF2  
                                                                  _SSPADD 000FC8  
                                                                  _SSPBUF 000FC9  
                                                      __size_of_i2c_start 001E  
                                              ?_datetime_increase_minutes 0025  
                                              ?_datetime_increase_seconds 000A  
                                                        __end_of___xxtofl 195A  
                                                      __size_of_i2c_write 0018  
                                                        __end_of_delay_ms 22D6  
                                                 _datetime_decrease_hours 2582  
                                                               ??___fladd 0099  
                                                               ??___fldiv 0080  
                                                               ??___awdiv 0005  
                                                               ??___awmod 0005  
                                                               ??___flmul 0035  
                                                               ??___fltol 0023  
                                                                  ceilf@e 00AF  
                                                                  ceilf@m 00AB  
                                                                  ceilf@u 00B1  
                                                                  ceilf@x 00A1  
                                                                  clear_0 26E4  
                                                        ___awdiv@quotient 0007  
                                                         ___awmod@divisor 0003  
                                                         ___awmod@counter 0005  
                                                     __size_ofi2_i2c_stop 001E  
                                                            __mediumconst 0000  
                                                                  tblptrh 000FF7  
                                                                  tblptrl 000FF6  
                                                                  tblptru 000FF8  
                                                            ?i2_i2c_start 0001  
                                                            ?i2_i2c_write 0002  
                                                      _pcf8574_write_port 21FC  
                                               ds1307_set_time@i2c_bus_id 0016  
                                                      pwm_set_duty@pwm_id 0023  
                                                            ___xxtofl@arg 0029  
                                                            ___xxtofl@exp 0028  
                                                            ___xxtofl@val 001F  
                                                              __accesstop 0080  
                                                 __end_of__initialization 26EA  
                                                     ?_pcf8574_write_port 0023  
                                                      __size_of_dec_2_bcd 013E  
                                                           ___rparam_used 000001  
                                                              ___fltol@f1 001F  
                                                      __size_of_bin_2_bcd 0046  
                                                          __pcstackCOMRAM 0001  
                                                            __pidataBANK0 27EC  
                                                           __end_of_ceilf 1762  
                                                    ??_pcf8574_write_port 0025  
                                                            dec_2_bcd@bcd 0021  
                                                            dec_2_bcd@dec 001F  
                                                       __end_of_i2c_start 27B0  
                                                       __end_of_i2c_write 281E  
                                        __size_of_datetime_increase_hours 004C  
                                                                 ??_ceilf 00A5  
                                                    __end_of_i2c_wait_ack 2330  
                                                         _ds1307_set_time 195A  
                                             ??_datetime_decrease_minutes 0025  
                                    __size_ofi2_datetime_increase_minutes 0058  
                                                              __pbssBANK0 00EA  
                                                               ?_i2c_stop 0001  
                                                  timer2_irq@CntTmrLedSec 0052  
                                                  timer2_irq@CntTmrIncSec 004E  
                                               ??_datetime_decrease_hours 0023  
                                                       __end_of_dec_2_bcd 1C72  
                                                 ?_datetime_decrease_days 001F  
                                                      __size_of_uart_init 00FA  
                                                               ?___xxtofl 001F  
                                                               ?_delay_ms 001F  
                                                       __end_of_bin_2_bcd 273E  
                                                                 _SSPCON2 000FC5  
                                              ??i2_datetime_increase_days 0003  
                                                            ??i2_i2c_stop 0001  
                                                              ??_i2c_stop 001F  
                                            pcf8574_write_port@i2c_bus_id 0025  
                                              pcf8574_write_port@adr_chip 0023  
                                                        ds1307_set_time@t 000F  
                                                                 __Hparam 0000  
                                                                 __Lparam 0000  
                                                                 ___fladd 068C  
                                                                 ___fldiv 10DA  
                                                                 ___awdiv 1EA2  
                                                                 ___awmod 2078  
                                               _datetime_decrease_minutes 23E2  
                                                                 ___flmul 0C36  
                                                                 ___fltol 1C72  
                                                            __psmallconst 0600  
                                                                 __pcinit 26B2  
                                          __end_of_datetime_decrease_days 261A  
                                                                 __ramtop 0600  
                                                                 __ptext0 2154  
                                                                 __ptext1 273E  
                                                                 __ptext2 1DA8  
                                                                 __ptext3 2278  
                                                                 __ptext4 150E  
                                                                 __ptext5 1762  
                                                                 __ptext6 1C72  
                                                                 __ptext7 0C36  
                                                                 __ptext8 10DA  
                                                                 __ptext9 068C  
                                                               _T0CONbits 000FD5  
                                                 __end_of_ds1307_set_time 1B34  
                                         __end_of_datetime_decrease_hours 25CE  
                                                               _T2CONbits 000FCA  
                                                      __end_ofi2_i2c_stop 27CE  
                                                              ??___xxtofl 0023  
                                                           i2c_wait_ack@i 001F  
                                                        ___awmod@dividend 0001  
                                                              ??_delay_ms 0021  
                                                                 main@bcd 00CC  
                                                    end_of_initialization 26EA  
                                                    __size_ofi2_i2c_start 001E  
                                                    __size_ofi2_i2c_write 0018  
                                                           __Lmediumconst 0000  
                                             ??_datetime_increase_minutes 0027  
                                             ??_datetime_increase_seconds 000C  
                                                       __end_of_uart_init 1EA2  
                                                               _RCSTAbits 000FAB  
                                                                 postdec1 000FE5  
                                                              _timer2_irq 0008  
                                                                 postinc0 000FEE  
                                                            bin_2_bcd@bcd 0009  
                                                            bin_2_bcd@bin 000D  
                                                        uart_init@uart_id 00BF  
                                                              _uart_write 273E  
                                                               _PORTBbits 000F81  
                                                               _PORTCbits 000F82  
                                              ?i2_datetime_increase_hours 0004  
                                                 _datetime_increase_hours 24EA  
                                                   __size_of_i2c_wait_ack 005A  
                                                        _time_has_changed 0059  
                                                             ___fladd@grs 00A0  
                                                           i2c_write@data 0020  
                                                           ___xxtofl@sign 0027  
                                                               _TRISCbits 000F94  
                                                             ___fldiv@grs 008B  
                                                             ___fldiv@rem 0084  
                                                ??_datetime_increase_days 0021  
                                                             ___flmul@grs 003A  
                                                             _CCP1CONbits 000FBD  
                                                             _CCP2CONbits 000FBA  
                                                               _TXSTAbits 000FAC  
                                                 datetime_increase_days@t 001F  
                                                            _i2c_wait_ack 22D6  
                                              datetime_decrease_minutes@t 0023  
                                                 __size_ofi2_i2c_wait_ack 005A  
                                            ?i2_datetime_increase_minutes 0007  
                                               _datetime_increase_minutes 238A  
                                               _datetime_increase_seconds 243A  
                                                        ?_ds1307_set_time 000E  
                                                           ?_pwm_set_duty 001F  
                                       __end_ofi2_datetime_increase_hours 2666  
                                                      ds1307_set_time@tmp 0017  
                                                     start_initialization 26B2  
                                                               _i2c_start 2792  
                                                               _i2c_write 2806  
                                                       __size_of_i2c_stop 001E  
                                                             ?_timer2_irq 0001  
                                                             __pdataBANK0 00D1  
                                               ??_datetime_increase_hours 0024  
                                                             ?_uart_write 001F  
                                             __size_of_pcf8574_write_port 007C  
                                                          ??_pwm_set_duty 0021  
                                                               ___fladd@a 0095  
                                                               ___fladd@b 0091  
                                                               ___fldiv@a 004A  
                                                               ___fldiv@b 0046  
                                           ??i2_datetime_increase_minutes 0009  
                                      __size_of_datetime_decrease_minutes 0058  
                                                               ___flmul@a 0031  
                                                               ___flmul@b 002D  
                                                             __pbssCOMRAM 004E  
                                                           __pcstackBANK0 0080  
                                                               _dec_2_bcd 1B34  
                                                              ?_i2c_start 0001  
                                                              ?_i2c_write 0020  
                                                       __size_of___xxtofl 01F8  
                                                       __size_of_delay_ms 005E  
                                                               _addr_flag 0058  
                                                               _bin_2_bcd 26F8  
                                         __size_of_datetime_increase_days 004C  
                                                               _data_flag 0057  
                                                       i2i2c_write@bus_id 0003  
                                                       i2i2c_write@result 0004  
                                                               __pintcode 0008  
                                                                ?___fladd 0091  
                                                                ?___fldiv 0046  
                                                                ?___awdiv 0001  
                                                                ?___awmod 0001  
                                                                ?___flmul 002D  
                                                                ?___fltol 001F  
                                                               ceilf@F524 00EA  
                                                             __smallconst 0600  
                                                              ?_dec_2_bcd 001F  
                                       __end_of_datetime_decrease_minutes 243A  
                                                          __size_of_ceilf 0254  
                                                     __size_of_timer2_irq 032A  
                                         __end_of_datetime_increase_hours 2536  
                                                              ?_bin_2_bcd 0009  
                                                ?_datetime_decrease_hours 0021  
                                                      i2c_wait_ack@bus_id 0001  
                                                                _LATCbits 000F8B  
                                                     __size_of_uart_write 0036  
                                                               delay_ms@i 0021  
                                                               delay_ms@k 0023  
                                                                _PIE1bits 000F9D  
                                                                i2u320_40 1F7A  
                                                                i2u320_41 1F74  
                                                                i2u321_40 208E  
                                                                i2u321_41 2088  
                                                                i2u330_40 2636  
                                                                i2u322_40 20AE  
                                                                i2u330_41 2630  
                                                                i2u322_41 20A8  
                                                                i2u315_40 1EB8  
                                                                i2u323_40 20CE  
                                                                i2u315_41 1EB2  
                                                                i2u323_41 20C8  
                                                                i2u316_40 1ED8  
                                                                i2u324_40 20F4  
                                                                i2u316_41 1ED2  
                                                                i2u324_41 20EE  
                                                                i2u309_40 2686  
                                                                i2u317_40 1F04  
                                                                i2u325_40 2110  
                                                                i2u309_41 2680  
                                                                i2u317_41 1EFE  
                                                                i2u325_41 210A  
                                                                i2u318_40 1F2A  
                                                                i2u326_40 213C  
                                                                i2u318_41 1F24  
                                                                i2u326_41 2136  
                                                                i2u319_40 1F4C  
                                                                i2u327_40 2344  
                                                                i2u319_41 1F46  
                                                                i2u327_41 233E  
                                                                i2u328_40 235C  
                                                                i2u328_41 2356  
                                                                i2u329_40 237C  
                                                                i2u329_41 2376  
                                                                _PIR1bits 000F9E  
                                                                i2u450_40 199E  
                                                                i2u450_41 1998  
                                                                i2u451_40 19C2  
                                                                i2u451_41 19BC  
                                                                i2u452_40 19F4  
                                                                i2u452_41 19EE  
                                                                i2u445_40 27E4  
                                                                i2u453_40 1A26  
                                                                i2u445_41 27DE  
                                                                i2u453_41 1A20  
                                                                i2u446_40 27C6  
                                                                i2u454_40 1A58  
                                                                i2u446_41 27C0  
                                                                i2u454_41 1A52  
                                                                i2u447_40 24B2  
                                                                i2u455_40 1A8A  
                                                                i2u447_41 24AC  
                                                                i2u455_41 1A84  
                                                                i2u448_40 245A  
                                                                i2u456_40 1ABC  
                                                                i2u448_41 2454  
                                                                i2u456_41 1AB6  
                                                                i2u457_40 1AEE  
                                                                i2u449_40 1976  
                                                                i2u457_41 1AE8  
                                                                i2u449_41 1970  
                                                                i2u458_40 1B20  
                                                                i2u458_41 1B1A  
                                                                i2u483_40 0258  
                                                                i2u483_41 0252  
                                                                i2u484_40 028A  
                                                                i2u484_41 0284  
                                                                i2u485_41 029E  
                                                                i2u486_40 02DC  
                                                                i2u486_41 02D6  
                                                                i2u487_40 02F2  
                                                                i2u487_41 02E8  
                                                                i2u488_48 02F6  
                                                                _RCONbits 000FD0  
                                                               main@F2662 00DF  
                                                               _uart_init 1DA8  
                                       __size_ofi2_datetime_increase_days 004C  
                                               ?i2_datetime_increase_days 0001  
                                                  _datetime_increase_days 2536  
                                                          i2_i2c_wait_ack 2330  
                                             ??i2_datetime_increase_hours 0006  
                                                           ??i2_i2c_start 0001  
                                                             ??_i2c_start 001F  
                                                           ??i2_i2c_write 0003  
                                                             ??_i2c_write 0021  
                                                            delay_ms@loop 001F  
                                      __size_of_datetime_increase_minutes 0058  
                                      __size_of_datetime_increase_seconds 0058  
                                                               copy_data0 26C6  
                                                                _i2c_stop 2774  
                                                    __end_of_pwm_set_duty 2078  
                                                                __Hrparam 0000  
                                                                __Lrparam 0000  
                                                              ?_uart_init 00B5  
                                                  __end_ofi2_i2c_wait_ack 238A  
                                                        __size_of___fladd 05AA  
                                                        __size_of___fldiv 0434  
                                                        __size_of___awdiv 00F0  
                                                        __size_of___awmod 00DC  
                                                        __size_of___flmul 04A4  
                                                        __size_of___fltol 0136  
                                              i2datetime_increase_hours@t 0004  
                                                                _addr_ptr 0056  
                                                                ___xxtofl 1762  
                                                       uart_init@UART_BRG 00BB  
                                                                _delay_ms 2278  
                                                             ??_dec_2_bcd 0023  
                                                                __ptext10 1F92  
                                                                __ptext11 21FC  
                                                                __ptext20 23E2  
                                                                __ptext12 2806  
                                                                __ptext21 2582  
                                                                __ptext13 22D6  
                                                                __ptext30 2078  
                                                                __ptext22 25CE  
                                                                __ptext14 2774  
                                                                __ptext31 1EA2  
                                                                __ptext15 2792  
                                                                __ptext32 243A  
                                                                __ptext24 195A  
                                                                __ptext16 1B34  
                                                                __ptext33 2492  
                                                                __ptext25 281E  
                                                                __ptext17 238A  
                                                                __ptext34 261A  
                                                                __ptext26 2330  
                                                                __ptext18 24EA  
                                                                __ptext35 2666  
                                                                __ptext27 27B0  
                                                                __ptext19 2536  
                                                                __ptext28 27CE  
                                                                __ptext29 26F8  
                                                         i2c_start@bus_id 0001  
                                                             ??_bin_2_bcd 000B  
                                                         i2i2c_wait_ack@i 0001  
                                       __end_of_datetime_increase_minutes 23E2  
                                       __end_of_datetime_increase_seconds 2492  
                                                  pcf8574_write_port@data 0024  
                                                     __end_ofi2_i2c_start 27EC  
                                                     __end_ofi2_i2c_write 2836  
                                                           __size_of_main 00A8  
                                               i2_datetime_increase_hours 261A  
                                                ??_datetime_decrease_days 0021  
                                                            ??_timer2_irq 0018  
                                                                int$flags 0061  
                                                         ?i2_i2c_wait_ack 0001  
                                                            ??_uart_write 0020  
                                                              _INTCONbits 000FF2  
                                               i2datetime_increase_days@t 0001  
                                                                intlevel2 2836  
                                                __size_of_ds1307_set_time 01DA  
                                                      __end_of_timer2_irq 0332  
                                                         i2i2c_write@data 0002  
                                                       uart_init@baudrate 00B5  
                                                      __end_of_uart_write 2774  
                                                             ??_uart_init 004E  
                                                datetime_decrease_hours@t 0021  
                                                          i2c_stop@bus_id 0001  
                                              __end_of_pcf8574_write_port 2278  
                                                 ds1307_set_time@adr_chip 000E  
                                                 datetime_decrease_days@t 001F  
                                                            uart_init@opt 00B9  
                                                             _SSPCON1bits 000FC6  
                                                             _SSPCON2bits 000FC5  
                                                             i2_i2c_start 27CE  
                                                             i2_i2c_write 281E  
                                                           ___fladd@signs 009D  
                                                   __size_of_pwm_set_duty 00E6  
                                        __end_ofi2_datetime_increase_days 26B2  
                                                            ___fladd@aexp 009E  
                                                            ___fladd@bexp 009F  
                                                              i2_i2c_stop 27B0  
                                                         i2c_write@bus_id 0021  
                                                         i2c_write@result 0022  
                                                             _update_7seg 00EE  
                                                 ?_datetime_increase_days 001F  
                                                ?_datetime_increase_hours 0022  
