Microchip MPLAB XC8 Compiler V2.10 ()

Linker command line:

-W-3 --edf=C:\Programs\Microchip\xc8\v2.10\pic\dat\en_msgs.txt -cs \
  -h+dist/default/production\clock_big_7seg_red_v1.production.sym \
  --cmf=dist/default/production\clock_big_7seg_red_v1.production.cmf -z \
  -Q18F252 -oC:\Users\Pierre\AppData\Local\Temp\sark.2 \
  --defsym=__MPLAB_BUILD=1 \
  -Mdist/default/production/clock_big_7seg_red_v1.production.map -E1 \
  -ver=XC8 --acfsm=1493 -ASTACK=080h-05FFh -pstack=STACK \
  -ACODE=00h-03FFFhx2 -ACONST=00h-07FFFh -ASMALLCONST=0600h-06FFhx122 \
  -AMEDIUMCONST=0600h-07FFFh -ACOMRAM=01h-07Fh -AABS1=00h-05FFh \
  -ABIGRAM=01h-05FFh -ARAM=080h-0FFh,0100h-01FFhx5 -ABANK0=080h-0FFh \
  -ABANK1=0100h-01FFh -ABANK2=0200h-02FFh -ABANK3=0300h-03FFh \
  -ABANK4=0400h-04FFh -ABANK5=0500h-05FFh -ASFR=0F80h-0FFFh \
  -preset_vec=00h,intcode=08h,intcodelo,powerup,init -pramtop=0600h \
  -psmallconst=SMALLCONST -pmediumconst=MEDIUMCONST -pconst=CONST \
  -AFARRAM=00h-00h -ACONFIG=0300000h-030000Dh -pconfig=CONFIG \
  -AIDLOC=0200000h-0200007h -pidloc=IDLOC -AEEDATA=0F00000h-0F000FFh \
  -peeprom_data=EEDATA \
  -prdata=COMRAM,nvrram=COMRAM,nvbit=COMRAM,rbss=COMRAM,rbit=COMRAM \
  -pfarbss=FARRAM,fardata=FARRAM,nvFARRAM=FARRAM \
  -pintsave_regs=BIGRAM,bigbss=BIGRAM,bigdata=BIGRAM -pbss=RAM \
  -pidata=CODE,irdata=CODE,ibigdata=CODE,ifardata=CODE -prparam=COMRAM \
  C:\Users\Pierre\AppData\Local\Temp\sark.o \
  dist/default/production\clock_big_7seg_red_v1.production.o 

Object code version is 3.11

Machine type is 18F252

Call graph: (short form)




                Name                               Link     Load   Length Selector   Space Scale
C:\Users\Pierre\AppData\Local\Temp\sark.o
                text                               16E8     16E8        2      B74       0
                init                                2D6      2D6        4        4       0
                reset_vec                             0        0        6        0       0
                idloc                            200000   200000        8   200000       0
                config                           300000   300000        E   300000       0
dist/default/production\clock_big_7seg_red_v1.production.o
                intcode                               8        8      2CE        4       0
                temp                                 4C       4C        1        1       1
                text29                             1112     1112       B6        4       0
                text27                             14F8     14F8       40        4       0
                text26                             13E6     13E6       4C        4       0
                text25                             14B8     14B8       40        4       0
                text24                             139A     139A       4C        4       0
                text23                              B82      B82      13E        4       0
                text22                             165C     165C       26        4       0
                text21                             1636     1636       26        4       0
                text20                             1538     1538       38        4       0
                text19                             16BE     16BE       1E        4       0
                text18                             16A0     16A0       1E        4       0
                text17                             1682     1682       1E        4       0
                text16                             1340     1340       5A        4       0
                text15                             15D8     15D8       32        4       0
                text14                              E96      E96       E2        4       0
                text13                              9AE      9AE      1D4        4       0
                text12                             11C8     11C8       A0        4       0
                text11                              CC0      CC0       F0        4       0
                text10                              F78      F78       DC        4       0
                text9                              1432     1432       46        4       0
                text8                               7D4      7D4      1DA        4       0
                text7                              1054     1054       BE        4       0
                text6                              12E2     12E2       5E        4       0
                text5                              1268     1268       7A        4       0
                text4                              160A     160A       2C        4       0
                text3                              1478     1478       40        4       0
                text2                               DB0      DB0       E6        4       0
                text1                              15A6     15A6       32        4       0
                text0                               2DA      2DA      4FA        4       0
                cstackCOMRAM                          1        1       2E        1       1
                dataCOMRAM                           41       41        B        1       1
                bssCOMRAM                            2F       2F       12        1       1
                cinit                              1570     1570       36        4       0
                idataCOMRAM                        16DC     16DC        B        4       0

TOTAL           Name                               Link     Load   Length     Space
        CLASS   STACK          

        CLASS   CODE           
                intcode                               8        8      2CE         0
                text                               16E8     16E8        2         0
                init                                2D6      2D6        4         0
                reset_vec                             0        0        6         0
                text29                             1112     1112       B6         0
                text27                             14F8     14F8       40         0
                text26                             13E6     13E6       4C         0
                text25                             14B8     14B8       40         0
                text24                             139A     139A       4C         0
                text23                              B82      B82      13E         0
                text22                             165C     165C       26         0
                text21                             1636     1636       26         0
                text20                             1538     1538       38         0
                text19                             16BE     16BE       1E         0
                text18                             16A0     16A0       1E         0
                text17                             1682     1682       1E         0
                text16                             1340     1340       5A         0
                text15                             15D8     15D8       32         0
                text14                              E96      E96       E2         0
                text13                              9AE      9AE      1D4         0
                text12                             11C8     11C8       A0         0
                text11                              CC0      CC0       F0         0
                text10                              F78      F78       DC         0
                text9                              1432     1432       46         0
                text8                               7D4      7D4      1DA         0
                text7                              1054     1054       BE         0
                text6                              12E2     12E2       5E         0
                text5                              1268     1268       7A         0
                text4                              160A     160A       2C         0
                text3                              1478     1478       40         0
                text2                               DB0      DB0       E6         0
                text1                              15A6     15A6       32         0
                text0                               2DA      2DA      4FA         0
                cinit                              1570     1570       36         0
                idataCOMRAM                        16DC     16DC        B         0

        CLASS   CONST          

        CLASS   SMALLCONST     

        CLASS   MEDIUMCONST    

        CLASS   COMRAM         
                temp                                 4C       4C        1         1
                cstackCOMRAM                          1        1       2E         1
                dataCOMRAM                           41       41        B         1
                bssCOMRAM                            2F       2F       12         1

        CLASS   ABS1           

        CLASS   BIGRAM         

        CLASS   RAM            

        CLASS   BANK0          

        CLASS   BANK1          

        CLASS   BANK2          

        CLASS   BANK3          

        CLASS   BANK4          

        CLASS   BANK5          

        CLASS   SFR            

        CLASS   FARRAM         

        CLASS   CONFIG         
                config                           300000   300000        E         0

        CLASS   IDLOC          
                idloc                            200000   200000        8         0

        CLASS   EEDATA         



SEGMENTS        Name                           Load    Length   Top    Selector   Space  Class

                reset_vec                      000000  000006  000006         0       0  CODE    
                cstackCOMRAM                   000001  00004C  00004D         1       1  COMRAM  
                intcode                        000008  0016DF  0016E7         4       0  CODE    
                text                           0016E8  000002  0016EA       B74       0  CODE    
                idloc                          200000  000008  200008    200000       0  IDLOC   
                config                         300000  00000E  30000E    300000       0  CONFIG  


UNUSED ADDRESS RANGES

        Name                Unused          Largest block    Delta
        BANK0            000080-0000FF               80
        BANK1            000100-0001FF              100
        BANK2            000200-0002FF              100
        BANK3            000300-0003FF              100
        BANK4            000400-0004FF              100
        BANK5            000500-0005FF              100
        BIGRAM           00004D-0005FF              5B3
        CODE             000006-000007                2
                         0016E7-0016E7                1
                         0016EA-007FFF             2916
        COMRAM           00004D-00007F               33
        CONST            000006-000007                2
                         0016E7-0016E7                1
                         0016EA-007FFF             6916
        EEDATA           F00000-F000FF              100
        MEDIUMCONST      0016E7-0016E7                1
                         0016EA-007FFF             6916
        RAM              000080-0005FF              100
        SFR              000F80-000FFF               80
        SMALLCONST       0016E7-0016E7                1
                         0016EA-007FFF              100
        STACK            000080-0005FF              580

                                  Symbol Table

?___awdiv                                                                 cstackCOMRAM 000007
?___awmod                                                                 cstackCOMRAM 000007
?___lldiv                                                                 cstackCOMRAM 000007
_ADCON0                                                                   (abs)        000FC2
_ADCON1                                                                   (abs)        000FC1
_CCP1CONbits                                                              (abs)        000FBD
_CCP2CONbits                                                              (abs)        000FBA
_CCPR1L                                                                   (abs)        000FBE
_CCPR2L                                                                   (abs)        000FBB
_INTCON                                                                   (abs)        000FF2
_INTCONbits                                                               (abs)        000FF2
_LATCbits                                                                 (abs)        000F8B
_PIE1                                                                     (abs)        000F9D
_PIE1bits                                                                 (abs)        000F9D
_PIR1bits                                                                 (abs)        000F9E
_PORTBbits                                                                (abs)        000F81
_PORTCbits                                                                (abs)        000F82
_PR2                                                                      (abs)        000FCB
_RCONbits                                                                 (abs)        000FD0
_SSPADD                                                                   (abs)        000FC8
_SSPBUF                                                                   (abs)        000FC9
_SSPCON1bits                                                              (abs)        000FC6
_SSPCON2                                                                  (abs)        000FC5
_SSPCON2bits                                                              (abs)        000FC5
_SSPSTATbits                                                              (abs)        000FC7
_T0CONbits                                                                (abs)        000FD5
_T2CONbits                                                                (abs)        000FCA
_TRISA                                                                    (abs)        000F92
_TRISB                                                                    (abs)        000F93
_TRISC                                                                    (abs)        000F94
_TRISCbits                                                                (abs)        000F94
__CFG_BOR$OFF                                                             (abs)        000000
__CFG_LVP$OFF                                                             (abs)        000000
__CFG_OSC$HS                                                              (abs)        000000
__CFG_WDT$OFF                                                             (abs)        000000
__HRAM                                                                    (abs)        000000
__Habs1                                                                   abs1         000000
__Hbank0                                                                  bank0        000000
__Hbank1                                                                  bank1        000000
__Hbank2                                                                  bank2        000000
__Hbank3                                                                  bank3        000000
__Hbank4                                                                  bank4        000000
__Hbank5                                                                  bank5        000000
__Hbigbss                                                                 bigbss       000000
__Hbigdata                                                                bigdata      000000
__Hbigram                                                                 bigram       000000
__Hbss                                                                    bss          000000
__HbssCOMRAM                                                              bssCOMRAM    000000
__Hcinit                                                                  cinit        000000
__Hclrtext                                                                clrtext      000000
__Hcomram                                                                 comram       000000
__Hconfig                                                                 config       30000E
__Hconst                                                                  const        000000
__HcstackCOMRAM                                                           cstackCOMRAM 000000
__Hdata                                                                   data         000000
__HdataCOMRAM                                                             dataCOMRAM   000000
__Heeprom_data                                                            eeprom_data  000000
__Hfarbss                                                                 farbss       000000
__Hfardata                                                                fardata      000000
__Hibigdata                                                               ibigdata     000000
__Hidata                                                                  idata        000000
__HidataCOMRAM                                                            idataCOMRAM  000000
__Hidloc                                                                  idloc        200008
__Hifardata                                                               ifardata     000000
__Hinit                                                                   init         0002DA
__Hintcode                                                                intcode      0002D6
__Hintcode_body                                                           intcode_body 000000
__Hintcodelo                                                              intcodelo    0002D6
__Hintentry                                                               intentry     000000
__Hintret                                                                 intret       000000
__Hintsave_regs                                                           intsave_regs 000000
__Hirdata                                                                 irdata       000000
__Hmediumconst                                                            mediumconst  000000
__HnvFARRAM                                                               nvFARRAM     000000
__Hnvbit                                                                  nvbit        000000
__Hnvrram                                                                 nvrram       000000
__Hparam                                                                  rparam       000000
__Hpowerup                                                                powerup      0002D6
__Hram                                                                    ram          000000
__Hramtop                                                                 ramtop       000600
__Hrbit                                                                   rbit         000000
__Hrbss                                                                   rbss         000000
__Hrdata                                                                  rdata        000000
__Hreset_vec                                                              reset_vec    000006
__Hrparam                                                                 rparam       000000
__Hsfr                                                                    sfr          000000
__Hsmallconst                                                             smallconst   000000
__Hspace_0                                                                (abs)        30000E
__Hspace_1                                                                (abs)        00004D
__Hspace_2                                                                (abs)        000000
__Hstack                                                                  stack        000000
__Hstruct                                                                 struct       000000
__Htemp                                                                   temp         00004D
__Htext                                                                   text         000000
__Htext0                                                                  text0        000000
__Htext1                                                                  text1        000000
__Htext10                                                                 text10       000000
__Htext11                                                                 text11       000000
__Htext12                                                                 text12       000000
__Htext13                                                                 text13       000000
__Htext14                                                                 text14       000000
__Htext15                                                                 text15       000000
__Htext16                                                                 text16       000000
__Htext17                                                                 text17       000000
__Htext18                                                                 text18       000000
__Htext19                                                                 text19       000000
__Htext2                                                                  text2        000000
__Htext20                                                                 text20       000000
__Htext21                                                                 text21       000000
__Htext22                                                                 text22       000000
__Htext23                                                                 text23       000000
__Htext24                                                                 text24       000000
__Htext25                                                                 text25       000000
__Htext26                                                                 text26       000000
__Htext27                                                                 text27       000000
__Htext29                                                                 text29       000000
__Htext3                                                                  text3        000000
__Htext4                                                                  text4        000000
__Htext5                                                                  text5        000000
__Htext6                                                                  text6        000000
__Htext7                                                                  text7        000000
__Htext8                                                                  text8        000000
__Htext9                                                                  text9        000000
__LRAM                                                                    (abs)        000001
__Labs1                                                                   abs1         000000
__Lbank0                                                                  bank0        000000
__Lbank1                                                                  bank1        000000
__Lbank2                                                                  bank2        000000
__Lbank3                                                                  bank3        000000
__Lbank4                                                                  bank4        000000
__Lbank5                                                                  bank5        000000
__Lbigbss                                                                 bigbss       000000
__Lbigdata                                                                bigdata      000000
__Lbigram                                                                 bigram       000000
__Lbss                                                                    bss          000000
__LbssCOMRAM                                                              bssCOMRAM    000000
__Lcinit                                                                  cinit        000000
__Lclrtext                                                                clrtext      000000
__Lcomram                                                                 comram       000000
__Lconfig                                                                 config       300000
__Lconst                                                                  const        000000
__LcstackCOMRAM                                                           cstackCOMRAM 000000
__Ldata                                                                   data         000000
__LdataCOMRAM                                                             dataCOMRAM   000000
__Leeprom_data                                                            eeprom_data  000000
__Lfarbss                                                                 farbss       000000
__Lfardata                                                                fardata      000000
__Libigdata                                                               ibigdata     000000
__Lidata                                                                  idata        000000
__LidataCOMRAM                                                            idataCOMRAM  000000
__Lidloc                                                                  idloc        200000
__Lifardata                                                               ifardata     000000
__Linit                                                                   init         0002D6
__Lintcode                                                                intcode      000008
__Lintcode_body                                                           intcode_body 000000
__Lintcodelo                                                              intcodelo    0002D6
__Lintentry                                                               intentry     000000
__Lintret                                                                 intret       000000
__Lintsave_regs                                                           intsave_regs 000000
__Lirdata                                                                 irdata       000000
__Lmediumconst                                                            mediumconst  000000
__LnvFARRAM                                                               nvFARRAM     000000
__Lnvbit                                                                  nvbit        000000
__Lnvrram                                                                 nvrram       000000
__Lparam                                                                  rparam       000000
__Lpowerup                                                                powerup      0002D6
__Lram                                                                    ram          000000
__Lramtop                                                                 ramtop       000600
__Lrbit                                                                   rbit         000000
__Lrbss                                                                   rbss         000000
__Lrdata                                                                  rdata        000000
__Lreset_vec                                                              reset_vec    000000
__Lrparam                                                                 rparam       000000
__Lsfr                                                                    sfr          000000
__Lsmallconst                                                             smallconst   000000
__Lspace_0                                                                (abs)        000000
__Lspace_1                                                                (abs)        000000
__Lspace_2                                                                (abs)        000000
__Lstack                                                                  stack        000000
__Lstruct                                                                 struct       000000
__Ltemp                                                                   temp         00004C
__Ltext                                                                   text         000000
__Ltext0                                                                  text0        000000
__Ltext1                                                                  text1        000000
__Ltext10                                                                 text10       000000
__Ltext11                                                                 text11       000000
__Ltext12                                                                 text12       000000
__Ltext13                                                                 text13       000000
__Ltext14                                                                 text14       000000
__Ltext15                                                                 text15       000000
__Ltext16                                                                 text16       000000
__Ltext17                                                                 text17       000000
__Ltext18                                                                 text18       000000
__Ltext19                                                                 text19       000000
__Ltext2                                                                  text2        000000
__Ltext20                                                                 text20       000000
__Ltext21                                                                 text21       000000
__Ltext22                                                                 text22       000000
__Ltext23                                                                 text23       000000
__Ltext24                                                                 text24       000000
__Ltext25                                                                 text25       000000
__Ltext26                                                                 text26       000000
__Ltext27                                                                 text27       000000
__Ltext29                                                                 text29       000000
__Ltext3                                                                  text3        000000
__Ltext4                                                                  text4        000000
__Ltext5                                                                  text5        000000
__Ltext6                                                                  text6        000000
__Ltext7                                                                  text7        000000
__Ltext8                                                                  text8        000000
__Ltext9                                                                  text9        000000
__S0                                                                      (abs)        30000E
__S1                                                                      (abs)        00004D
__S2                                                                      (abs)        000000
___awdiv                                                                  text11       000CC0
___awdiv@counter                                                          cstackCOMRAM 00000B
___awdiv@dividend                                                         cstackCOMRAM 000007
___awdiv@divisor                                                          cstackCOMRAM 000009
___awdiv@quotient                                                         cstackCOMRAM 00000D
___awdiv@sign                                                             cstackCOMRAM 00000C
___awmod                                                                  text10       000F78
___awmod@counter                                                          cstackCOMRAM 00000B
___awmod@dividend                                                         cstackCOMRAM 000007
___awmod@divisor                                                          cstackCOMRAM 000009
___awmod@sign                                                             cstackCOMRAM 00000C
___inthi_sp                                                               stack        000000
___intlo_sp                                                               stack        000000
___lldiv                                                                  text7        001054
___lldiv@counter                                                          cstackCOMRAM 000013
___lldiv@dividend                                                         cstackCOMRAM 000007
___lldiv@divisor                                                          cstackCOMRAM 00000B
___lldiv@quotient                                                         cstackCOMRAM 00000F
___param_bank                                                             (abs)        000000
___rparam_used                                                            (abs)        000001
___sp                                                                     stack        000000
__accesstop                                                               (abs)        000080
__activetblptr                                                            (abs)        000000
__cntErrataNOP_C:\Users\Pierre\AppData\Local\Temp\sark.o                  (abs)        000001
__cntErrataNOP_dist/default/production\clock_big_7seg_red_v1.production.o (abs)        000156
__end_of___awdiv                                                          text11       000DB0
__end_of___awmod                                                          text10       001054
__end_of___lldiv                                                          text7        001112
__end_of__initialization                                                  cinit        00159C
__end_of_bcd_2_bin                                                        text22       001682
__end_of_bin_2_bcd                                                        text9        001478
__end_of_clock_update                                                     text29       0011C6
__end_of_datetime_decrease_hours                                          text27       001538
__end_of_datetime_decrease_minutes                                        text26       001432
__end_of_datetime_increase_hours                                          text25       0014F8
__end_of_datetime_increase_minutes                                        text24       0013E6
__end_of_dec_2_bcd                                                        text23       000CC0
__end_of_delay_ms                                                         text6        001340
__end_of_ds1307_get_time                                                  text13       000B82
__end_of_ds1307_init                                                      text12       001268
__end_of_ds1307_set_time                                                  text8        0009AE
__end_of_i2c_init                                                         text5        0012E2
__end_of_i2c_read                                                         text20       001570
__end_of_i2c_read_reg                                                     text14       000F78
__end_of_i2c_rstart                                                       text19       0016DC
__end_of_i2c_send_ack                                                     text21       00165C
__end_of_i2c_start                                                        text18       0016BE
__end_of_i2c_stop                                                         text17       0016A0
__end_of_i2c_wait_ack                                                     text16       00139A
__end_of_i2c_write                                                        text15       00160A
__end_of_main                                                             text0        0007D4
__end_of_pcf8574_write_port                                               text4        001636
__end_of_pwm_init                                                         text3        0014B8
__end_of_pwm_set_duty                                                     text2        000E96
__end_of_timer2_init                                                      text1        0015D8
__end_of_timer2_irq                                                       intcode      0002D6
__initialization                                                          cinit        001570
__mediumconst                                                             mediumconst  000000
__pbssCOMRAM                                                              bssCOMRAM    00002F
__pcinit                                                                  cinit        001570
__pcstackCOMRAM                                                           cstackCOMRAM 000001
__pdataCOMRAM                                                             dataCOMRAM   000041
__pidataCOMRAM                                                            idataCOMRAM  0016DC
__pintcode                                                                intcode      000008
__ptext0                                                                  text0        0002DA
__ptext1                                                                  text1        0015A6
__ptext10                                                                 text10       000F78
__ptext11                                                                 text11       000CC0
__ptext12                                                                 text12       0011C8
__ptext13                                                                 text13       0009AE
__ptext14                                                                 text14       000E96
__ptext15                                                                 text15       0015D8
__ptext16                                                                 text16       001340
__ptext17                                                                 text17       001682
__ptext18                                                                 text18       0016A0
__ptext19                                                                 text19       0016BE
__ptext2                                                                  text2        000DB0
__ptext20                                                                 text20       001538
__ptext21                                                                 text21       001636
__ptext22                                                                 text22       00165C
__ptext23                                                                 text23       000B82
__ptext24                                                                 text24       00139A
__ptext25                                                                 text25       0014B8
__ptext26                                                                 text26       0013E6
__ptext27                                                                 text27       0014F8
__ptext29                                                                 text29       001112
__ptext3                                                                  text3        001478
__ptext4                                                                  text4        00160A
__ptext5                                                                  text5        001268
__ptext6                                                                  text6        0012E2
__ptext7                                                                  text7        001054
__ptext8                                                                  text8        0007D4
__ptext9                                                                  text9        001432
__ramtop                                                                  ramtop       000600
__size_of___awdiv                                                         (abs)        000000
__size_of___awmod                                                         (abs)        000000
__size_of___lldiv                                                         (abs)        000000
__size_of_bcd_2_bin                                                       (abs)        000000
__size_of_bin_2_bcd                                                       (abs)        000000
__size_of_clock_update                                                    (abs)        000000
__size_of_datetime_decrease_hours                                         (abs)        000000
__size_of_datetime_decrease_minutes                                       (abs)        000000
__size_of_datetime_increase_hours                                         (abs)        000000
__size_of_datetime_increase_minutes                                       (abs)        000000
__size_of_dec_2_bcd                                                       (abs)        000000
__size_of_delay_ms                                                        (abs)        000000
__size_of_ds1307_get_time                                                 (abs)        000000
__size_of_ds1307_init                                                     (abs)        000000
__size_of_ds1307_set_time                                                 (abs)        000000
__size_of_i2c_init                                                        (abs)        000000
__size_of_i2c_read                                                        (abs)        000000
__size_of_i2c_read_reg                                                    (abs)        000000
__size_of_i2c_rstart                                                      (abs)        000000
__size_of_i2c_send_ack                                                    (abs)        000000
__size_of_i2c_start                                                       (abs)        000000
__size_of_i2c_stop                                                        (abs)        000000
__size_of_i2c_wait_ack                                                    (abs)        000000
__size_of_i2c_write                                                       (abs)        000000
__size_of_main                                                            (abs)        000000
__size_of_pcf8574_write_port                                              (abs)        000000
__size_of_pwm_init                                                        (abs)        000000
__size_of_pwm_set_duty                                                    (abs)        000000
__size_of_timer2_init                                                     (abs)        000000
__size_of_timer2_irq                                                      (abs)        000000
__smallconst                                                              smallconst   000000
_addr_flag                                                                bssCOMRAM    000039
_addr_ptr                                                                 bssCOMRAM    000037
_bcd_2_bin                                                                text22       00165C
_bin_2_bcd                                                                text9        001432
_clock_update                                                             text29       001112
_data_flag                                                                bssCOMRAM    000038
_datetime_decrease_hours                                                  text27       0014F8
_datetime_decrease_minutes                                                text26       0013E6
_datetime_increase_hours                                                  text25       0014B8
_datetime_increase_minutes                                                text24       00139A
_dec_2_bcd                                                                text23       000B82
_delay_ms                                                                 text6        0012E2
_ds1307_get_time                                                          text13       0009AE
_ds1307_init                                                              text12       0011C8
_ds1307_set_time                                                          text8        0007D4
_i2c_init                                                                 text5        001268
_i2c_read                                                                 text20       001538
_i2c_read_reg                                                             text14       000E96
_i2c_rstart                                                               text19       0016BE
_i2c_send_ack                                                             text21       001636
_i2c_start                                                                text18       0016A0
_i2c_stop                                                                 text17       001682
_i2c_wait_ack                                                             text16       001340
_i2c_write                                                                text15       0015D8
_main                                                                     text0        0002DA
_pcf8574_write_port                                                       text4        00160A
_pwm_init                                                                 text3        001478
_pwm_set_duty                                                             text2        000DB0
_t                                                                        bssCOMRAM    00003A
_timer2_init                                                              text1        0015A6
_timer2_irq                                                               intcode      000008
bcd_2_bin@bcd                                                             cstackCOMRAM 00000A
bcd_2_bin@bin                                                             cstackCOMRAM 000007
bin_2_bcd@bcd                                                             cstackCOMRAM 00000F
bin_2_bcd@bin                                                             cstackCOMRAM 000013
btemp                                                                     temp         00004C
clock_update@t                                                            cstackCOMRAM 000001
datetime_decrease_hours@t                                                 cstackCOMRAM 000007
datetime_decrease_minutes@t                                               cstackCOMRAM 000007
datetime_increase_hours@t                                                 cstackCOMRAM 000007
datetime_increase_minutes@t                                               cstackCOMRAM 000007
dec_2_bcd@bcd                                                             cstackCOMRAM 000009
dec_2_bcd@dec                                                             cstackCOMRAM 000007
delay_ms@i                                                                cstackCOMRAM 000009
delay_ms@k                                                                cstackCOMRAM 00000B
delay_ms@loop                                                             cstackCOMRAM 000007
ds1307_get_time@adr_chip                                                  cstackCOMRAM 000014
ds1307_get_time@i2c_bus_id                                                cstackCOMRAM 000017
ds1307_get_time@t                                                         cstackCOMRAM 000015
ds1307_get_time@tmp                                                       cstackCOMRAM 000018
ds1307_init@adr_chip                                                      cstackCOMRAM 00000B
ds1307_init@i2c_bus_id                                                    cstackCOMRAM 00000C
ds1307_set_time@adr_chip                                                  cstackCOMRAM 000014
ds1307_set_time@i2c_bus_id                                                cstackCOMRAM 00001C
ds1307_set_time@t                                                         cstackCOMRAM 000015
ds1307_set_time@tmp                                                       cstackCOMRAM 00001D
end_of_initialization                                                     cinit        00159C
i2c_init@I2C_BRG                                                          cstackCOMRAM 00001A
i2c_init@bus_id                                                           cstackCOMRAM 00001E
i2c_init@freq                                                             cstackCOMRAM 000014
i2c_init@opt                                                              cstackCOMRAM 000018
i2c_read@ack                                                              cstackCOMRAM 000009
i2c_read@bus_id                                                           cstackCOMRAM 00000D
i2c_read@data                                                             cstackCOMRAM 00000A
i2c_read_reg@adr_chip                                                     cstackCOMRAM 00000E
i2c_read_reg@adr_reg                                                      cstackCOMRAM 00000F
i2c_read_reg@bus_id                                                       cstackCOMRAM 000012
i2c_read_reg@data                                                         cstackCOMRAM 000010
i2c_read_reg@result                                                       cstackCOMRAM 000013
i2c_send_ack@Ack                                                          cstackCOMRAM 000007
i2c_wait_ack@i                                                            cstackCOMRAM 000007
i2c_write@bus_id                                                          cstackCOMRAM 00000A
i2c_write@data                                                            cstackCOMRAM 000008
int$flags                                                                 temp         00004C
intlevel0                                                                 text         0016E8
intlevel1                                                                 text         0016E8
intlevel2                                                                 text         0016E8
intlevel3                                                                 text         0016E8
main@F2576                                                                dataCOMRAM   000041
main@bcd                                                                  cstackCOMRAM 00002A
main@segments                                                             cstackCOMRAM 00001F
pcf8574_write_port@adr_chip                                               cstackCOMRAM 00000B
pcf8574_write_port@data                                                   cstackCOMRAM 00000C
pcf8574_write_port@i2c_bus_id                                             cstackCOMRAM 00000D
pwm_init@duty                                                             cstackCOMRAM 000009
pwm_init@freq                                                             cstackCOMRAM 000007
pwm_init@pwm_id                                                           cstackCOMRAM 00000B
pwm_set_duty@duty                                                         cstackCOMRAM 000007
pwm_set_duty@pwm_id                                                       cstackCOMRAM 00000B
stackhi                                                                   (abs)        0005FF
stacklo                                                                   (abs)        000080
start                                                                     init         0002D6
start_initialization                                                      cinit        001570
timer2_init@scaler                                                        cstackCOMRAM 00000A
timer2_init@timer                                                         cstackCOMRAM 000007
timer2_irq@CntTmr1                                                        bssCOMRAM    000033
timer2_irq@CntTmr2                                                        bssCOMRAM    00002F
ttemp5                                                                    temp         00004D
ttemp6                                                                    temp         000050
ttemp7                                                                    temp         000054
wtemp8                                                                    temp         00004D


FUNCTION INFORMATION:

 *************** function _main *****************
 Defined at:
		line 91 in file "main.c"
 Parameters:    Size  Location     Type
		None
 Auto vars:     Size  Location     Type
  segments       11   30[COMRAM] unsigned char [11]
  bcd             5   41[COMRAM] unsigned char [5]
 Return value:  Size  Location     Type
                  1    wreg      void 
 Registers used:
		wreg, fsr0l, fsr0h, fsr1l, fsr1h, fsr2l, fsr2h, status,2, status,0, prodl, prodh, cstack
 Tracked objects:
		On entry : 
		On exit  : 
		Unchanged: 
 Data sizes:     COMRAM   BANK0   BANK1   BANK2   BANK3   BANK4   BANK5
      Params:         0       0       0       0       0       0       0
      Locals:        16       0       0       0       0       0       0
      Temps:          0       0       0       0       0       0       0
      Totals:        16       0       0       0       0       0       0
Total ram usage:       16 bytes
 Hardware stack levels required when called:    6
 This function calls:
		_datetime_decrease_hours
		_datetime_decrease_minutes
		_datetime_increase_hours
		_datetime_increase_minutes
		_dec_2_bcd
		_delay_ms
		_ds1307_get_time
		_ds1307_init
		_ds1307_set_time
		_i2c_init
		_pcf8574_write_port
		_pwm_init
		_pwm_set_duty
		_timer2_init
 This function is called by:
		Startup code after reset
 This function uses a non-reentrant model


 *************** function _timer2_init *****************
 Defined at:
		line 82 in file "../../lib_pic/timer.c"
 Parameters:    Size  Location     Type
  scaler          1    wreg     enum E2407
  timer           2    6[COMRAM] unsigned short 
 Auto vars:     Size  Location     Type
  scaler          1    9[COMRAM] enum E2407
 Return value:  Size  Location     Type
                  1    wreg      void 
 Registers used:
		wreg, status,2, status,0
 Tracked objects:
		On entry : 
		On exit  : 
		Unchanged: 
 Data sizes:     COMRAM   BANK0   BANK1   BANK2   BANK3   BANK4   BANK5
      Params:         2       0       0       0       0       0       0
      Locals:         1       0       0       0       0       0       0
      Temps:          1       0       0       0       0       0       0
      Totals:         4       0       0       0       0       0       0
Total ram usage:        4 bytes
 Hardware stack levels used:    1
 Hardware stack levels required when called:    2
 This function calls:
		Nothing
 This function is called by:
		_main
 This function uses a non-reentrant model


 *************** function _pwm_set_duty *****************
 Defined at:
		line 49 in file "../../lib_pic/pwm.c"
 Parameters:    Size  Location     Type
  pwm_id          1    wreg     enum E2399
  duty            2    6[COMRAM] unsigned short 
 Auto vars:     Size  Location     Type
  pwm_id          1   10[COMRAM] enum E2399
 Return value:  Size  Location     Type
                  1    wreg      void 
 Registers used:
		wreg, status,2, status,0
 Tracked objects:
		On entry : 
		On exit  : 
		Unchanged: 
 Data sizes:     COMRAM   BANK0   BANK1   BANK2   BANK3   BANK4   BANK5
      Params:         2       0       0       0       0       0       0
      Locals:         1       0       0       0       0       0       0
      Temps:          2       0       0       0       0       0       0
      Totals:         5       0       0       0       0       0       0
Total ram usage:        5 bytes
 Hardware stack levels used:    1
 Hardware stack levels required when called:    2
 This function calls:
		Nothing
 This function is called by:
		_main
 This function uses a non-reentrant model


 *************** function _pwm_init *****************
 Defined at:
		line 8 in file "../../lib_pic/pwm.c"
 Parameters:    Size  Location     Type
  pwm_id          1    wreg     enum E2399
  freq            2    6[COMRAM] unsigned short 
  duty            2    8[COMRAM] unsigned short 
 Auto vars:     Size  Location     Type
  pwm_id          1   10[COMRAM] enum E2399
 Return value:  Size  Location     Type
                  1    wreg      void 
 Registers used:
		wreg, status,2, status,0
 Tracked objects:
		On entry : 
		On exit  : 
		Unchanged: 
 Data sizes:     COMRAM   BANK0   BANK1   BANK2   BANK3   BANK4   BANK5
      Params:         4       0       0       0       0       0       0
      Locals:         1       0       0       0       0       0       0
      Temps:          0       0       0       0       0       0       0
      Totals:         5       0       0       0       0       0       0
Total ram usage:        5 bytes
 Hardware stack levels used:    1
 Hardware stack levels required when called:    2
 This function calls:
		Nothing
 This function is called by:
		_main
 This function uses a non-reentrant model


 *************** function _pcf8574_write_port *****************
 Defined at:
		line 21 in file "../../lib_comp/pcf8574.c"
 Parameters:    Size  Location     Type
  i2c_bus_id      1    wreg     enum E2427
  adr_chip        1   10[COMRAM] unsigned char 
  data            1   11[COMRAM] unsigned char 
 Auto vars:     Size  Location     Type
  i2c_bus_id      1   12[COMRAM] enum E2427
 Return value:  Size  Location     Type
                  1    wreg      void 
 Registers used:
		wreg, status,2, status,0, cstack
 Tracked objects:
		On entry : 
		On exit  : 
		Unchanged: 
 Data sizes:     COMRAM   BANK0   BANK1   BANK2   BANK3   BANK4   BANK5
      Params:         2       0       0       0       0       0       0
      Locals:         1       0       0       0       0       0       0
      Temps:          0       0       0       0       0       0       0
      Totals:         3       0       0       0       0       0       0
Total ram usage:        3 bytes
 Hardware stack levels used:    1
 Hardware stack levels required when called:    4
 This function calls:
		_i2c_start
		_i2c_stop
		_i2c_write
 This function is called by:
		_main
 This function uses a non-reentrant model


 *************** function _i2c_init *****************
 Defined at:
		line 26 in file "../../lib_pic/i2c.c"
 Parameters:    Size  Location     Type
  bus_id          1    wreg     enum E2427
  freq            4   19[COMRAM] unsigned long 
  opt             2   23[COMRAM] unsigned short 
 Auto vars:     Size  Location     Type
  bus_id          1   29[COMRAM] enum E2427
  I2C_BRG         4   25[COMRAM] unsigned long 
 Return value:  Size  Location     Type
                  1    wreg      enum E2392
 Registers used:
		wreg, status,2, status,0, cstack
 Tracked objects:
		On entry : 
		On exit  : 
		Unchanged: 
 Data sizes:     COMRAM   BANK0   BANK1   BANK2   BANK3   BANK4   BANK5
      Params:         6       0       0       0       0       0       0
      Locals:         5       0       0       0       0       0       0
      Temps:          0       0       0       0       0       0       0
      Totals:        11       0       0       0       0       0       0
Total ram usage:       11 bytes
 Hardware stack levels used:    1
 Hardware stack levels required when called:    3
 This function calls:
		___lldiv
		_delay_ms
 This function is called by:
		_main
 This function uses a non-reentrant model


 *************** function _delay_ms *****************
 Defined at:
		line 39 in file "../../lib_misc/delays.c"
 Parameters:    Size  Location     Type
  loop            2    6[COMRAM] unsigned short 
 Auto vars:     Size  Location     Type
  k               2   10[COMRAM] unsigned short 
  i               2    8[COMRAM] unsigned short 
 Return value:  Size  Location     Type
                  1    wreg      void 
 Registers used:
		wreg, status,2, status,0
 Tracked objects:
		On entry : 
		On exit  : 
		Unchanged: 
 Data sizes:     COMRAM   BANK0   BANK1   BANK2   BANK3   BANK4   BANK5
      Params:         2       0       0       0       0       0       0
      Locals:         4       0       0       0       0       0       0
      Temps:          0       0       0       0       0       0       0
      Totals:         6       0       0       0       0       0       0
Total ram usage:        6 bytes
 Hardware stack levels used:    1
 Hardware stack levels required when called:    2
 This function calls:
		Nothing
 This function is called by:
		_main
		_i2c_init
 This function uses a non-reentrant model


 *************** function ___lldiv *****************
 Defined at:
		line 7 in file "C:\Programs\Microchip\xc8\v2.10\pic\sources\c99\common\__lldiv.c"
 Parameters:    Size  Location     Type
  dividend        4    6[COMRAM] unsigned long 
  divisor         4   10[COMRAM] unsigned long 
 Auto vars:     Size  Location     Type
  quotient        4   14[COMRAM] unsigned long 
  counter         1   18[COMRAM] unsigned char 
 Return value:  Size  Location     Type
                  4    6[COMRAM] unsigned long 
 Registers used:
		wreg, status,2, status,0
 Tracked objects:
		On entry : 
		On exit  : 
		Unchanged: 
 Data sizes:     COMRAM   BANK0   BANK1   BANK2   BANK3   BANK4   BANK5
      Params:         8       0       0       0       0       0       0
      Locals:         5       0       0       0       0       0       0
      Temps:          0       0       0       0       0       0       0
      Totals:        13       0       0       0       0       0       0
Total ram usage:       13 bytes
 Hardware stack levels used:    1
 Hardware stack levels required when called:    2
 This function calls:
		Nothing
 This function is called by:
		_i2c_init
 This function uses a non-reentrant model


 *************** function _ds1307_set_time *****************
 Defined at:
		line 73 in file "../../lib_comp/ds1307.c"
 Parameters:    Size  Location     Type
  i2c_bus_id      1    wreg     enum E2456
  adr_chip        1   19[COMRAM] unsigned char 
  t               7   20[COMRAM] struct .
 Auto vars:     Size  Location     Type
  i2c_bus_id      1   27[COMRAM] enum E2456
  tmp             1   28[COMRAM] unsigned char 
 Return value:  Size  Location     Type
                  1    wreg      enum E2392
 Registers used:
		wreg, fsr2l, fsr2h, status,2, status,0, prodl, prodh, cstack
 Tracked objects:
		On entry : 
		On exit  : 
		Unchanged: 
 Data sizes:     COMRAM   BANK0   BANK1   BANK2   BANK3   BANK4   BANK5
      Params:         8       0       0       0       0       0       0
      Locals:         2       0       0       0       0       0       0
      Temps:          0       0       0       0       0       0       0
      Totals:        10       0       0       0       0       0       0
Total ram usage:       10 bytes
 Hardware stack levels used:    1
 Hardware stack levels required when called:    4
 This function calls:
		_bin_2_bcd
		_i2c_start
		_i2c_stop
		_i2c_write
 This function is called by:
		_main
 This function uses a non-reentrant model


 *************** function _bin_2_bcd *****************
 Defined at:
		line 124 in file "../../lib_misc/bcd.c"
 Parameters:    Size  Location     Type
  bin             1    wreg     unsigned char 
  bcd             2   14[COMRAM] PTR unsigned char 
		 -> ds1307_set_time@tmp(1), 
 Auto vars:     Size  Location     Type
  bin             1   18[COMRAM] unsigned char 
 Return value:  Size  Location     Type
                  1    wreg      void 
 Registers used:
		wreg, fsr2l, fsr2h, status,2, status,0, prodl, prodh, cstack
 Tracked objects:
		On entry : 
		On exit  : 
		Unchanged: 
 Data sizes:     COMRAM   BANK0   BANK1   BANK2   BANK3   BANK4   BANK5
      Params:         2       0       0       0       0       0       0
      Locals:         1       0       0       0       0       0       0
      Temps:          2       0       0       0       0       0       0
      Totals:         5       0       0       0       0       0       0
Total ram usage:        5 bytes
 Hardware stack levels used:    1
 Hardware stack levels required when called:    3
 This function calls:
		___awdiv
		___awmod
 This function is called by:
		_ds1307_set_time
 This function uses a non-reentrant model


 *************** function ___awmod *****************
 Defined at:
		line 7 in file "C:\Programs\Microchip\xc8\v2.10\pic\sources\c99\common\awmod.c"
 Parameters:    Size  Location     Type
  dividend        2    6[COMRAM] int 
  divisor         2    8[COMRAM] int 
 Auto vars:     Size  Location     Type
  sign            1   11[COMRAM] unsigned char 
  counter         1   10[COMRAM] unsigned char 
 Return value:  Size  Location     Type
                  2    6[COMRAM] int 
 Registers used:
		wreg, status,2, status,0
 Tracked objects:
		On entry : 
		On exit  : 
		Unchanged: 
 Data sizes:     COMRAM   BANK0   BANK1   BANK2   BANK3   BANK4   BANK5
      Params:         4       0       0       0       0       0       0
      Locals:         2       0       0       0       0       0       0
      Temps:          0       0       0       0       0       0       0
      Totals:         6       0       0       0       0       0       0
Total ram usage:        6 bytes
 Hardware stack levels used:    1
 Hardware stack levels required when called:    2
 This function calls:
		Nothing
 This function is called by:
		_bin_2_bcd
 This function uses a non-reentrant model


 *************** function ___awdiv *****************
 Defined at:
		line 7 in file "C:\Programs\Microchip\xc8\v2.10\pic\sources\c99\common\awdiv.c"
 Parameters:    Size  Location     Type
  dividend        2    6[COMRAM] int 
  divisor         2    8[COMRAM] int 
 Auto vars:     Size  Location     Type
  quotient        2   12[COMRAM] int 
  sign            1   11[COMRAM] unsigned char 
  counter         1   10[COMRAM] unsigned char 
 Return value:  Size  Location     Type
                  2    6[COMRAM] int 
 Registers used:
		wreg, status,2, status,0
 Tracked objects:
		On entry : 
		On exit  : 
		Unchanged: 
 Data sizes:     COMRAM   BANK0   BANK1   BANK2   BANK3   BANK4   BANK5
      Params:         4       0       0       0       0       0       0
      Locals:         4       0       0       0       0       0       0
      Temps:          0       0       0       0       0       0       0
      Totals:         8       0       0       0       0       0       0
Total ram usage:        8 bytes
 Hardware stack levels used:    1
 Hardware stack levels required when called:    2
 This function calls:
		Nothing
 This function is called by:
		_bin_2_bcd
 This function uses a non-reentrant model


 *************** function _ds1307_init *****************
 Defined at:
		line 9 in file "../../lib_comp/ds1307.c"
 Parameters:    Size  Location     Type
  i2c_bus_id      1    wreg     enum E2456
  adr_chip        1   10[COMRAM] unsigned char 
 Auto vars:     Size  Location     Type
  i2c_bus_id      1   11[COMRAM] enum E2456
 Return value:  Size  Location     Type
                  1    wreg      enum E2392
 Registers used:
		wreg, status,2, status,0, cstack
 Tracked objects:
		On entry : 
		On exit  : 
		Unchanged: 
 Data sizes:     COMRAM   BANK0   BANK1   BANK2   BANK3   BANK4   BANK5
      Params:         1       0       0       0       0       0       0
      Locals:         1       0       0       0       0       0       0
      Temps:          0       0       0       0       0       0       0
      Totals:         2       0       0       0       0       0       0
Total ram usage:        2 bytes
 Hardware stack levels used:    1
 Hardware stack levels required when called:    4
 This function calls:
		_i2c_start
		_i2c_stop
		_i2c_write
 This function is called by:
		_main
 This function uses a non-reentrant model


 *************** function _ds1307_get_time *****************
 Defined at:
		line 34 in file "../../lib_comp/ds1307.c"
 Parameters:    Size  Location     Type
  i2c_bus_id      1    wreg     enum E2456
  adr_chip        1   19[COMRAM] unsigned char 
  t               2   20[COMRAM] PTR struct .
		 -> t(7), 
 Auto vars:     Size  Location     Type
  i2c_bus_id      1   22[COMRAM] enum E2456
  tmp             1   23[COMRAM] unsigned char 
 Return value:  Size  Location     Type
                  1    wreg      enum E2392
 Registers used:
		wreg, fsr2l, fsr2h, status,2, status,0, prodl, prodh, cstack
 Tracked objects:
		On entry : 
		On exit  : 
		Unchanged: 
 Data sizes:     COMRAM   BANK0   BANK1   BANK2   BANK3   BANK4   BANK5
      Params:         3       0       0       0       0       0       0
      Locals:         2       0       0       0       0       0       0
      Temps:          0       0       0       0       0       0       0
      Totals:         5       0       0       0       0       0       0
Total ram usage:        5 bytes
 Hardware stack levels used:    1
 Hardware stack levels required when called:    5
 This function calls:
		_bcd_2_bin
		_i2c_read_reg
 This function is called by:
		_main
 This function uses a non-reentrant model


 *************** function _i2c_read_reg *****************
 Defined at:
		line 532 in file "../../lib_pic/i2c.c"
 Parameters:    Size  Location     Type
  bus_id          1    wreg     enum E2427
  adr_chip        1   13[COMRAM] unsigned char 
  adr_reg         1   14[COMRAM] unsigned char 
  data            2   15[COMRAM] PTR unsigned char 
		 -> ds1307_get_time@tmp(1), 
 Auto vars:     Size  Location     Type
  bus_id          1   17[COMRAM] enum E2427
  result          1   18[COMRAM] enum E2392
 Return value:  Size  Location     Type
                  1    wreg      enum E2392
 Registers used:
		wreg, fsr2l, fsr2h, status,2, status,0, cstack
 Tracked objects:
		On entry : 
		On exit  : 
		Unchanged: 
 Data sizes:     COMRAM   BANK0   BANK1   BANK2   BANK3   BANK4   BANK5
      Params:         4       0       0       0       0       0       0
      Locals:         2       0       0       0       0       0       0
      Temps:          0       0       0       0       0       0       0
      Totals:         6       0       0       0       0       0       0
Total ram usage:        6 bytes
 Hardware stack levels used:    1
 Hardware stack levels required when called:    4
 This function calls:
		_i2c_read
		_i2c_rstart
		_i2c_start
		_i2c_stop
		_i2c_write
 This function is called by:
		_ds1307_get_time
 This function uses a non-reentrant model


 *************** function _i2c_write *****************
 Defined at:
		line 390 in file "../../lib_pic/i2c.c"
 Parameters:    Size  Location     Type
  bus_id          1    wreg     enum E2427
  data            1    7[COMRAM] unsigned char 
 Auto vars:     Size  Location     Type
  bus_id          1    9[COMRAM] enum E2427
  result          1    0        enum E2392
 Return value:  Size  Location     Type
                  1    wreg      enum E2392
 Registers used:
		wreg, status,2, status,0, cstack
 Tracked objects:
		On entry : 
		On exit  : 
		Unchanged: 
 Data sizes:     COMRAM   BANK0   BANK1   BANK2   BANK3   BANK4   BANK5
      Params:         1       0       0       0       0       0       0
      Locals:         2       0       0       0       0       0       0
      Temps:          0       0       0       0       0       0       0
      Totals:         3       0       0       0       0       0       0
Total ram usage:        3 bytes
 Hardware stack levels used:    1
 Hardware stack levels required when called:    3
 This function calls:
		_i2c_wait_ack
 This function is called by:
		_i2c_read_reg
		_ds1307_init
		_ds1307_set_time
		_pcf8574_write_port
		_i2c_write_reg
		_pcf8574_read_port
 This function uses a non-reentrant model


 *************** function _i2c_wait_ack *****************
 Defined at:
		line 283 in file "../../lib_pic/i2c.c"
 Parameters:    Size  Location     Type
  bus_id          1    wreg     enum E2427
 Auto vars:     Size  Location     Type
  bus_id          1    0[COMRAM] enum E2427
  i               1    6[COMRAM] unsigned char 
 Return value:  Size  Location     Type
                  1    wreg      enum E2392
 Registers used:
		wreg, status,2, status,0
 Tracked objects:
		On entry : 
		On exit  : 
		Unchanged: 
 Data sizes:     COMRAM   BANK0   BANK1   BANK2   BANK3   BANK4   BANK5
      Params:         0       0       0       0       0       0       0
      Locals:         1       0       0       0       0       0       0
      Temps:          0       0       0       0       0       0       0
      Totals:         1       0       0       0       0       0       0
Total ram usage:        1 bytes
 Hardware stack levels used:    1
 Hardware stack levels required when called:    2
 This function calls:
		Nothing
 This function is called by:
		_i2c_write
 This function uses a non-reentrant model


 *************** function _i2c_stop *****************
 Defined at:
		line 437 in file "../../lib_pic/i2c.c"
 Parameters:    Size  Location     Type
  bus_id          1    wreg     enum E2427
 Auto vars:     Size  Location     Type
  bus_id          1    0[COMRAM] enum E2427
 Return value:  Size  Location     Type
                  1    wreg      enum E2392
 Registers used:
		wreg
 Tracked objects:
		On entry : 
		On exit  : 
		Unchanged: 
 Data sizes:     COMRAM   BANK0   BANK1   BANK2   BANK3   BANK4   BANK5
      Params:         0       0       0       0       0       0       0
      Locals:         0       0       0       0       0       0       0
      Temps:          0       0       0       0       0       0       0
      Totals:         0       0       0       0       0       0       0
Total ram usage:        0 bytes
 Hardware stack levels used:    1
 Hardware stack levels required when called:    2
 This function calls:
		Nothing
 This function is called by:
		_i2c_read_reg
		_ds1307_init
		_ds1307_set_time
		_pcf8574_write_port
		_i2c_write_reg
		_pcf8574_read_port
 This function uses a non-reentrant model


 *************** function _i2c_start *****************
 Defined at:
		line 155 in file "../../lib_pic/i2c.c"
 Parameters:    Size  Location     Type
  bus_id          1    wreg     enum E2427
 Auto vars:     Size  Location     Type
  bus_id          1    0[COMRAM] enum E2427
  result          1    0        enum E2392
 Return value:  Size  Location     Type
                  1    wreg      enum E2392
 Registers used:
		wreg, status,2
 Tracked objects:
		On entry : 
		On exit  : 
		Unchanged: 
 Data sizes:     COMRAM   BANK0   BANK1   BANK2   BANK3   BANK4   BANK5
      Params:         0       0       0       0       0       0       0
      Locals:         1       0       0       0       0       0       0
      Temps:          0       0       0       0       0       0       0
      Totals:         1       0       0       0       0       0       0
Total ram usage:        1 bytes
 Hardware stack levels used:    1
 Hardware stack levels required when called:    2
 This function calls:
		Nothing
 This function is called by:
		_i2c_read_reg
		_ds1307_init
		_ds1307_set_time
		_pcf8574_write_port
		_i2c_write_reg
		_pcf8574_read_port
 This function uses a non-reentrant model


 *************** function _i2c_rstart *****************
 Defined at:
		line 199 in file "../../lib_pic/i2c.c"
 Parameters:    Size  Location     Type
  bus_id          1    wreg     enum E2427
 Auto vars:     Size  Location     Type
  bus_id          1    0[COMRAM] enum E2427
  result          1    0        enum E2392
 Return value:  Size  Location     Type
                  1    wreg      enum E2392
 Registers used:
		wreg, status,2
 Tracked objects:
		On entry : 
		On exit  : 
		Unchanged: 
 Data sizes:     COMRAM   BANK0   BANK1   BANK2   BANK3   BANK4   BANK5
      Params:         0       0       0       0       0       0       0
      Locals:         1       0       0       0       0       0       0
      Temps:          0       0       0       0       0       0       0
      Totals:         1       0       0       0       0       0       0
Total ram usage:        1 bytes
 Hardware stack levels used:    1
 Hardware stack levels required when called:    2
 This function calls:
		Nothing
 This function is called by:
		_i2c_read_reg
 This function uses a non-reentrant model


 *************** function _i2c_read *****************
 Defined at:
		line 340 in file "../../lib_pic/i2c.c"
 Parameters:    Size  Location     Type
  bus_id          1    wreg     enum E2427
  ack             1    8[COMRAM] unsigned char 
  data            2    9[COMRAM] PTR unsigned char 
		 -> ds1307_get_time@tmp(1), 
 Auto vars:     Size  Location     Type
  bus_id          1   12[COMRAM] enum E2427
  result          1    0        enum E2392
 Return value:  Size  Location     Type
                  1    wreg      enum E2392
 Registers used:
		wreg, fsr2l, fsr2h, status,2, cstack
 Tracked objects:
		On entry : 
		On exit  : 
		Unchanged: 
 Data sizes:     COMRAM   BANK0   BANK1   BANK2   BANK3   BANK4   BANK5
      Params:         3       0       0       0       0       0       0
      Locals:         2       0       0       0       0       0       0
      Temps:          0       0       0       0       0       0       0
      Totals:         5       0       0       0       0       0       0
Total ram usage:        5 bytes
 Hardware stack levels used:    1
 Hardware stack levels required when called:    3
 This function calls:
		_i2c_send_ack
 This function is called by:
		_i2c_read_reg
		_pcf8574_read_port
 This function uses a non-reentrant model


 *************** function _i2c_send_ack *****************
 Defined at:
		line 241 in file "../../lib_pic/i2c.c"
 Parameters:    Size  Location     Type
  bus_id          1    wreg     enum E2427
  Ack             1    6[COMRAM] unsigned char 
 Auto vars:     Size  Location     Type
  bus_id          1    0[COMRAM] enum E2427
  result          1    0        enum E2392
 Return value:  Size  Location     Type
                  1    wreg      enum E2392
 Registers used:
		wreg, status,2
 Tracked objects:
		On entry : 
		On exit  : 
		Unchanged: 
 Data sizes:     COMRAM   BANK0   BANK1   BANK2   BANK3   BANK4   BANK5
      Params:         1       0       0       0       0       0       0
      Locals:         1       0       0       0       0       0       0
      Temps:          0       0       0       0       0       0       0
      Totals:         2       0       0       0       0       0       0
Total ram usage:        2 bytes
 Hardware stack levels used:    1
 Hardware stack levels required when called:    2
 This function calls:
		Nothing
 This function is called by:
		_i2c_read
 This function uses a non-reentrant model


 *************** function _bcd_2_bin *****************
 Defined at:
		line 133 in file "../../lib_misc/bcd.c"
 Parameters:    Size  Location     Type
  bcd             1    wreg     unsigned char 
  bin             2    6[COMRAM] PTR unsigned char 
		 -> t(7), 
 Auto vars:     Size  Location     Type
  bcd             1    9[COMRAM] unsigned char 
 Return value:  Size  Location     Type
                  1    wreg      void 
 Registers used:
		wreg, fsr2l, fsr2h, status,2, status,0, prodl, prodh
 Tracked objects:
		On entry : 
		On exit  : 
		Unchanged: 
 Data sizes:     COMRAM   BANK0   BANK1   BANK2   BANK3   BANK4   BANK5
      Params:         2       0       0       0       0       0       0
      Locals:         1       0       0       0       0       0       0
      Temps:          1       0       0       0       0       0       0
      Totals:         4       0       0       0       0       0       0
Total ram usage:        4 bytes
 Hardware stack levels used:    1
 Hardware stack levels required when called:    2
 This function calls:
		Nothing
 This function is called by:
		_ds1307_get_time
 This function uses a non-reentrant model


 *************** function _dec_2_bcd *****************
 Defined at:
		line 8 in file "../../lib_misc/bcd.c"
 Parameters:    Size  Location     Type
  dec             2    6[COMRAM] unsigned short 
  bcd             2    8[COMRAM] PTR unsigned char 
		 -> main@bcd(5), 
 Auto vars:     Size  Location     Type
		None
 Return value:  Size  Location     Type
                  1    wreg      void 
 Registers used:
		wreg, fsr2l, fsr2h, status,2, status,0
 Tracked objects:
		On entry : 
		On exit  : 
		Unchanged: 
 Data sizes:     COMRAM   BANK0   BANK1   BANK2   BANK3   BANK4   BANK5
      Params:         4       0       0       0       0       0       0
      Locals:         0       0       0       0       0       0       0
      Temps:          0       0       0       0       0       0       0
      Totals:         4       0       0       0       0       0       0
Total ram usage:        4 bytes
 Hardware stack levels used:    1
 Hardware stack levels required when called:    2
 This function calls:
		Nothing
 This function is called by:
		_main
 This function uses a non-reentrant model


 *************** function _datetime_increase_minutes *****************
 Defined at:
		line 54 in file "../../lib_misc/clock.c"
 Parameters:    Size  Location     Type
  t               2    6[COMRAM] PTR struct .
		 -> t(7), 
 Auto vars:     Size  Location     Type
		None
 Return value:  Size  Location     Type
                  1    wreg      void 
 Registers used:
		wreg, fsr2l, fsr2h, status,2, status,0
 Tracked objects:
		On entry : 
		On exit  : 
		Unchanged: 
 Data sizes:     COMRAM   BANK0   BANK1   BANK2   BANK3   BANK4   BANK5
      Params:         2       0       0       0       0       0       0
      Locals:         0       0       0       0       0       0       0
      Temps:          1       0       0       0       0       0       0
      Totals:         3       0       0       0       0       0       0
Total ram usage:        3 bytes
 Hardware stack levels used:    1
 Hardware stack levels required when called:    2
 This function calls:
		Nothing
 This function is called by:
		_main
 This function uses a non-reentrant model


 *************** function _datetime_increase_hours *****************
 Defined at:
		line 78 in file "../../lib_misc/clock.c"
 Parameters:    Size  Location     Type
  t               2    6[COMRAM] PTR struct .
		 -> t(7), 
 Auto vars:     Size  Location     Type
		None
 Return value:  Size  Location     Type
                  1    wreg      void 
 Registers used:
		wreg, fsr2l, fsr2h, status,2, status,0
 Tracked objects:
		On entry : 
		On exit  : 
		Unchanged: 
 Data sizes:     COMRAM   BANK0   BANK1   BANK2   BANK3   BANK4   BANK5
      Params:         2       0       0       0       0       0       0
      Locals:         0       0       0       0       0       0       0
      Temps:          1       0       0       0       0       0       0
      Totals:         3       0       0       0       0       0       0
Total ram usage:        3 bytes
 Hardware stack levels used:    1
 Hardware stack levels required when called:    2
 This function calls:
		Nothing
 This function is called by:
		_main
 This function uses a non-reentrant model


 *************** function _datetime_decrease_minutes *****************
 Defined at:
		line 42 in file "../../lib_misc/clock.c"
 Parameters:    Size  Location     Type
  t               2    6[COMRAM] PTR struct .
		 -> t(7), 
 Auto vars:     Size  Location     Type
		None
 Return value:  Size  Location     Type
                  1    wreg      void 
 Registers used:
		wreg, fsr2l, fsr2h, status,2, status,0
 Tracked objects:
		On entry : 
		On exit  : 
		Unchanged: 
 Data sizes:     COMRAM   BANK0   BANK1   BANK2   BANK3   BANK4   BANK5
      Params:         2       0       0       0       0       0       0
      Locals:         0       0       0       0       0       0       0
      Temps:          0       0       0       0       0       0       0
      Totals:         2       0       0       0       0       0       0
Total ram usage:        2 bytes
 Hardware stack levels used:    1
 Hardware stack levels required when called:    2
 This function calls:
		Nothing
 This function is called by:
		_main
 This function uses a non-reentrant model


 *************** function _datetime_decrease_hours *****************
 Defined at:
		line 66 in file "../../lib_misc/clock.c"
 Parameters:    Size  Location     Type
  t               2    6[COMRAM] PTR struct .
		 -> t(7), 
 Auto vars:     Size  Location     Type
		None
 Return value:  Size  Location     Type
                  1    wreg      void 
 Registers used:
		wreg, fsr2l, fsr2h, status,2, status,0
 Tracked objects:
		On entry : 
		On exit  : 
		Unchanged: 
 Data sizes:     COMRAM   BANK0   BANK1   BANK2   BANK3   BANK4   BANK5
      Params:         2       0       0       0       0       0       0
      Locals:         0       0       0       0       0       0       0
      Temps:          0       0       0       0       0       0       0
      Totals:         2       0       0       0       0       0       0
Total ram usage:        2 bytes
 Hardware stack levels used:    1
 Hardware stack levels required when called:    2
 This function calls:
		Nothing
 This function is called by:
		_main
 This function uses a non-reentrant model


 *************** function _timer2_irq *****************
 Defined at:
		line 53 in file "main.c"
 Parameters:    Size  Location     Type
		None
 Auto vars:     Size  Location     Type
		None
 Return value:  Size  Location     Type
                  1    wreg      void 
 Registers used:
		wreg, fsr2l, fsr2h, status,2, status,0, cstack
 Tracked objects:
		On entry : 
		On exit  : 
		Unchanged: 
 Data sizes:     COMRAM   BANK0   BANK1   BANK2   BANK3   BANK4   BANK5
      Params:         0       0       0       0       0       0       0
      Locals:         0       0       0       0       0       0       0
      Temps:          3       0       0       0       0       0       0
      Totals:         3       0       0       0       0       0       0
Total ram usage:        3 bytes
 Hardware stack levels used:    1
 Hardware stack levels required when called:    1
 This function calls:
		_clock_update
 This function is called by:
		Interrupt level 2
 This function uses a non-reentrant model


 *************** function _clock_update *****************
 Defined at:
		line 22 in file "../../lib_misc/clock.c"
 Parameters:    Size  Location     Type
  t               2    0[COMRAM] PTR struct .
		 -> t(7), 
 Auto vars:     Size  Location     Type
		None
 Return value:  Size  Location     Type
                  1    wreg      void 
 Registers used:
		wreg, fsr2l, fsr2h, status,2, status,0
 Tracked objects:
		On entry : 
		On exit  : 
		Unchanged: 
 Data sizes:     COMRAM   BANK0   BANK1   BANK2   BANK3   BANK4   BANK5
      Params:         2       0       0       0       0       0       0
      Locals:         0       0       0       0       0       0       0
      Temps:          1       0       0       0       0       0       0
      Totals:         3       0       0       0       0       0       0
Total ram usage:        3 bytes
 Hardware stack levels used:    1
 This function calls:
		Nothing
 This function is called by:
		_timer2_irq
 This function uses a non-reentrant model



MODULE INFORMATION

Module		Function		Class		Link	Load	Size
C:\Programs\Microchip\xc8\v2.10\pic\sources\c99\common\__lldiv.c
		___lldiv       		CODE           	1054	0000	191

C:\Programs\Microchip\xc8\v2.10\pic\sources\c99\common\__lldiv.c estimated size: 191

../../lib_misc/delays.c
		_delay_ms      		CODE           	12E2	0000	95

../../lib_misc/delays.c estimated size: 95

../../lib_misc/clock.c
		_clock_update  		CODE           	1112	0000	181
		_datetime_decrease_hours		CODE           	14F8	0000	65
		_datetime_increase_hours		CODE           	14B8	0000	65
		_datetime_decrease_minutes		CODE           	13E6	0000	77
		_datetime_increase_minutes		CODE           	139A	0000	77

../../lib_misc/clock.c estimated size: 465

../../lib_comp/ds1307.c
		_ds1307_get_time		CODE           	09AE	0000	469
		_ds1307_set_time		CODE           	07D4	0000	475
		_ds1307_init   		CODE           	11C8	0000	161

../../lib_comp/ds1307.c estimated size: 1105

../../lib_pic/timer.c
		_timer2_init   		CODE           	15A6	0000	51

../../lib_pic/timer.c estimated size: 51

../../lib_comp/pcf8574.c
		_pcf8574_write_port		CODE           	160A	0000	45

../../lib_comp/pcf8574.c estimated size: 45

../../lib_pic/i2c.c
		_i2c_start     		CODE           	16A0	0000	31
		_i2c_write     		CODE           	15D8	0000	51
		_i2c_rstart    		CODE           	16BE	0000	31
		_i2c_stop      		CODE           	1682	0000	31
		_i2c_read      		CODE           	1538	0000	57
		_i2c_init      		CODE           	1268	0000	123
		_i2c_wait_ack  		CODE           	1340	0000	91
		_i2c_read_reg  		CODE           	0E96	0000	227
		_i2c_send_ack  		CODE           	1636	0000	39

../../lib_pic/i2c.c estimated size: 681

C:\Programs\Microchip\xc8\v2.10\pic\sources\c99\common\awmod.c
		___awmod       		CODE           	0F78	0000	221

C:\Programs\Microchip\xc8\v2.10\pic\sources\c99\common\awmod.c estimated size: 221

../../lib_misc/bcd.c
		_bcd_2_bin     		CODE           	165C	0000	39
		_dec_2_bcd     		CODE           	0B82	0000	319
		_bin_2_bcd     		CODE           	1432	0000	71

../../lib_misc/bcd.c estimated size: 429

../../lib_pic/pwm.c
		_pwm_set_duty  		CODE           	0DB0	0000	231
		_pwm_init      		CODE           	1478	0000	65

../../lib_pic/pwm.c estimated size: 296

shared
		__initialization		CODE           	1570	0000	45

shared estimated size: 45

C:\Programs\Microchip\xc8\v2.10\pic\sources\c99\common\awdiv.c
		___awdiv       		CODE           	0CC0	0000	241

C:\Programs\Microchip\xc8\v2.10\pic\sources\c99\common\awdiv.c estimated size: 241

main.c
		_timer2_irq    		CODE           	0008	0000	719
		_main          		CODE           	02DA	0000	1275

main.c estimated size: 1994

