

Microchip MPLAB XC8 Assembler V2.10 build 88905656 
                                                                                               Sun May 03 20:29:37 2020

Microchip MPLAB XC8 C Compiler v2.10 (Free license) build 20190730164152 Og1 
     1                           	processor	18F252
     2                           	fnconf	rparam,??,?,0
     3                           	opt	pw 120
     4                           	opt	flic
     5                           	psect	idataBANK0,global,class=CODE,delta=1,noexec
     6                           	psect	mediumconst,global,reloc=2,class=MEDIUMCONST,delta=1,noexec
     7                           	psect	cinit,global,reloc=2,class=CODE,delta=1
     8                           	psect	bssCOMRAM,global,class=COMRAM,space=1,delta=1,noexec
     9                           	psect	bssBANK0,global,class=BANK0,space=1,delta=1,lowdata,noexec
    10                           	psect	dataBANK0,global,class=BANK0,space=1,delta=1,lowdata,noexec
    11                           	psect	bssBANK1,global,class=BANK1,space=1,delta=1,lowdata,noexec
    12                           	psect	cstackBANK0,global,class=BANK0,space=1,delta=1,noexec
    13                           	psect	cstackCOMRAM,global,class=COMRAM,space=1,delta=1,noexec
    14                           	psect	text0,global,reloc=2,class=CODE,delta=1
    15                           	psect	text1,global,reloc=2,class=CODE,delta=1
    16                           	psect	text2,global,reloc=2,class=CODE,delta=1
    17                           	psect	text3,global,reloc=2,class=CODE,delta=1,group=1
    18                           	psect	text4,global,reloc=2,class=CODE,delta=1,group=1
    19                           	psect	text5,global,reloc=2,class=CODE,delta=1,group=1
    20                           	psect	text6,global,reloc=2,class=CODE,delta=1,group=1
    21                           	psect	text7,global,reloc=2,class=CODE,delta=1,group=1
    22                           	psect	text8,global,reloc=2,class=CODE,delta=1
    23                           	psect	text9,global,reloc=2,class=CODE,delta=1
    24                           	psect	text10,global,reloc=2,class=CODE,delta=1
    25                           	psect	text11,global,reloc=2,class=CODE,delta=1
    26                           	psect	text12,global,reloc=2,class=CODE,delta=1
    27                           	psect	text13,global,reloc=2,class=CODE,delta=1
    28                           	psect	text14,global,reloc=2,class=CODE,delta=1
    29                           	psect	text15,global,reloc=2,class=CODE,delta=1
    30                           	psect	text16,global,reloc=2,class=CODE,delta=1
    31                           	psect	text17,global,reloc=2,class=CODE,delta=1
    32                           	psect	text18,global,reloc=2,class=CODE,delta=1
    33                           	psect	text19,global,reloc=2,class=CODE,delta=1
    34                           	psect	text20,global,reloc=2,class=CODE,delta=1
    35                           	psect	text21,global,reloc=2,class=CODE,delta=1
    36                           	psect	text22,global,reloc=2,class=CODE,delta=1
    37                           	psect	text23,global,reloc=2,class=CODE,delta=1
    38                           	psect	text24,global,reloc=2,class=CODE,delta=1
    39                           	psect	text25,global,reloc=2,class=CODE,delta=1
    40                           	psect	text26,global,reloc=2,class=CODE,delta=1
    41                           	psect	text27,global,reloc=2,class=CODE,delta=1
    42                           	psect	text28,global,reloc=2,class=CODE,delta=1
    43                           	psect	text29,global,reloc=2,class=CODE,delta=1
    44                           	psect	text30,global,reloc=2,class=CODE,delta=1
    45                           	psect	text31,global,reloc=2,class=CODE,delta=1
    46                           	psect	text32,global,reloc=2,class=CODE,delta=1
    47                           	psect	text33,global,reloc=2,class=CODE,delta=1
    48                           	psect	text34,global,reloc=2,class=CODE,delta=1,group=1
    49                           	psect	text35,global,reloc=2,class=CODE,delta=1
    50                           	psect	text36,global,reloc=2,class=CODE,delta=1
    51                           	psect	text37,global,reloc=2,class=CODE,delta=1
    52                           	psect	text38,global,reloc=2,class=CODE,delta=1
    53                           	psect	intcode,global,reloc=2,class=CODE,delta=1
    54                           	psect	intsave_regs,global,class=BIGRAM,space=1,delta=1,noexec
    55                           	psect	rparam,global,class=COMRAM,space=1,delta=1,noexec
    56                           	psect	temp,global,ovrld,common,class=COMRAM,space=1,delta=1
    57  0000                     
    58                           ; Version 2.10
    59                           ; Generated 31/07/2019 GMT
    60                           ; 
    61                           ; Copyright © 2019, Microchip Technology Inc. and its subsidiaries ("Microchip")
    62                           ; All rights reserved.
    63                           ; 
    64                           ; This software is developed by Microchip Technology Inc. and its subsidiaries ("Microch
      +                          ip").
    65                           ; 
    66                           ; Redistribution and use in source and binary forms, with or without modification, are
    67                           ; permitted provided that the following conditions are met:
    68                           ; 
    69                           ;     1. Redistributions of source code must retain the above copyright notice, this lis
      +                          t of
    70                           ;        conditions and the following disclaimer.
    71                           ; 
    72                           ;     2. Redistributions in binary form must reproduce the above copyright notice, this 
      +                          list
    73                           ;        of conditions and the following disclaimer in the documentation and/or other
    74                           ;        materials provided with the distribution.
    75                           ; 
    76                           ;     3. Microchip's name may not be used to endorse or promote products derived from th
      +                          is
    77                           ;        software without specific prior written permission.
    78                           ; 
    79                           ; THIS SOFTWARE IS PROVIDED BY MICROCHIP "AS IS" AND ANY EXPRESS OR IMPLIED WARRANTIES,
    80                           ; INCLUDING, BUT NOT LIMITED TO, THE IMPLIED WARRANTIES OF MERCHANTABILITY AND FITNESS F
      +                          OR
    81                           ; PURPOSE ARE DISCLAIMED.  IN NO EVENT SHALL MICROCHIP BE LIABLE FOR ANY DIRECT, INDIREC
      +                          T,
    82                           ; INCIDENTAL, SPECIAL, EXEMPLARY, OR CONSEQUENTIAL DAMAGES (INCLUDING BUT NOT LIMITED TO
    83                           ; PROCUREMENT OF SUBSTITUTE GOODS OR SERVICES; LOSS OF USE, DATA OR PROFITS; OR BUSINESS
    84                           ; INTERRUPTION) HOWSOEVER CAUSED AND ON ANY THEORY OF LIABILITY, WHETHER IN CONTRACT, ST
      +                          RICT
    85                           ; LIABILITY, OR TORT (INCLUDING NEGLIGENCE OR OTHERWISE) ARISING IN ANY WAY OUT OF THE U
      +                          SE OF
    86                           ; THIS SOFTWARE, EVEN IF ADVISED OF THE POSSIBILITY OF SUCH DAMAGE.
    87                           ; 
    88                           ; 
    89                           ; Code-generator required, PIC18F252 Definitions
    90                           ; 
    91                           ; SFR Addresses
    92  0000                     
    93                           	psect	idataBANK0
    94  002766                     __pidataBANK0:
    95                           	opt callstack 0
    96                           
    97                           ;initializer for lcd_write_date@F2591
    98  002766  BF                 	db	low STR_54
    99  002767  7F                 	db	high STR_54
   100  002768  A3                 	db	low STR_55
   101  002769  7F                 	db	high STR_55
   102  00276A  D3                 	db	low STR_56
   103  00276B  7F                 	db	high STR_56
   104  00276C  D7                 	db	low STR_57
   105  00276D  7F                 	db	high STR_57
   106  00276E  EB                 	db	low STR_58
   107  00276F  7F                 	db	high STR_58
   108  002770  C7                 	db	low STR_59
   109  002771  7F                 	db	high STR_59
   110  002772  BB                 	db	low STR_60
   111  002773  7F                 	db	high STR_60
   112  002774  B3                 	db	low STR_61
   113  002775  7F                 	db	high STR_61
   114  002776  CF                 	db	low STR_62
   115  002777  7F                 	db	high STR_62
   116  002778  DF                 	db	low STR_63
   117  002779  7F                 	db	high STR_63
   118  00277A  E7                 	db	low STR_64
   119  00277B  7F                 	db	high STR_64
   120  00277C  A7                 	db	low STR_65
   121  00277D  7F                 	db	high STR_65
   122                           
   123                           ;initializer for lcd_write_date@F2589
   124  00277E  C3                 	db	low STR_47
   125  00277F  7F                 	db	high STR_47
   126  002780  AF                 	db	low STR_48
   127  002781  7F                 	db	high STR_48
   128  002782  AB                 	db	low STR_49
   129  002783  7F                 	db	high STR_49
   130  002784  E3                 	db	low STR_50
   131  002785  7F                 	db	high STR_50
   132  002786  B7                 	db	low STR_51
   133  002787  7F                 	db	high STR_51
   134  002788  DB                 	db	low STR_52
   135  002789  7F                 	db	high STR_52
   136  00278A  CB                 	db	low STR_53
   137  00278B  7F                 	db	high STR_53
   138                           
   139                           ;initializer for uart_write_date@F2553
   140  00278C  2B                 	db	low STR_40
   141  00278D  7F                 	db	high STR_40
   142  00278E  0C                 	db	low STR_41
   143  00278F  7F                 	db	high STR_41
   144  002790  E6                 	db	low STR_42
   145  002791  7E                 	db	high STR_42
   146  002792  03                 	db	low STR_43
   147  002793  7F                 	db	high STR_43
   148  002794  24                 	db	low STR_44
   149  002795  7F                 	db	high STR_44
   150  002796  FA                 	db	low STR_45
   151  002797  7E                 	db	high STR_45
   152  002798  32                 	db	low STR_46
   153  002799  7F                 	db	high STR_46
   154                           
   155                           ;initializer for main@F2771
   156  00279A  40                 	db	64
   157  00279B  79                 	db	121
   158  00279C  24                 	db	36
   159  00279D  30                 	db	48
   160  00279E  19                 	db	25
   161  00279F  12                 	db	18
   162  0027A0  02                 	db	2
   163  0027A1  78                 	db	120
   164  0027A2  00                 	db	0
   165  0027A3  10                 	db	16
   166  0027A4  3F                 	db	63
   167  0000                     _LATBbits	set	3978
   168  0000                     _TRISBbits	set	3987
   169  0000                     _TXREG	set	4013
   170  0000                     _RCREG	set	4014
   171  0000                     _TRISCbits	set	3988
   172  0000                     _RCSTAbits	set	4011
   173  0000                     _TXSTAbits	set	4012
   174  0000                     _SPBRG	set	4015
   175  0000                     _T0CONbits	set	4053
   176  0000                     _INTCON	set	4082
   177  0000                     _PIE1	set	3997
   178  0000                     _RCONbits	set	4048
   179  0000                     _PR2	set	4043
   180  0000                     _INTCONbits	set	4082
   181  0000                     _PIE1bits	set	3997
   182  0000                     _CCPR2L	set	4027
   183  0000                     _CCPR1L	set	4030
   184  0000                     _CCP2CONbits	set	4026
   185  0000                     _CCP1CONbits	set	4029
   186  0000                     _PORTAbits	set	3968
   187  0000                     _ADCON1	set	4033
   188  0000                     _TRISC	set	3988
   189  0000                     _TRISB	set	3987
   190  0000                     _TRISA	set	3986
   191  0000                     _LATAbits	set	3977
   192  0000                     _T2CONbits	set	4042
   193  0000                     _SSPCON2	set	4037
   194  0000                     _SSPBUF	set	4041
   195  0000                     _PIR1bits	set	3998
   196  0000                     _SSPCON2bits	set	4037
   197  0000                     _SSPSTATbits	set	4039
   198  0000                     _SSPADD	set	4040
   199  0000                     _SSPCON1bits	set	4038
   200                           
   201                           	psect	mediumconst
   202  007E4A                     __pmediumconst:
   203                           	opt callstack 0
   204  007E4A  00                 	db	0
   205  007E4B                     STR_19:
   206                           
   207                           ; BSR set to: 0
   208  007E4B  0A                 	db	10
   209  007E4C  0A                 	db	10
   210  007E4D  2D                 	db	45
   211  007E4E  2D                 	db	45
   212  007E4F  2D                 	db	45
   213  007E50  2D                 	db	45
   214  007E51  2D                 	db	45
   215  007E52  2D                 	db	45
   216  007E53  20                 	db	32
   217  007E54  44                 	db	68	;'D'
   218  007E55  75                 	db	117	;'u'
   219  007E56  6D                 	db	109	;'m'
   220  007E57  70                 	db	112	;'p'
   221  007E58  20                 	db	32
   222  007E59  6F                 	db	111	;'o'
   223  007E5A  66                 	db	102	;'f'
   224  007E5B  20                 	db	32
   225  007E5C  49                 	db	73	;'I'
   226  007E5D  32                 	db	50	;'2'
   227  007E5E  43                 	db	67	;'C'
   228  007E5F  20                 	db	32
   229  007E60  43                 	db	67	;'C'
   230  007E61  68                 	db	104	;'h'
   231  007E62  69                 	db	105	;'i'
   232  007E63  70                 	db	112	;'p'
   233  007E64  20                 	db	32
   234  007E65  2D                 	db	45
   235  007E66  2D                 	db	45
   236  007E67  2D                 	db	45
   237  007E68  2D                 	db	45
   238  007E69  2D                 	db	45
   239  007E6A  2D                 	db	45
   240  007E6B  0A                 	db	10
   241  007E6C  20                 	db	32
   242  007E6D  20                 	db	32
   243  007E6E  20                 	db	32
   244  007E6F  20                 	db	32
   245  007E70  00                 	db	0
   246  007E71                     
   247                           ; BSR set to: 0
   248  007E71  0A                 	db	10
   249  007E72  0D                 	db	13
   250  007E73  2D                 	db	45
   251  007E74  2D                 	db	45
   252  007E75  2D                 	db	45
   253  007E76  2D                 	db	45
   254  007E77  2D                 	db	45
   255  007E78  2D                 	db	45
   256  007E79  20                 	db	32
   257  007E7A  53                 	db	83	;'S'
   258  007E7B  63                 	db	99	;'c'
   259  007E7C  61                 	db	97	;'a'
   260  007E7D  6E                 	db	110	;'n'
   261  007E7E  20                 	db	32
   262  007E7F  6F                 	db	111	;'o'
   263  007E80  66                 	db	102	;'f'
   264  007E81  20                 	db	32
   265  007E82  49                 	db	73	;'I'
   266  007E83  32                 	db	50	;'2'
   267  007E84  43                 	db	67	;'C'
   268  007E85  20                 	db	32
   269  007E86  42                 	db	66	;'B'
   270  007E87  75                 	db	117	;'u'
   271  007E88  73                 	db	115	;'s'
   272  007E89  20                 	db	32
   273  007E8A  2D                 	db	45
   274  007E8B  2D                 	db	45
   275  007E8C  2D                 	db	45
   276  007E8D  2D                 	db	45
   277  007E8E  2D                 	db	45
   278  007E8F  2D                 	db	45
   279  007E90  0A                 	db	10
   280  007E91  20                 	db	32
   281  007E92  20                 	db	32
   282  007E93  20                 	db	32
   283  007E94  20                 	db	32
   284  007E95  00                 	db	0
   285  007E96                     STR_7:
   286                           
   287                           ; BSR set to: 0
   288  007E96  20                 	db	32
   289  007E97  3A                 	db	58	;':'
   290  007E98  20                 	db	32
   291  007E99  64                 	db	100	;'d'
   292  007E9A  65                 	db	101	;'e'
   293  007E9B  76                 	db	118	;'v'
   294  007E9C  69                 	db	105	;'i'
   295  007E9D  63                 	db	99	;'c'
   296  007E9E  65                 	db	101	;'e'
   297  007E9F  20                 	db	32
   298  007EA0  63                 	db	99	;'c'
   299  007EA1  75                 	db	117	;'u'
   300  007EA2  72                 	db	114	;'r'
   301  007EA3  72                 	db	114	;'r'
   302  007EA4  65                 	db	101	;'e'
   303  007EA5  6E                 	db	110	;'n'
   304  007EA6  74                 	db	116	;'t'
   305  007EA7  6C                 	db	108	;'l'
   306  007EA8  79                 	db	121	;'y'
   307  007EA9  20                 	db	32
   308  007EAA  6E                 	db	110	;'n'
   309  007EAB  6F                 	db	111	;'o'
   310  007EAC  74                 	db	116	;'t'
   311  007EAD  20                 	db	32
   312  007EAE  73                 	db	115	;'s'
   313  007EAF  75                 	db	117	;'u'
   314  007EB0  70                 	db	112	;'p'
   315  007EB1  70                 	db	112	;'p'
   316  007EB2  6F                 	db	111	;'o'
   317  007EB3  72                 	db	114	;'r'
   318  007EB4  74                 	db	116	;'t'
   319  007EB5  65                 	db	101	;'e'
   320  007EB6  64                 	db	100	;'d'
   321  007EB7  0A                 	db	10
   322  007EB8  00                 	db	0
   323  007EB9                     
   324                           ; BSR set to: 0
   325  007EB9  20                 	db	32
   326  007EBA  3A                 	db	58	;':'
   327  007EBB  20                 	db	32
   328  007EBC  75                 	db	117	;'u'
   329  007EBD  6E                 	db	110	;'n'
   330  007EBE  6B                 	db	107	;'k'
   331  007EBF  6E                 	db	110	;'n'
   332  007EC0  6F                 	db	111	;'o'
   333  007EC1  77                 	db	119	;'w'
   334  007EC2  6E                 	db	110	;'n'
   335  007EC3  20                 	db	32
   336  007EC4  63                 	db	99	;'c'
   337  007EC5  6F                 	db	111	;'o'
   338  007EC6  6D                 	db	109	;'m'
   339  007EC7  6D                 	db	109	;'m'
   340  007EC8  61                 	db	97	;'a'
   341  007EC9  6E                 	db	110	;'n'
   342  007ECA  64                 	db	100	;'d'
   343  007ECB  0A                 	db	10
   344  007ECC  00                 	db	0
   345  007ECD                     STR_1:
   346                           
   347                           ; BSR set to: 0
   348  007ECD  72                 	db	114	;'r'
   349  007ECE  6F                 	db	111	;'o'
   350  007ECF  6F                 	db	111	;'o'
   351  007ED0  74                 	db	116	;'t'
   352  007ED1  40                 	db	64	;'@'
   353  007ED2  70                 	db	112	;'p'
   354  007ED3  69                 	db	105	;'i'
   355  007ED4  63                 	db	99	;'c'
   356  007ED5  3A                 	db	58	;':'
   357  007ED6  7E                 	db	126
   358  007ED7  23                 	db	35
   359  007ED8  20                 	db	32
   360  007ED9  00                 	db	0
   361  007EDA                     
   362                           ; BSR set to: 0
   363  007EDA  74                 	db	116	;'t'
   364  007EDB  65                 	db	101	;'e'
   365  007EDC  6D                 	db	109	;'m'
   366  007EDD  70                 	db	112	;'p'
   367  007EDE  65                 	db	101	;'e'
   368  007EDF  72                 	db	114	;'r'
   369  007EE0  61                 	db	97	;'a'
   370  007EE1  74                 	db	116	;'t'
   371  007EE2  75                 	db	117	;'u'
   372  007EE3  72                 	db	114	;'r'
   373  007EE4  65                 	db	101	;'e'
   374  007EE5  00                 	db	0
   375  007EE6                     STR_42:
   376                           
   377                           ; BSR set to: 0
   378  007EE6  57                 	db	87	;'W'
   379  007EE7  65                 	db	101	;'e'
   380  007EE8  64                 	db	100	;'d'
   381  007EE9  6E                 	db	110	;'n'
   382  007EEA  65                 	db	101	;'e'
   383  007EEB  73                 	db	115	;'s'
   384  007EEC  64                 	db	100	;'d'
   385  007EED  61                 	db	97	;'a'
   386  007EEE  79                 	db	121	;'y'
   387  007EEF  00                 	db	0
   388  007EF0                     
   389                           ; BSR set to: 0
   390  007EF0  69                 	db	105	;'i'
   391  007EF1  32                 	db	50	;'2'
   392  007EF2  63                 	db	99	;'c'
   393  007EF3  64                 	db	100	;'d'
   394  007EF4  65                 	db	101	;'e'
   395  007EF5  74                 	db	116	;'t'
   396  007EF6  65                 	db	101	;'e'
   397  007EF7  63                 	db	99	;'c'
   398  007EF8  74                 	db	116	;'t'
   399  007EF9  00                 	db	0
   400  007EFA                     STR_45:
   401                           
   402                           ; BSR set to: 0
   403  007EFA  53                 	db	83	;'S'
   404  007EFB  61                 	db	97	;'a'
   405  007EFC  74                 	db	116	;'t'
   406  007EFD  75                 	db	117	;'u'
   407  007EFE  72                 	db	114	;'r'
   408  007EFF  64                 	db	100	;'d'
   409  007F00  61                 	db	97	;'a'
   410  007F01  79                 	db	121	;'y'
   411  007F02  00                 	db	0
   412  007F03                     STR_43:
   413                           
   414                           ; BSR set to: 0
   415  007F03  54                 	db	84	;'T'
   416  007F04  68                 	db	104	;'h'
   417  007F05  75                 	db	117	;'u'
   418  007F06  72                 	db	114	;'r'
   419  007F07  73                 	db	115	;'s'
   420  007F08  64                 	db	100	;'d'
   421  007F09  61                 	db	97	;'a'
   422  007F0A  79                 	db	121	;'y'
   423  007F0B  00                 	db	0
   424  007F0C                     STR_41:
   425                           
   426                           ; BSR set to: 0
   427  007F0C  54                 	db	84	;'T'
   428  007F0D  75                 	db	117	;'u'
   429  007F0E  65                 	db	101	;'e'
   430  007F0F  73                 	db	115	;'s'
   431  007F10  64                 	db	100	;'d'
   432  007F11  61                 	db	97	;'a'
   433  007F12  79                 	db	121	;'y'
   434  007F13  00                 	db	0
   435  007F14                     STR_23:
   436                           
   437                           ; BSR set to: 0
   438  007F14  63                 	db	99	;'c'
   439  007F15  6F                 	db	111	;'o'
   440  007F16  75                 	db	117	;'u'
   441  007F17  63                 	db	99	;'c'
   442  007F18  6F                 	db	111	;'o'
   443  007F19  75                 	db	117	;'u'
   444  007F1A  20                 	db	32
   445  007F1B  00                 	db	0
   446  007F1C                     
   447                           ; BSR set to: 0
   448  007F1C  69                 	db	105	;'i'
   449  007F1D  32                 	db	50	;'2'
   450  007F1E  63                 	db	99	;'c'
   451  007F1F  64                 	db	100	;'d'
   452  007F20  75                 	db	117	;'u'
   453  007F21  6D                 	db	109	;'m'
   454  007F22  70                 	db	112	;'p'
   455  007F23  00                 	db	0
   456  007F24                     STR_44:
   457                           
   458                           ; BSR set to: 0
   459  007F24  46                 	db	70	;'F'
   460  007F25  72                 	db	114	;'r'
   461  007F26  69                 	db	105	;'i'
   462  007F27  64                 	db	100	;'d'
   463  007F28  61                 	db	97	;'a'
   464  007F29  79                 	db	121	;'y'
   465  007F2A  00                 	db	0
   466  007F2B                     STR_40:
   467                           
   468                           ; BSR set to: 0
   469  007F2B  4D                 	db	77	;'M'
   470  007F2C  6F                 	db	111	;'o'
   471  007F2D  6E                 	db	110	;'n'
   472  007F2E  64                 	db	100	;'d'
   473  007F2F  61                 	db	97	;'a'
   474  007F30  79                 	db	121	;'y'
   475  007F31  00                 	db	0
   476  007F32                     STR_46:
   477                           
   478                           ; BSR set to: 0
   479  007F32  53                 	db	83	;'S'
   480  007F33  75                 	db	117	;'u'
   481  007F34  6E                 	db	110	;'n'
   482  007F35  64                 	db	100	;'d'
   483  007F36  61                 	db	97	;'a'
   484  007F37  79                 	db	121	;'y'
   485  007F38  00                 	db	0
   486  007F39                     
   487                           ; BSR set to: 0
   488  007F39  69                 	db	105	;'i'
   489  007F3A  32                 	db	50	;'2'
   490  007F3B  63                 	db	99	;'c'
   491  007F3C  67                 	db	103	;'g'
   492  007F3D  65                 	db	101	;'e'
   493  007F3E  74                 	db	116	;'t'
   494  007F3F  00                 	db	0
   495  007F40                     
   496                           ; BSR set to: 0
   497  007F40  69                 	db	105	;'i'
   498  007F41  32                 	db	50	;'2'
   499  007F42  63                 	db	99	;'c'
   500  007F43  73                 	db	115	;'s'
   501  007F44  65                 	db	101	;'e'
   502  007F45  74                 	db	116	;'t'
   503  007F46  00                 	db	0
   504  007F47                     
   505                           ; BSR set to: 0
   506  007F47  72                 	db	114	;'r'
   507  007F48  65                 	db	101	;'e'
   508  007F49  62                 	db	98	;'b'
   509  007F4A  6F                 	db	111	;'o'
   510  007F4B  6F                 	db	111	;'o'
   511  007F4C  74                 	db	116	;'t'
   512  007F4D  00                 	db	0
   513  007F4E                     
   514                           ; BSR set to: 0
   515  007F4E  30                 	db	48	;'0'
   516  007F4F  30                 	db	48	;'0'
   517  007F50  30                 	db	48	;'0'
   518  007F51  30                 	db	48	;'0'
   519  007F52  00                 	db	0
   520  007F53                     
   521                           ; BSR set to: 0
   522  007F53  31                 	db	49	;'1'
   523  007F54  30                 	db	48	;'0'
   524  007F55  30                 	db	48	;'0'
   525  007F56  30                 	db	48	;'0'
   526  007F57  00                 	db	0
   527  007F58                     
   528                           ; BSR set to: 0
   529  007F58  30                 	db	48	;'0'
   530  007F59  31                 	db	49	;'1'
   531  007F5A  30                 	db	48	;'0'
   532  007F5B  30                 	db	48	;'0'
   533  007F5C  00                 	db	0
   534  007F5D                     
   535                           ; BSR set to: 0
   536  007F5D  31                 	db	49	;'1'
   537  007F5E  31                 	db	49	;'1'
   538  007F5F  30                 	db	48	;'0'
   539  007F60  30                 	db	48	;'0'
   540  007F61  00                 	db	0
   541  007F62                     
   542                           ; BSR set to: 0
   543  007F62  30                 	db	48	;'0'
   544  007F63  30                 	db	48	;'0'
   545  007F64  31                 	db	49	;'1'
   546  007F65  30                 	db	48	;'0'
   547  007F66  00                 	db	0
   548  007F67                     
   549                           ; BSR set to: 0
   550  007F67  31                 	db	49	;'1'
   551  007F68  30                 	db	48	;'0'
   552  007F69  31                 	db	49	;'1'
   553  007F6A  30                 	db	48	;'0'
   554  007F6B  00                 	db	0
   555  007F6C                     
   556                           ; BSR set to: 0
   557  007F6C  30                 	db	48	;'0'
   558  007F6D  31                 	db	49	;'1'
   559  007F6E  31                 	db	49	;'1'
   560  007F6F  30                 	db	48	;'0'
   561  007F70  00                 	db	0
   562  007F71                     
   563                           ; BSR set to: 0
   564  007F71  31                 	db	49	;'1'
   565  007F72  31                 	db	49	;'1'
   566  007F73  31                 	db	49	;'1'
   567  007F74  30                 	db	48	;'0'
   568  007F75  00                 	db	0
   569  007F76                     
   570                           ; BSR set to: 0
   571  007F76  30                 	db	48	;'0'
   572  007F77  30                 	db	48	;'0'
   573  007F78  30                 	db	48	;'0'
   574  007F79  31                 	db	49	;'1'
   575  007F7A  00                 	db	0
   576  007F7B                     
   577                           ; BSR set to: 0
   578  007F7B  31                 	db	49	;'1'
   579  007F7C  30                 	db	48	;'0'
   580  007F7D  30                 	db	48	;'0'
   581  007F7E  31                 	db	49	;'1'
   582  007F7F  00                 	db	0
   583  007F80                     
   584                           ; BSR set to: 0
   585  007F80  30                 	db	48	;'0'
   586  007F81  31                 	db	49	;'1'
   587  007F82  30                 	db	48	;'0'
   588  007F83  31                 	db	49	;'1'
   589  007F84  00                 	db	0
   590  007F85                     
   591                           ; BSR set to: 0
   592  007F85  31                 	db	49	;'1'
   593  007F86  31                 	db	49	;'1'
   594  007F87  30                 	db	48	;'0'
   595  007F88  31                 	db	49	;'1'
   596  007F89  00                 	db	0
   597  007F8A                     
   598                           ; BSR set to: 0
   599  007F8A  30                 	db	48	;'0'
   600  007F8B  30                 	db	48	;'0'
   601  007F8C  31                 	db	49	;'1'
   602  007F8D  31                 	db	49	;'1'
   603  007F8E  00                 	db	0
   604  007F8F                     
   605                           ; BSR set to: 0
   606  007F8F  31                 	db	49	;'1'
   607  007F90  30                 	db	48	;'0'
   608  007F91  31                 	db	49	;'1'
   609  007F92  31                 	db	49	;'1'
   610  007F93  00                 	db	0
   611  007F94                     
   612                           ; BSR set to: 0
   613  007F94  30                 	db	48	;'0'
   614  007F95  31                 	db	49	;'1'
   615  007F96  31                 	db	49	;'1'
   616  007F97  31                 	db	49	;'1'
   617  007F98  00                 	db	0
   618  007F99                     
   619                           ; BSR set to: 0
   620  007F99  31                 	db	49	;'1'
   621  007F9A  31                 	db	49	;'1'
   622  007F9B  31                 	db	49	;'1'
   623  007F9C  31                 	db	49	;'1'
   624  007F9D  00                 	db	0
   625  007F9E                     
   626                           ; BSR set to: 0
   627  007F9E  64                 	db	100	;'d'
   628  007F9F  61                 	db	97	;'a'
   629  007FA0  74                 	db	116	;'t'
   630  007FA1  65                 	db	101	;'e'
   631  007FA2  00                 	db	0
   632  007FA3                     STR_55:
   633                           
   634                           ; BSR set to: 0
   635  007FA3  46                 	db	70	;'F'
   636  007FA4  65                 	db	101	;'e'
   637  007FA5  62                 	db	98	;'b'
   638  007FA6  00                 	db	0
   639  007FA7                     STR_65:
   640                           
   641                           ; BSR set to: 0
   642  007FA7  44                 	db	68	;'D'
   643  007FA8  65                 	db	101	;'e'
   644  007FA9  63                 	db	99	;'c'
   645  007FAA  00                 	db	0
   646  007FAB                     STR_49:
   647                           
   648                           ; BSR set to: 0
   649  007FAB  57                 	db	87	;'W'
   650  007FAC  65                 	db	101	;'e'
   651  007FAD  64                 	db	100	;'d'
   652  007FAE  00                 	db	0
   653  007FAF                     STR_48:
   654                           
   655                           ; BSR set to: 0
   656  007FAF  54                 	db	84	;'T'
   657  007FB0  75                 	db	117	;'u'
   658  007FB1  65                 	db	101	;'e'
   659  007FB2  00                 	db	0
   660  007FB3                     STR_61:
   661                           
   662                           ; BSR set to: 0
   663  007FB3  41                 	db	65	;'A'
   664  007FB4  75                 	db	117	;'u'
   665  007FB5  67                 	db	103	;'g'
   666  007FB6  00                 	db	0
   667  007FB7                     STR_51:
   668                           
   669                           ; BSR set to: 0
   670  007FB7  46                 	db	70	;'F'
   671  007FB8  72                 	db	114	;'r'
   672  007FB9  69                 	db	105	;'i'
   673  007FBA  00                 	db	0
   674  007FBB                     STR_60:
   675                           
   676                           ; BSR set to: 0
   677  007FBB  4A                 	db	74	;'J'
   678  007FBC  75                 	db	117	;'u'
   679  007FBD  6C                 	db	108	;'l'
   680  007FBE  00                 	db	0
   681  007FBF                     STR_54:
   682                           
   683                           ; BSR set to: 0
   684  007FBF  4A                 	db	74	;'J'
   685  007FC0  61                 	db	97	;'a'
   686  007FC1  6E                 	db	110	;'n'
   687  007FC2  00                 	db	0
   688  007FC3                     STR_47:
   689                           
   690                           ; BSR set to: 0
   691  007FC3  4D                 	db	77	;'M'
   692  007FC4  6F                 	db	111	;'o'
   693  007FC5  6E                 	db	110	;'n'
   694  007FC6  00                 	db	0
   695  007FC7                     STR_59:
   696                           
   697                           ; BSR set to: 0
   698  007FC7  4A                 	db	74	;'J'
   699  007FC8  75                 	db	117	;'u'
   700  007FC9  6E                 	db	110	;'n'
   701  007FCA  00                 	db	0
   702  007FCB                     STR_53:
   703                           
   704                           ; BSR set to: 0
   705  007FCB  53                 	db	83	;'S'
   706  007FCC  75                 	db	117	;'u'
   707  007FCD  6E                 	db	110	;'n'
   708  007FCE  00                 	db	0
   709  007FCF                     STR_62:
   710                           
   711                           ; BSR set to: 0
   712  007FCF  53                 	db	83	;'S'
   713  007FD0  65                 	db	101	;'e'
   714  007FD1  70                 	db	112	;'p'
   715  007FD2  00                 	db	0
   716  007FD3                     STR_56:
   717                           
   718                           ; BSR set to: 0
   719  007FD3  4D                 	db	77	;'M'
   720  007FD4  61                 	db	97	;'a'
   721  007FD5  72                 	db	114	;'r'
   722  007FD6  00                 	db	0
   723  007FD7                     STR_57:
   724                           
   725                           ; BSR set to: 0
   726  007FD7  41                 	db	65	;'A'
   727  007FD8  70                 	db	112	;'p'
   728  007FD9  72                 	db	114	;'r'
   729  007FDA  00                 	db	0
   730  007FDB                     STR_52:
   731                           
   732                           ; BSR set to: 0
   733  007FDB  53                 	db	83	;'S'
   734  007FDC  61                 	db	97	;'a'
   735  007FDD  74                 	db	116	;'t'
   736  007FDE  00                 	db	0
   737  007FDF                     STR_63:
   738                           
   739                           ; BSR set to: 0
   740  007FDF  4F                 	db	79	;'O'
   741  007FE0  63                 	db	99	;'c'
   742  007FE1  74                 	db	116	;'t'
   743  007FE2  00                 	db	0
   744  007FE3                     STR_50:
   745                           
   746                           ; BSR set to: 0
   747  007FE3  54                 	db	84	;'T'
   748  007FE4  68                 	db	104	;'h'
   749  007FE5  75                 	db	117	;'u'
   750  007FE6  00                 	db	0
   751  007FE7                     STR_64:
   752                           
   753                           ; BSR set to: 0
   754  007FE7  4E                 	db	78	;'N'
   755  007FE8  6F                 	db	111	;'o'
   756  007FE9  76                 	db	118	;'v'
   757  007FEA  00                 	db	0
   758  007FEB                     STR_58:
   759                           
   760                           ; BSR set to: 0
   761  007FEB  4D                 	db	77	;'M'
   762  007FEC  61                 	db	97	;'a'
   763  007FED  79                 	db	121	;'y'
   764  007FEE  00                 	db	0
   765  007FEF                     
   766                           ; BSR set to: 0
   767  007FEF  2D                 	db	45
   768  007FF0  2D                 	db	45
   769  007FF1  20                 	db	32
   770  007FF2  00                 	db	0
   771  007FF3                     STR_22:
   772                           
   773                           ; BSR set to: 0
   774  007FF3  30                 	db	48	;'0'
   775  007FF4  3A                 	db	58	;':'
   776  007FF5  20                 	db	32
   777  007FF6  00                 	db	0
   778  007FF7                     
   779                           ; BSR set to: 0
   780  007FF7  0A                 	db	10
   781  007FF8  0A                 	db	10
   782  007FF9  00                 	db	0
   783  007FFA                     STR_68:
   784                           
   785                           ; BSR set to: 0
   786  007FFA  2F                 	db	47
   787  007FFB  00                 	db	0
   788  007FFC                     STR_71:
   789                           
   790                           ; BSR set to: 0
   791  007FFC  3A                 	db	58	;':'
   792  007FFD  00                 	db	0
   793  0000                     
   794                           ; #config settings
   795  007FFE  00                 	db	0	; dummy byte at the end
   796  0000                     
   797                           	psect	cinit
   798  0024A0                     __pcinit:
   799                           	opt callstack 0
   800  0024A0                     start_initialization:
   801                           	opt callstack 0
   802  0024A0                     __initialization:
   803                           	opt callstack 0
   804                           
   805                           ; Initialize objects allocated to BANK0 (63 bytes)
   806                           ; load TBLPTR registers with __pidataBANK0
   807  0024A0  0E66               	movlw	low __pidataBANK0
   808  0024A2  6EF6               	movwf	tblptrl,c
   809  0024A4  0E27               	movlw	high __pidataBANK0
   810  0024A6  6EF7               	movwf	tblptrh,c
   811  0024A8  0E00               	movlw	low (__pidataBANK0 shr (0+16))
   812  0024AA  6EF8               	movwf	tblptru,c
   813  0024AC  EE00  F080         	lfsr	0,__pdataBANK0
   814  0024B0  EE10 F03F          	lfsr	1,63
   815  0024B4                     copy_data0:
   816  0024B4  0009               	tblrd		*+
   817  0024B6  CFF5 FFEE          	movff	tablat,postinc0
   818  0024BA  50E5               	movf	postdec1,w,c
   819  0024BC  50E1               	movf	fsr1l,w,c
   820  0024BE  E1FA               	bnz	copy_data0
   821                           
   822                           ; Clear objects allocated to BANK1 (256 bytes)
   823  0024C0  EE01  F000         	lfsr	0,__pbssBANK1
   824  0024C4  EE11 F000          	lfsr	1,256
   825  0024C8                     clear_0:
   826  0024C8  6AEE               	clrf	postinc0,c
   827  0024CA  50E5               	movf	postdec1,w,c
   828  0024CC  50E1               	movf	fsr1l,w,c
   829  0024CE  E1FC               	bnz	clear_0
   830  0024D0  50E2               	movf	fsr1h,w,c
   831  0024D2  E1FA               	bnz	clear_0
   832                           
   833                           ; Clear objects allocated to BANK0 (19 bytes)
   834  0024D4  EE00  F0D6         	lfsr	0,__pbssBANK0
   835  0024D8  0E13               	movlw	19
   836  0024DA                     clear_1:
   837  0024DA  6AEE               	clrf	postinc0,c
   838  0024DC  06E8               	decf	wreg,f,c
   839  0024DE  E1FD               	bnz	clear_1
   840                           
   841                           ; Clear objects allocated to COMRAM (5 bytes)
   842  0024E0  6A67               	clrf	(__pbssCOMRAM+4)& (0+255),c
   843  0024E2  6A66               	clrf	(__pbssCOMRAM+3)& (0+255),c
   844  0024E4  6A65               	clrf	(__pbssCOMRAM+2)& (0+255),c
   845  0024E6  6A64               	clrf	(__pbssCOMRAM+1)& (0+255),c
   846  0024E8  6A63               	clrf	__pbssCOMRAM& (0+255),c
   847  0024EA                     end_of_initialization:
   848                           	opt callstack 0
   849  0024EA                     __end_of__initialization:
   850                           	opt callstack 0
   851  0024EA  9068               	bcf	int$flags,0,c	;clear compiler interrupt flag (level 1)
   852  0024EC  9268               	bcf	int$flags,1,c	;clear compiler interrupt flag (level 2)
   853  0024EE  0E00               	movlw	low (__Lmediumconst shr (0+16))
   854  0024F0  6EF8               	movwf	tblptru,c
   855  0024F2  0100               	movlb	0
   856  0024F4  EFA2  F008         	goto	_main	;jump to C main() function
   857                           
   858                           	psect	bssCOMRAM
   859  000063                     __pbssCOMRAM:
   860                           	opt callstack 0
   861  000063                     command_line_interpreter@index_buf:
   862                           	opt callstack 0
   863  000063                     	ds	2
   864  000065                     _addr_ptr:
   865                           	opt callstack 0
   866  000065                     	ds	1
   867  000066                     _data_flag:
   868                           	opt callstack 0
   869  000066                     	ds	1
   870  000067                     _addr_flag:
   871                           	opt callstack 0
   872  000067                     	ds	1
   873                           
   874                           	psect	bssBANK0
   875  0000D6                     __pbssBANK0:
   876                           	opt callstack 0
   877  0000D6                     main@F2765:
   878                           	opt callstack 0
   879  0000D6                     	ds	7
   880  0000DD                     timer2_irq@CntTmrIncSec:
   881                           	opt callstack 0
   882  0000DD                     	ds	4
   883  0000E1                     timer2_irq@CntTmrLedSec:
   884                           	opt callstack 0
   885  0000E1                     	ds	4
   886  0000E5                     main@F2767:
   887                           	opt callstack 0
   888  0000E5                     	ds	2
   889  0000E7                     _time_has_changed_user:
   890                           	opt callstack 0
   891  0000E7                     	ds	1
   892  0000E8                     _time_has_changed_timer:
   893                           	opt callstack 0
   894  0000E8                     	ds	1
   895                           
   896                           	psect	dataBANK0
   897  000080                     __pdataBANK0:
   898                           	opt callstack 0
   899  000080                     lcd_write_date@F2591:
   900                           	opt callstack 0
   901  000080                     	ds	24
   902  000098                     lcd_write_date@F2589:
   903                           	opt callstack 0
   904  000098                     	ds	14
   905  0000A6                     uart_write_date@F2553:
   906                           	opt callstack 0
   907  0000A6                     	ds	14
   908  0000B4                     main@F2771:
   909                           	opt callstack 0
   910  0000B4                     	ds	11
   911                           
   912                           	psect	bssBANK1
   913  000100                     __pbssBANK1:
   914                           	opt callstack 0
   915  000100                     command_line_interpreter@uart_buff:
   916                           	opt callstack 0
   917  000100                     	ds	256
   918                           
   919                           	psect	cstackBANK0
   920  0000BF                     __pcstackBANK0:
   921                           	opt callstack 0
   922  0000BF                     main@segments:
   923                           	opt callstack 0
   924                           
   925                           ; 11 bytes @ 0x0
   926  0000BF                     	ds	11
   927  0000CA                     main@cnt:
   928                           	opt callstack 0
   929                           
   930                           ; 1 bytes @ 0xB
   931  0000CA                     	ds	1
   932  0000CB                     main@tmp75_temp:
   933                           	opt callstack 0
   934                           
   935                           ; 2 bytes @ 0xC
   936  0000CB                     	ds	2
   937  0000CD                     main@lcd_config:
   938                           	opt callstack 0
   939                           
   940                           ; 2 bytes @ 0xE
   941  0000CD                     	ds	2
   942  0000CF                     main@t:
   943                           	opt callstack 0
   944                           
   945                           ; 7 bytes @ 0x10
   946  0000CF                     	ds	7
   947                           
   948                           	psect	cstackCOMRAM
   949  000001                     __pcstackCOMRAM:
   950                           	opt callstack 0
   951  000001                     ??_timer2_irq:
   952  000001                     
   953                           ; 1 bytes @ 0x0
   954  000001                     	ds	1
   955  000002                     ?___lldiv:
   956                           	opt callstack 0
   957  000002                     ?___xxtofl:
   958                           	opt callstack 0
   959  000002                     i2c_send_ack@Ack:
   960                           	opt callstack 0
   961  000002                     i2c_wait_ack@i:
   962                           	opt callstack 0
   963  000002                     timer_init@prescaler:
   964                           	opt callstack 0
   965  000002                     dec_2_bcd@dec:
   966                           	opt callstack 0
   967  000002                     datetime_increase_days@t:
   968                           	opt callstack 0
   969  000002                     delay_us@loop:
   970                           	opt callstack 0
   971  000002                     delay_ms@loop:
   972                           	opt callstack 0
   973  000002                     pwm_init@freq:
   974                           	opt callstack 0
   975  000002                     uart_write_string@data:
   976                           	opt callstack 0
   977  000002                     ___lldiv@dividend:
   978                           	opt callstack 0
   979  000002                     ___xxtofl@val:
   980                           	opt callstack 0
   981                           
   982                           ; 4 bytes @ 0x1
   983  000002                     	ds	1
   984  000003                     i2c_write@data:
   985                           	opt callstack 0
   986  000003                     timer_init@postscaler:
   987                           	opt callstack 0
   988                           
   989                           ; 1 bytes @ 0x2
   990  000003                     	ds	1
   991  000004                     i2c_read@ack:
   992                           	opt callstack 0
   993  000004                     i2c_write@bus_id:
   994                           	opt callstack 0
   995  000004                     timer_init@timer:
   996                           	opt callstack 0
   997  000004                     dec_2_bcd@bcd:
   998                           	opt callstack 0
   999  000004                     delay_us@i:
  1000                           	opt callstack 0
  1001  000004                     delay_ms@i:
  1002                           	opt callstack 0
  1003  000004                     pwm_init@duty:
  1004                           	opt callstack 0
  1005                           
  1006                           ; 2 bytes @ 0x3
  1007  000004                     	ds	1
  1008  000005                     ??_timer_init:
  1009  000005                     i2c_write@result:
  1010                           	opt callstack 0
  1011  000005                     datetime_increase_hours@t:
  1012                           	opt callstack 0
  1013  000005                     i2c_read@data:
  1014                           	opt callstack 0
  1015                           
  1016                           ; 2 bytes @ 0x4
  1017  000005                     	ds	1
  1018  000006                     ??___xxtofl:
  1019  000006                     i2c_write_reg@adr_chip:
  1020                           	opt callstack 0
  1021  000006                     pcf8574_write_port@adr_chip:
  1022                           	opt callstack 0
  1023  000006                     pwm_init@pwm_id:
  1024                           	opt callstack 0
  1025  000006                     timer_init@id:
  1026                           	opt callstack 0
  1027  000006                     delay_ms@k:
  1028                           	opt callstack 0
  1029  000006                     ___lldiv@divisor:
  1030                           	opt callstack 0
  1031                           
  1032                           ; 4 bytes @ 0x5
  1033  000006                     	ds	1
  1034  000007                     i2c_write_reg@adr_reg:
  1035                           	opt callstack 0
  1036  000007                     pcf8574_write_port@data:
  1037                           	opt callstack 0
  1038                           
  1039                           ; 1 bytes @ 0x6
  1040  000007                     	ds	1
  1041  000008                     i2c_read@bus_id:
  1042                           	opt callstack 0
  1043  000008                     i2c_write_reg@data:
  1044                           	opt callstack 0
  1045  000008                     pcf8574_write_port@i2c_bus_id:
  1046                           	opt callstack 0
  1047  000008                     datetime_increase_minutes@t:
  1048                           	opt callstack 0
  1049  000008                     lcd_2x16_write_4b@data:
  1050                           	opt callstack 0
  1051  000008                     lcd_2x16_write@data:
  1052                           	opt callstack 0
  1053                           
  1054                           ; 2 bytes @ 0x7
  1055  000008                     	ds	1
  1056  000009                     i2c_write_reg@bus_id:
  1057                           	opt callstack 0
  1058  000009                     tmp75_read_temp@dev_addr:
  1059                           	opt callstack 0
  1060                           
  1061                           ; 1 bytes @ 0x8
  1062  000009                     	ds	1
  1063  00000A                     tmp75_configure@dev_addr:
  1064                           	opt callstack 0
  1065  00000A                     lcd_2x16_write_4b@rs:
  1066                           	opt callstack 0
  1067  00000A                     lcd_2x16_write@rs:
  1068                           	opt callstack 0
  1069  00000A                     ___xxtofl@sign:
  1070                           	opt callstack 0
  1071  00000A                     tmp75_read_temp@temp:
  1072                           	opt callstack 0
  1073  00000A                     ___lldiv@quotient:
  1074                           	opt callstack 0
  1075                           
  1076                           ; 4 bytes @ 0x9
  1077  00000A                     	ds	1
  1078  00000B                     ??_lcd_2x16_write_4b:
  1079  00000B                     ??_lcd_2x16_write:
  1080  00000B                     tmp75_configure@bus_id:
  1081                           	opt callstack 0
  1082  00000B                     ___xxtofl@exp:
  1083                           	opt callstack 0
  1084  00000B                     datetime_increase_seconds@t:
  1085                           	opt callstack 0
  1086                           
  1087                           ; 2 bytes @ 0xA
  1088  00000B                     	ds	1
  1089  00000C                     ??_tmp75_read_temp:
  1090  00000C                     ___xxtofl@arg:
  1091                           	opt callstack 0
  1092                           
  1093                           ; 4 bytes @ 0xB
  1094  00000C                     	ds	1
  1095  00000D                     
  1096                           ; 1 bytes @ 0xC
  1097  00000D                     	ds	1
  1098  00000E                     lcd_2x16_position@pos:
  1099                           	opt callstack 0
  1100  00000E                     ___lldiv@counter:
  1101                           	opt callstack 0
  1102  00000E                     lcd_2x16_init@config:
  1103                           	opt callstack 0
  1104  00000E                     lcd_2x16_write_string@string:
  1105                           	opt callstack 0
  1106  00000E                     lcd_2x16_write_2bcd@data:
  1107                           	opt callstack 0
  1108                           
  1109                           ; 2 bytes @ 0xD
  1110  00000E                     	ds	1
  1111  00000F                     ??_lcd_2x16_position:
  1112  00000F                     tmp75_read_temp@tmp:
  1113                           	opt callstack 0
  1114  00000F                     i2c_init@freq:
  1115                           	opt callstack 0
  1116                           
  1117                           ; 4 bytes @ 0xE
  1118  00000F                     	ds	1
  1119  000010                     ??_lcd_2x16_init:
  1120  000010                     ?___flmul:
  1121                           	opt callstack 0
  1122  000010                     ___flmul@b:
  1123                           	opt callstack 0
  1124  000010                     lcd_2x16_write_2bcd@bcd:
  1125                           	opt callstack 0
  1126                           
  1127                           ; 5 bytes @ 0xF
  1128  000010                     	ds	1
  1129  000011                     tmp75_read_temp@i2cbyte1:
  1130                           	opt callstack 0
  1131  000011                     lcd_2x16_position@ligne:
  1132                           	opt callstack 0
  1133                           
  1134                           ; 1 bytes @ 0x10
  1135  000011                     	ds	1
  1136  000012                     tmp75_read_temp@i2cbyte2:
  1137                           	opt callstack 0
  1138                           
  1139                           ; 1 bytes @ 0x11
  1140  000012                     	ds	1
  1141  000013                     tmp75_read_temp@bus_id:
  1142                           	opt callstack 0
  1143  000013                     i2c_init@opt:
  1144                           	opt callstack 0
  1145                           
  1146                           ; 2 bytes @ 0x12
  1147  000013                     	ds	1
  1148  000014                     ___flmul@a:
  1149                           	opt callstack 0
  1150                           
  1151                           ; 4 bytes @ 0x13
  1152  000014                     	ds	1
  1153  000015                     lcd_write_temperature@ligne:
  1154                           	opt callstack 0
  1155  000015                     i2c_init@I2C_BRG:
  1156                           	opt callstack 0
  1157  000015                     lcd_write_date@t:
  1158                           	opt callstack 0
  1159  000015                     lcd_write_time@t:
  1160                           	opt callstack 0
  1161                           
  1162                           ; 7 bytes @ 0x14
  1163  000015                     	ds	1
  1164  000016                     lcd_write_temperature@pos:
  1165                           	opt callstack 0
  1166                           
  1167                           ; 1 bytes @ 0x15
  1168  000016                     	ds	1
  1169  000017                     lcd_write_temperature@temp:
  1170                           	opt callstack 0
  1171                           
  1172                           ; 1 bytes @ 0x16
  1173  000017                     	ds	1
  1174  000018                     ??___flmul:
  1175                           
  1176                           ; 1 bytes @ 0x17
  1177  000018                     	ds	1
  1178  000019                     i2c_init@bus_id:
  1179                           	opt callstack 0
  1180                           
  1181                           ; 1 bytes @ 0x18
  1182  000019                     	ds	3
  1183  00001C                     lcd_write_date@ligne:
  1184                           	opt callstack 0
  1185  00001C                     lcd_write_time@ligne:
  1186                           	opt callstack 0
  1187  00001C                     ___flmul@sign:
  1188                           	opt callstack 0
  1189                           
  1190                           ; 1 bytes @ 0x1B
  1191  00001C                     	ds	1
  1192  00001D                     lcd_write_date@pos:
  1193                           	opt callstack 0
  1194  00001D                     lcd_write_time@pos:
  1195                           	opt callstack 0
  1196  00001D                     ___flmul@aexp:
  1197                           	opt callstack 0
  1198                           
  1199                           ; 1 bytes @ 0x1C
  1200  00001D                     	ds	1
  1201  00001E                     lcd_write_date@format:
  1202                           	opt callstack 0
  1203  00001E                     ___flmul@grs:
  1204                           	opt callstack 0
  1205                           
  1206                           ; 4 bytes @ 0x1D
  1207  00001E                     	ds	1
  1208  00001F                     ??_lcd_write_date:
  1209                           
  1210                           ; 1 bytes @ 0x1E
  1211  00001F                     	ds	3
  1212  000022                     ___flmul@bexp:
  1213                           	opt callstack 0
  1214                           
  1215                           ; 1 bytes @ 0x21
  1216  000022                     	ds	1
  1217  000023                     ___flmul@prod:
  1218                           	opt callstack 0
  1219  000023                     lcd_write_date@month:
  1220                           	opt callstack 0
  1221                           
  1222                           ; 24 bytes @ 0x22
  1223  000023                     	ds	4
  1224  000027                     ___flmul@temp:
  1225                           	opt callstack 0
  1226                           
  1227                           ; 2 bytes @ 0x26
  1228  000027                     	ds	2
  1229  000029                     ?___fldiv:
  1230                           	opt callstack 0
  1231  000029                     ___fldiv@b:
  1232                           	opt callstack 0
  1233                           
  1234                           ; 4 bytes @ 0x28
  1235  000029                     	ds	4
  1236  00002D                     ___fldiv@a:
  1237                           	opt callstack 0
  1238                           
  1239                           ; 4 bytes @ 0x2C
  1240  00002D                     	ds	4
  1241  000031                     ??___fldiv:
  1242                           
  1243                           ; 1 bytes @ 0x30
  1244  000031                     	ds	4
  1245  000035                     ___fldiv@rem:
  1246                           	opt callstack 0
  1247                           
  1248                           ; 4 bytes @ 0x34
  1249  000035                     	ds	4
  1250  000039                     ___fldiv@sign:
  1251                           	opt callstack 0
  1252                           
  1253                           ; 1 bytes @ 0x38
  1254  000039                     	ds	1
  1255  00003A                     ___fldiv@new_exp:
  1256                           	opt callstack 0
  1257                           
  1258                           ; 2 bytes @ 0x39
  1259  00003A                     	ds	1
  1260  00003B                     lcd_write_date@day_of_week:
  1261                           	opt callstack 0
  1262                           
  1263                           ; 14 bytes @ 0x3A
  1264  00003B                     	ds	1
  1265  00003C                     ___fldiv@grs:
  1266                           	opt callstack 0
  1267                           
  1268                           ; 4 bytes @ 0x3B
  1269  00003C                     	ds	4
  1270  000040                     ___fldiv@bexp:
  1271                           	opt callstack 0
  1272                           
  1273                           ; 1 bytes @ 0x3F
  1274  000040                     	ds	1
  1275  000041                     ___fldiv@aexp:
  1276                           	opt callstack 0
  1277                           
  1278                           ; 1 bytes @ 0x40
  1279  000041                     	ds	1
  1280  000042                     ?___fladd:
  1281                           	opt callstack 0
  1282  000042                     ___fladd@b:
  1283                           	opt callstack 0
  1284                           
  1285                           ; 4 bytes @ 0x41
  1286  000042                     	ds	4
  1287  000046                     ___fladd@a:
  1288                           	opt callstack 0
  1289                           
  1290                           ; 4 bytes @ 0x45
  1291  000046                     	ds	3
  1292  000049                     lcd_write_date@bcd:
  1293                           	opt callstack 0
  1294                           
  1295                           ; 5 bytes @ 0x48
  1296  000049                     	ds	1
  1297  00004A                     ??___fladd:
  1298                           
  1299                           ; 1 bytes @ 0x49
  1300  00004A                     	ds	4
  1301  00004E                     ___fladd@signs:
  1302                           	opt callstack 0
  1303                           
  1304                           ; 1 bytes @ 0x4D
  1305  00004E                     	ds	1
  1306  00004F                     ___fladd@aexp:
  1307                           	opt callstack 0
  1308                           
  1309                           ; 1 bytes @ 0x4E
  1310  00004F                     	ds	1
  1311  000050                     ___fladd@bexp:
  1312                           	opt callstack 0
  1313                           
  1314                           ; 1 bytes @ 0x4F
  1315  000050                     	ds	1
  1316  000051                     ___fladd@grs:
  1317                           	opt callstack 0
  1318                           
  1319                           ; 1 bytes @ 0x50
  1320  000051                     	ds	1
  1321  000052                     ?___fltol:
  1322                           	opt callstack 0
  1323  000052                     ___fltol@f1:
  1324                           	opt callstack 0
  1325                           
  1326                           ; 4 bytes @ 0x51
  1327  000052                     	ds	4
  1328  000056                     ??___fltol:
  1329                           
  1330                           ; 1 bytes @ 0x55
  1331  000056                     	ds	4
  1332  00005A                     ___fltol@sign1:
  1333                           	opt callstack 0
  1334                           
  1335                           ; 1 bytes @ 0x59
  1336  00005A                     	ds	1
  1337  00005B                     ___fltol@exp1:
  1338                           	opt callstack 0
  1339                           
  1340                           ; 1 bytes @ 0x5A
  1341  00005B                     	ds	1
  1342  00005C                     uart_init@baudrate:
  1343                           	opt callstack 0
  1344                           
  1345                           ; 4 bytes @ 0x5B
  1346  00005C                     	ds	4
  1347  000060                     uart_init@opt:
  1348                           	opt callstack 0
  1349                           
  1350                           ; 2 bytes @ 0x5F
  1351  000060                     	ds	2
  1352  000062                     uart_init@uart_id:
  1353                           	opt callstack 0
  1354                           
  1355                           ; 1 bytes @ 0x61
  1356  000062                     	ds	1
  1357  000063                     
  1358                           ; 1 bytes @ 0x62
  1359 ;;
  1360 ;;Main: autosize = 0, tempsize = 0, incstack = 0, save=0
  1361 ;;
  1362 ;; *************** function _main *****************
  1363 ;; Defined at:
  1364 ;;		line 100 in file "main.c"
  1365 ;; Parameters:    Size  Location     Type
  1366 ;;		None
  1367 ;; Auto vars:     Size  Location     Type
  1368 ;;  segments       11    0[BANK0 ] unsigned char [11]
  1369 ;;  t               7   16[BANK0 ] struct .
  1370 ;;  bcd             5    0        unsigned char [5]
  1371 ;;  lcd_config      2   14[BANK0 ] struct .
  1372 ;;  tmp75_temp      2   12[BANK0 ] unsigned short 
  1373 ;;  cnt             1   11[BANK0 ] unsigned char 
  1374 ;; Return value:  Size  Location     Type
  1375 ;;                  1    wreg      void 
  1376 ;; Registers used:
  1377 ;;		wreg, fsr0l, fsr0h, fsr1l, fsr1h, fsr2l, fsr2h, status,2, status,0, tblptrl, tblptrh, tblptru, prodl, prodh, cstack
  1378 ;; Tracked objects:
  1379 ;;		On entry : 0/0
  1380 ;;		On exit  : 0/0
  1381 ;;		Unchanged: 0/0
  1382 ;; Data sizes:     COMRAM   BANK0   BANK1   BANK2   BANK3   BANK4   BANK5
  1383 ;;      Params:         0       0       0       0       0       0       0
  1384 ;;      Locals:         0      23       0       0       0       0       0
  1385 ;;      Temps:          0       0       0       0       0       0       0
  1386 ;;      Totals:         0      23       0       0       0       0       0
  1387 ;;Total ram usage:       23 bytes
  1388 ;; Hardware stack levels required when called:    5
  1389 ;; This function calls:
  1390 ;;		_datetime_increase_minutes
  1391 ;;		_datetime_increase_seconds
  1392 ;;		_delay_ms
  1393 ;;		_i2c_init
  1394 ;;		_lcd_2x16_init
  1395 ;;		_lcd_write_date
  1396 ;;		_lcd_write_temperature
  1397 ;;		_lcd_write_time
  1398 ;;		_pcf8574_write_port
  1399 ;;		_pwm_init
  1400 ;;		_timer_init
  1401 ;;		_tmp75_configure
  1402 ;;		_tmp75_read_temp
  1403 ;;		_uart_init
  1404 ;;		_uart_write_string
  1405 ;; This function is called by:
  1406 ;;		Startup code after reset
  1407 ;; This function uses a non-reentrant model
  1408 ;;
  1409                           
  1410                           	psect	text0
  1411  001144                     __ptext0:
  1412                           	opt callstack 0
  1413  001144                     _main:
  1414                           	opt callstack 26
  1415  001144  FFFF               	dw	65535	; assembler added errata NOP
  1416                           
  1417                           ;main.c: 102:     u8 cnt = 0;
  1418  001146  0E00               	movlw	0
  1419  001148  0100               	movlb	0	; () banked
  1420  00114A  6FCA               	movwf	main@cnt& (0+255),b
  1421  00114C                     
  1422                           ; BSR set to: 0
  1423                           ;main.c: 103:     date_time_t t = {
  1424  00114C  EE20  F0D6         	lfsr	2,main@F2765
  1425  001150  EE10  F0CF         	lfsr	1,main@t
  1426  001154  0E06               	movlw	6
  1427  001156                     u9021:
  1428  001156  CFDB FFE3          	movff	plusw2,plusw1
  1429  00115A  06E8               	decf	wreg,f,c
  1430  00115C  E2FC               	bc	u9021
  1431  00115E                     
  1432                           ; BSR set to: 0
  1433  00115E  0E16               	movlw	22
  1434  001160  6FCF               	movwf	main@t& (0+255),b
  1435  001162  C0CF  F0CF         	movff	main@t,main@t
  1436  001166                     
  1437                           ; BSR set to: 0
  1438  001166  0E11               	movlw	17
  1439  001168  6FD0               	movwf	(main@t+1)& (0+255),b
  1440  00116A  C0D0  F0D0         	movff	main@t+1,main@t+1
  1441  00116E                     
  1442                           ; BSR set to: 0
  1443  00116E  0E00               	movlw	0
  1444  001170  6FD1               	movwf	(main@t+2)& (0+255),b
  1445  001172  C0D1  F0D1         	movff	main@t+2,main@t+2
  1446  001176                     
  1447                           ; BSR set to: 0
  1448  001176  0E06               	movlw	6
  1449  001178  6FD2               	movwf	(main@t+3)& (0+255),b
  1450  00117A  C0D2  F0D2         	movff	main@t+3,main@t+3
  1451  00117E                     
  1452                           ; BSR set to: 0
  1453  00117E  0E13               	movlw	19
  1454  001180  6FD3               	movwf	(main@t+4)& (0+255),b
  1455  001182  C0D3  F0D3         	movff	main@t+4,main@t+4
  1456  001186                     
  1457                           ; BSR set to: 0
  1458  001186  0E04               	movlw	4
  1459  001188  6FD4               	movwf	(main@t+5)& (0+255),b
  1460  00118A  C0D4  F0D4         	movff	main@t+5,main@t+5
  1461  00118E                     
  1462                           ; BSR set to: 0
  1463  00118E  0E14               	movlw	20
  1464  001190  6FD5               	movwf	(main@t+6)& (0+255),b
  1465  001192  C0D5  F0D5         	movff	main@t+6,main@t+6
  1466  001196                     
  1467                           ; BSR set to: 0
  1468                           ;main.c: 112:     lcd_config_t lcd_config = {
  1469  001196  C0E5  F0CD         	movff	main@F2767,main@lcd_config
  1470  00119A  C0E6  F0CE         	movff	main@F2767+1,main@lcd_config+1
  1471  00119E                     
  1472                           ; BSR set to: 0
  1473  00119E  0E08               	movlw	8
  1474  0011A0  6FCD               	movwf	main@lcd_config& (0+255),b
  1475  0011A2  C0CD  F0CD         	movff	main@lcd_config,main@lcd_config
  1476  0011A6                     
  1477                           ; BSR set to: 0
  1478  0011A6  0E00               	movlw	0
  1479  0011A8  6FCE               	movwf	(main@lcd_config+1)& (0+255),b
  1480  0011AA  C0CE  F0CE         	movff	main@lcd_config+1,main@lcd_config+1
  1481                           
  1482                           ;main.c: 117:     u8 bcd[5];;main.c: 118:     u16 tmp75_temp;;main.c: 119:     u8 segmen
      +                          ts[11] = {
  1483  0011AE  EE20  F0B4         	lfsr	2,main@F2771
  1484  0011B2  EE10  F0BF         	lfsr	1,main@segments
  1485  0011B6  0E0A               	movlw	10
  1486  0011B8                     u9031:
  1487  0011B8  CFDB FFE3          	movff	plusw2,plusw1
  1488  0011BC  06E8               	decf	wreg,f,c
  1489  0011BE  E2FC               	bc	u9031
  1490  0011C0                     
  1491                           ; BSR set to: 0
  1492                           ;main.c: 126:     TRISA = (unsigned int)0x0008 | 0x0004;
  1493  0011C0  0E0C               	movlw	12
  1494  0011C2  6E92               	movwf	146,c	;volatile
  1495  0011C4                     
  1496                           ; BSR set to: 0
  1497                           ;main.c: 127:     TRISB = (unsigned int)0;
  1498  0011C4  0E00               	movlw	0
  1499  0011C6  6E93               	movwf	147,c	;volatile
  1500  0011C8                     
  1501                           ; BSR set to: 0
  1502                           ;main.c: 128:     TRISC = (unsigned int)0x0040;
  1503  0011C8  0E40               	movlw	64
  1504  0011CA  6E94               	movwf	148,c	;volatile
  1505  0011CC                     
  1506                           ; BSR set to: 0
  1507                           ;main.c: 131:     ADCON1 = 0x0F;
  1508  0011CC  0E0F               	movlw	15
  1509  0011CE  6EC1               	movwf	193,c	;volatile
  1510  0011D0                     
  1511                           ; BSR set to: 0
  1512                           ;main.c: 134:     LATAbits.LATA0 = 0;
  1513  0011D0  9089               	bcf	137,0,c	;volatile
  1514  0011D2                     
  1515                           ; BSR set to: 0
  1516                           ;main.c: 135:     LATAbits.LATA1 = 0;
  1517  0011D2  9289               	bcf	137,1,c	;volatile
  1518  0011D4                     
  1519                           ; BSR set to: 0
  1520                           ;main.c: 138:     if (uart_init(UART_ID_1, 115200, 0) != SUCCESS){
  1521  0011D4  0E00               	movlw	0
  1522  0011D6  6E5C               	movwf	uart_init@baudrate^0,c
  1523  0011D8  0EC2               	movlw	194
  1524  0011DA  6E5D               	movwf	(uart_init@baudrate+1)^0,c
  1525  0011DC  0E01               	movlw	1
  1526  0011DE  6E5E               	movwf	(uart_init@baudrate+2)^0,c
  1527  0011E0  0E00               	movlw	0
  1528  0011E2  6E5F               	movwf	(uart_init@baudrate+3)^0,c
  1529  0011E4  0E00               	movlw	0
  1530  0011E6  6E61               	movwf	(uart_init@opt+1)^0,c
  1531  0011E8  0E00               	movlw	0
  1532  0011EA  6E60               	movwf	uart_init@opt^0,c
  1533  0011EC  0E00               	movlw	0
  1534  0011EE  ECD6  F00E         	call	_uart_init
  1535  0011F2  0900               	iorlw	0
  1536  0011F4  B4D8               	btfsc	status,2,c
  1537  0011F6  EFFF  F008         	goto	u9041
  1538  0011FA  EF02  F009         	goto	u9040
  1539  0011FE                     u9041:
  1540  0011FE  FFFF               	dw	65535	; assembler added errata NOP
  1541  001200  EF04  F009         	goto	l8268
  1542  001204                     u9040:
  1543  001204  FFFF               	dw	65535	; assembler added errata NOP
  1544  001206                     
  1545                           ;main.c: 139:         LATAbits.LATA0 = 1;
  1546  001206  8089               	bsf	137,0,c	;volatile
  1547  001208                     l8268:
  1548  001208  FFFF               	dw	65535	; assembler added errata NOP
  1549                           
  1550                           ;main.c: 143:     if (i2c_init(I2C_BUS_1, 100000, 0x0001) != SUCCESS){
  1551  00120A  0EA0               	movlw	160
  1552  00120C  6E0F               	movwf	i2c_init@freq^0,c
  1553  00120E  0E86               	movlw	134
  1554  001210  6E10               	movwf	(i2c_init@freq+1)^0,c
  1555  001212  0E01               	movlw	1
  1556  001214  6E11               	movwf	(i2c_init@freq+2)^0,c
  1557  001216  0E00               	movlw	0
  1558  001218  6E12               	movwf	(i2c_init@freq+3)^0,c
  1559  00121A  0E00               	movlw	0
  1560  00121C  6E14               	movwf	(i2c_init@opt+1)^0,c
  1561  00121E  0E01               	movlw	1
  1562  001220  6E13               	movwf	i2c_init@opt^0,c
  1563  001222  0E00               	movlw	0
  1564  001224  ECB8  F011         	call	_i2c_init
  1565  001228  0900               	iorlw	0
  1566  00122A  B4D8               	btfsc	status,2,c
  1567  00122C  EF1A  F009         	goto	u9051
  1568  001230  EF1D  F009         	goto	u9050
  1569  001234                     u9051:
  1570  001234  FFFF               	dw	65535	; assembler added errata NOP
  1571  001236  EF1F  F009         	goto	l8272
  1572  00123A                     u9050:
  1573  00123A  FFFF               	dw	65535	; assembler added errata NOP
  1574  00123C                     
  1575                           ;main.c: 144:         LATAbits.LATA0 = 1;
  1576  00123C  8089               	bsf	137,0,c	;volatile
  1577  00123E                     l8272:
  1578  00123E  FFFF               	dw	65535	; assembler added errata NOP
  1579                           
  1580                           ;main.c: 150:     if (timer_init(TIMER_ID_2, TMR_PRES_256, TMR_POSTSCALER_16, 255) != SU
      +                          CCESS){
  1581  001240  0E03               	movlw	3
  1582  001242  6E02               	movwf	timer_init@prescaler^0,c
  1583  001244  0E0F               	movlw	15
  1584  001246  6E03               	movwf	timer_init@postscaler^0,c
  1585  001248  0EFF               	movlw	255
  1586  00124A  6E04               	movwf	timer_init@timer^0,c
  1587  00124C  0E02               	movlw	2
  1588  00124E  ECF2  F010         	call	_timer_init
  1589  001252  0900               	iorlw	0
  1590  001254  B4D8               	btfsc	status,2,c
  1591  001256  EF2F  F009         	goto	u9061
  1592  00125A  EF32  F009         	goto	u9060
  1593  00125E                     u9061:
  1594  00125E  FFFF               	dw	65535	; assembler added errata NOP
  1595  001260  EF34  F009         	goto	l8276
  1596  001264                     u9060:
  1597  001264  FFFF               	dw	65535	; assembler added errata NOP
  1598  001266                     
  1599                           ;main.c: 151:         LATAbits.LATA0 = 1;
  1600  001266  8089               	bsf	137,0,c	;volatile
  1601  001268                     l8276:
  1602  001268  FFFF               	dw	65535	; assembler added errata NOP
  1603                           
  1604                           ;main.c: 155:     if (pwm_init(PWM_ID_1, 0 , 255 ) != SUCCESS){
  1605  00126A  0E00               	movlw	0
  1606  00126C  6E03               	movwf	(pwm_init@freq+1)^0,c
  1607  00126E  0E00               	movlw	0
  1608  001270  6E02               	movwf	pwm_init@freq^0,c
  1609  001272  0E00               	movlw	0
  1610  001274  6E05               	movwf	(pwm_init@duty+1)^0,c
  1611  001276  6804               	setf	pwm_init@duty^0,c
  1612  001278  0E00               	movlw	0
  1613  00127A  ECD4  F012         	call	_pwm_init
  1614  00127E  0900               	iorlw	0
  1615  001280  B4D8               	btfsc	status,2,c
  1616  001282  EF45  F009         	goto	u9071
  1617  001286  EF48  F009         	goto	u9070
  1618  00128A                     u9071:
  1619  00128A  FFFF               	dw	65535	; assembler added errata NOP
  1620  00128C  EF4A  F009         	goto	l8280
  1621  001290                     u9070:
  1622  001290  FFFF               	dw	65535	; assembler added errata NOP
  1623  001292                     
  1624                           ;main.c: 156:         LATAbits.LATA0 = 1;
  1625  001292  8089               	bsf	137,0,c	;volatile
  1626  001294                     l8280:
  1627  001294  FFFF               	dw	65535	; assembler added errata NOP
  1628                           
  1629                           ;main.c: 160:     if (lcd_2x16_init(lcd_config) != SUCCESS){
  1630  001296  C0CD  F00E         	movff	main@lcd_config,lcd_2x16_init@config
  1631  00129A  C0CE  F00F         	movff	main@lcd_config+1,lcd_2x16_init@config+1
  1632  00129E  EC59  F00E         	call	_lcd_2x16_init	;wreg free
  1633  0012A2  0900               	iorlw	0
  1634  0012A4  B4D8               	btfsc	status,2,c
  1635  0012A6  EF57  F009         	goto	u9081
  1636  0012AA  EF5A  F009         	goto	u9080
  1637  0012AE                     u9081:
  1638  0012AE  FFFF               	dw	65535	; assembler added errata NOP
  1639  0012B0  EF5C  F009         	goto	l8284
  1640  0012B4                     u9080:
  1641  0012B4  FFFF               	dw	65535	; assembler added errata NOP
  1642  0012B6                     
  1643                           ;main.c: 161:         LATAbits.LATA0 = 1;
  1644  0012B6  8089               	bsf	137,0,c	;volatile
  1645  0012B8                     l8284:
  1646  0012B8  FFFF               	dw	65535	; assembler added errata NOP
  1647                           
  1648                           ;main.c: 170:     if (tmp75_configure(I2C_BUS_1, 0x48) != SUCCESS){
  1649  0012BA  0E48               	movlw	72
  1650  0012BC  6E0A               	movwf	tmp75_configure@dev_addr^0,c
  1651  0012BE  0E00               	movlw	0
  1652  0012C0  ECA8  F010         	call	_tmp75_configure
  1653  0012C4  0900               	iorlw	0
  1654  0012C6  B4D8               	btfsc	status,2,c
  1655  0012C8  EF68  F009         	goto	u9091
  1656  0012CC  EF6B  F009         	goto	u9090
  1657  0012D0                     u9091:
  1658  0012D0  FFFF               	dw	65535	; assembler added errata NOP
  1659  0012D2  EF6D  F009         	goto	l8288
  1660  0012D6                     u9090:
  1661  0012D6  FFFF               	dw	65535	; assembler added errata NOP
  1662  0012D8                     
  1663                           ;main.c: 171:         LATAbits.LATA0 = 1;
  1664  0012D8  8089               	bsf	137,0,c	;volatile
  1665  0012DA                     l8288:
  1666  0012DA  FFFF               	dw	65535	; assembler added errata NOP
  1667                           
  1668                           ;main.c: 176:         delay_ms(500);
  1669  0012DC  0E01               	movlw	1
  1670  0012DE  6E03               	movwf	(delay_ms@loop+1)^0,c
  1671  0012E0  0EF4               	movlw	244
  1672  0012E2  6E02               	movwf	delay_ms@loop^0,c
  1673  0012E4  ECF4  F011         	call	_delay_ms	;wreg free
  1674  0012E8                     
  1675                           ;main.c: 177:         uart_write_string(UART_ID_1, "coucou ");
  1676  0012E8  0E14               	movlw	low STR_23
  1677  0012EA  6E02               	movwf	uart_write_string@data^0,c
  1678  0012EC  0E7F               	movlw	high STR_23
  1679  0012EE  6E03               	movwf	(uart_write_string@data+1)^0,c
  1680  0012F0  0E00               	movlw	0
  1681  0012F2  EC3B  F011         	call	_uart_write_string
  1682  0012F6                     
  1683                           ;main.c: 178:         pcf8574_write_port(I2C_BUS_1, 0x38, cnt++);
  1684  0012F6  0E38               	movlw	56
  1685  0012F8  6E06               	movwf	pcf8574_write_port@adr_chip^0,c
  1686  0012FA  C0CA  F007         	movff	main@cnt,pcf8574_write_port@data
  1687  0012FE  0E00               	movlw	0
  1688  001300  EC7A  F011         	call	_pcf8574_write_port
  1689  001304  0100               	movlb	0	; () banked
  1690  001306  2BCA               	incf	main@cnt& (0+255),f,b
  1691  001308                     
  1692                           ; BSR set to: 0
  1693                           ;main.c: 180:         lcd_write_time(t, LCD_LINE_1, 1 );
  1694  001308  EE20  F0CF         	lfsr	2,main@t
  1695  00130C  EE00  F015         	lfsr	0,lcd_write_time@t
  1696  001310  0E06               	movlw	6
  1697  001312                     u9101:
  1698  001312  CFDB FFEB          	movff	plusw2,plusw0
  1699  001316  06E8               	decf	wreg,f,c
  1700  001318  E2FC               	bc	u9101
  1701  00131A  0E01               	movlw	1
  1702  00131C  6E1C               	movwf	lcd_write_time@ligne^0,c
  1703  00131E  0E01               	movlw	1
  1704  001320  6E1D               	movwf	lcd_write_time@pos^0,c
  1705  001322  EC6F  F013         	call	_lcd_write_time	;wreg free
  1706  001326                     
  1707                           ;main.c: 181:         lcd_write_date(t, LCD_LINE_2, 1 , LCD_DATE_LETTERS);
  1708  001326  EE20  F0CF         	lfsr	2,main@t
  1709  00132A  EE00  F015         	lfsr	0,lcd_write_date@t
  1710  00132E  0E06               	movlw	6
  1711  001330                     u9111:
  1712  001330  CFDB FFEB          	movff	plusw2,plusw0
  1713  001334  06E8               	decf	wreg,f,c
  1714  001336  E2FC               	bc	u9111
  1715  001338  0E02               	movlw	2
  1716  00133A  6E1C               	movwf	lcd_write_date@ligne^0,c
  1717  00133C  0E01               	movlw	1
  1718  00133E  6E1D               	movwf	lcd_write_date@pos^0,c
  1719  001340  0E00               	movlw	0
  1720  001342  6E1E               	movwf	lcd_write_date@format^0,c
  1721  001344  ECAE  F00B         	call	_lcd_write_date	;wreg free
  1722  001348                     
  1723                           ;main.c: 183:         tmp75_read_temp(I2C_BUS_1, 0x48, &tmp75_temp);
  1724  001348  0E48               	movlw	72
  1725  00134A  6E09               	movwf	tmp75_read_temp@dev_addr^0,c
  1726  00134C  0ECB               	movlw	low main@tmp75_temp
  1727  00134E  6E0A               	movwf	tmp75_read_temp@temp^0,c
  1728  001350  0E00               	movlw	high main@tmp75_temp
  1729  001352  6E0B               	movwf	(tmp75_read_temp@temp+1)^0,c
  1730  001354  0E00               	movlw	0
  1731  001356  ECF2  F00A         	call	_tmp75_read_temp
  1732  00135A                     
  1733                           ;main.c: 184:         lcd_write_temperature(tmp75_temp >> 8, LCD_LINE_1, 10);
  1734  00135A  0E01               	movlw	1
  1735  00135C  6E15               	movwf	lcd_write_temperature@ligne^0,c
  1736  00135E  0E0A               	movlw	10
  1737  001360  6E16               	movwf	lcd_write_temperature@pos^0,c
  1738  001362  0100               	movlb	0	; () banked
  1739  001364  51CC               	movf	(main@tmp75_temp+1)& (0+255),w,b
  1740  001366  ECD3  F013         	call	_lcd_write_temperature
  1741  00136A                     
  1742                           ;main.c: 186:         if (!PORTAbits.RA2){
  1743  00136A  B480               	btfsc	128,2,c	;volatile
  1744  00136C  EFBA  F009         	goto	u9121
  1745  001370  EFBD  F009         	goto	u9120
  1746  001374                     u9121:
  1747  001374  FFFF               	dw	65535	; assembler added errata NOP
  1748  001376  EFD3  F009         	goto	l8312
  1749  00137A                     u9120:
  1750  00137A  FFFF               	dw	65535	; assembler added errata NOP
  1751  00137C                     
  1752                           ;main.c: 187:             delay_ms(50);
  1753  00137C  0E00               	movlw	0
  1754  00137E  6E03               	movwf	(delay_ms@loop+1)^0,c
  1755  001380  0E32               	movlw	50
  1756  001382  6E02               	movwf	delay_ms@loop^0,c
  1757  001384  ECF4  F011         	call	_delay_ms	;wreg free
  1758  001388                     
  1759                           ;main.c: 188:             if (!PORTAbits.RA2){
  1760  001388  B480               	btfsc	128,2,c	;volatile
  1761  00138A  EFC9  F009         	goto	u9131
  1762  00138E  EFCC  F009         	goto	u9130
  1763  001392                     u9131:
  1764  001392  FFFF               	dw	65535	; assembler added errata NOP
  1765  001394  EFD3  F009         	goto	l8312
  1766  001398                     u9130:
  1767  001398  FFFF               	dw	65535	; assembler added errata NOP
  1768  00139A                     
  1769                           ;main.c: 189:                 datetime_increase_seconds(&t);
  1770  00139A  0ECF               	movlw	low main@t
  1771  00139C  6E0B               	movwf	datetime_increase_seconds@t^0,c
  1772  00139E  0E00               	movlw	high main@t
  1773  0013A0  6E0C               	movwf	(datetime_increase_seconds@t+1)^0,c
  1774  0013A2  EC7C  F012         	call	_datetime_increase_seconds	;wreg free
  1775  0013A6                     l8312:
  1776  0013A6  FFFF               	dw	65535	; assembler added errata NOP
  1777                           
  1778                           ;main.c: 193:         if (!PORTAbits.RA3){
  1779  0013A8  B680               	btfsc	128,3,c	;volatile
  1780  0013AA  EFD9  F009         	goto	u9141
  1781  0013AE  EFDC  F009         	goto	u9140
  1782  0013B2                     u9141:
  1783  0013B2  FFFF               	dw	65535	; assembler added errata NOP
  1784  0013B4  EF6D  F009         	goto	l8288
  1785  0013B8                     u9140:
  1786  0013B8  FFFF               	dw	65535	; assembler added errata NOP
  1787  0013BA                     
  1788                           ;main.c: 194:             delay_ms(50);
  1789  0013BA  0E00               	movlw	0
  1790  0013BC  6E03               	movwf	(delay_ms@loop+1)^0,c
  1791  0013BE  0E32               	movlw	50
  1792  0013C0  6E02               	movwf	delay_ms@loop^0,c
  1793  0013C2  ECF4  F011         	call	_delay_ms	;wreg free
  1794  0013C6                     
  1795                           ;main.c: 195:             if (!PORTAbits.RA3){
  1796  0013C6  B680               	btfsc	128,3,c	;volatile
  1797  0013C8  EFE8  F009         	goto	u9151
  1798  0013CC  EFEB  F009         	goto	u9150
  1799  0013D0                     u9151:
  1800  0013D0  FFFF               	dw	65535	; assembler added errata NOP
  1801  0013D2  EF6D  F009         	goto	l8288
  1802  0013D6                     u9150:
  1803  0013D6  FFFF               	dw	65535	; assembler added errata NOP
  1804  0013D8                     
  1805                           ;main.c: 196:                 datetime_increase_minutes(&t);
  1806  0013D8  0ECF               	movlw	low main@t
  1807  0013DA  6E08               	movwf	datetime_increase_minutes@t^0,c
  1808  0013DC  0E00               	movlw	high main@t
  1809  0013DE  6E09               	movwf	(datetime_increase_minutes@t+1)^0,c
  1810  0013E0  ECA8  F012         	call	_datetime_increase_minutes	;wreg free
  1811  0013E4  EF6D  F009         	goto	l8288
  1812  0013E8  EF61  F001         	goto	start
  1813  0013EC                     __end_of_main:
  1814                           	opt callstack 0
  1815                           
  1816 ;; *************** function _uart_write_string *****************
  1817 ;; Defined at:
  1818 ;;		line 260 in file "../../libraries/lib_pic/uart.c"
  1819 ;; Parameters:    Size  Location     Type
  1820 ;;  uart_id         1    wreg     enum E2447
  1821 ;;  data            2    1[COMRAM] PTR const unsigned char 
  1822 ;;		 -> STR_46(7), STR_45(9), STR_44(7), STR_43(9), 
  1823 ;;		 -> STR_42(10), STR_41(8), STR_40(7), STR_23(8), 
  1824 ;;		 -> STR_22(4), STR_21(2), STR_20(2), STR_19(38), 
  1825 ;;		 -> STR_18(3), STR_17(4), STR_16(4), STR_15(3), 
  1826 ;;		 -> STR_14(2), STR_13(37), STR_12(13), STR_11(20), 
  1827 ;;		 -> STR_9(35), STR_7(35), command_line_interpreter@uart_buff(256), STR_1(13), 
  1828 ;; Auto vars:     Size  Location     Type
  1829 ;;  uart_id         1    0[COMRAM] enum E2447
  1830 ;; Return value:  Size  Location     Type
  1831 ;;                  1    wreg      enum E39
  1832 ;; Registers used:
  1833 ;;		wreg, fsr0l, fsr0h, status,2, status,0, tblptrl, tblptrh, tblptru
  1834 ;; Tracked objects:
  1835 ;;		On entry : 0/0
  1836 ;;		On exit  : 0/0
  1837 ;;		Unchanged: 0/0
  1838 ;; Data sizes:     COMRAM   BANK0   BANK1   BANK2   BANK3   BANK4   BANK5
  1839 ;;      Params:         2       0       0       0       0       0       0
  1840 ;;      Locals:         0       0       0       0       0       0       0
  1841 ;;      Temps:          0       0       0       0       0       0       0
  1842 ;;      Totals:         2       0       0       0       0       0       0
  1843 ;;Total ram usage:        2 bytes
  1844 ;; Hardware stack levels used:    1
  1845 ;; Hardware stack levels required when called:    1
  1846 ;; This function calls:
  1847 ;;		Nothing
  1848 ;; This function is called by:
  1849 ;;		_main
  1850 ;;		_command_line_interpreter
  1851 ;;		_i2c_detect
  1852 ;;		_i2c_dump
  1853 ;;		_uart_write_date
  1854 ;; This function uses a non-reentrant model
  1855 ;;
  1856                           
  1857                           	psect	text1
  1858  002276                     __ptext1:
  1859                           	opt callstack 0
  1860  002276                     _uart_write_string:
  1861                           	opt callstack 0
  1862  002276  FFFF               	dw	65535	; assembler added errata NOP
  1863  002278                     
  1864                           ;../../libraries/lib_pic/uart.c: 260: result_t uart_write_string (UART_ID uart_id, const
      +                           char *data);../../libraries/lib_pic/uart.c: 261: {;../../libraries/lib_pic/uart.c: 264:
      +                                   while (*data != '\0')
  1865  002278  EF5C  F011         	goto	l7620
  1866  00227C                     l766:
  1867  00227C  FFFF               	dw	65535	; assembler added errata NOP
  1868  00227E  A2AC               	btfss	172,1,c	;volatile
  1869  002280  EF44  F011         	goto	u8201
  1870  002284  EF47  F011         	goto	u8200
  1871  002288                     u8201:
  1872  002288  FFFF               	dw	65535	; assembler added errata NOP
  1873  00228A  EF3E  F011         	goto	l766
  1874  00228E                     u8200:
  1875  00228E  FFFF               	dw	65535	; assembler added errata NOP
  1876  002290                     
  1877                           ;../../libraries/lib_pic/uart.c: 267:             TXREG = *data++;
  1878  002290  C002  FFF6         	movff	uart_write_string@data,tblptrl
  1879  002294  C003  FFF7         	movff	uart_write_string@data+1,tblptrh
  1880  002298  6AF8               	clrf	tblptru,c
  1881  00229A  0E05               	movlw	(high __ramtop+-1)
  1882  00229C  64F7               	cpfsgt	tblptrh,c
  1883  00229E  D004               	bra	u8217
  1884  0022A0  0008               	tblrd		*
  1885  0022A2  FFFF               	dw	65535	; errata NOP
  1886  0022A4  50F5               	movf	tablat,w,c
  1887  0022A6  D005               	bra	u8210
  1888  0022A8                     u8217:
  1889  0022A8  CFF6 FFE9          	movff	tblptrl,fsr0l
  1890  0022AC  CFF7 FFEA          	movff	tblptrh,fsr0h
  1891  0022B0  50EF               	movf	indf0,w,c
  1892  0022B2                     u8210:
  1893  0022B2  6EAD               	movwf	173,c	;volatile
  1894  0022B4  4A02               	infsnz	uart_write_string@data^0,f,c
  1895  0022B6  2A03               	incf	(uart_write_string@data+1)^0,f,c
  1896  0022B8                     l7620:
  1897  0022B8  FFFF               	dw	65535	; assembler added errata NOP
  1898                           
  1899                           ;../../libraries/lib_pic/uart.c: 264:         while (*data != '\0')
  1900  0022BA  C002  FFF6         	movff	uart_write_string@data,tblptrl
  1901  0022BE  C003  FFF7         	movff	uart_write_string@data+1,tblptrh
  1902  0022C2  6AF8               	clrf	tblptru,c
  1903  0022C4  0E05               	movlw	(high __ramtop+-1)
  1904  0022C6  64F7               	cpfsgt	tblptrh,c
  1905  0022C8  D004               	bra	u8227
  1906  0022CA  0008               	tblrd		*
  1907  0022CC  FFFF               	dw	65535	; errata NOP
  1908  0022CE  50F5               	movf	tablat,w,c
  1909  0022D0  D005               	bra	u8220
  1910  0022D2                     u8227:
  1911  0022D2  CFF6 FFE9          	movff	tblptrl,fsr0l
  1912  0022D6  CFF7 FFEA          	movff	tblptrh,fsr0h
  1913  0022DA  50EF               	movf	indf0,w,c
  1914  0022DC                     u8220:
  1915  0022DC  0900               	iorlw	0
  1916  0022DE  A4D8               	btfss	status,2,c
  1917  0022E0  EF74  F011         	goto	u8231
  1918  0022E4  EF77  F011         	goto	u8230
  1919  0022E8                     u8231:
  1920  0022E8  FFFF               	dw	65535	; assembler added errata NOP
  1921  0022EA  EF3E  F011         	goto	l766
  1922  0022EE                     u8230:
  1923  0022EE  FFFF               	dw	65535	; assembler added errata NOP
  1924  0022F0  0012               	return		;funcret
  1925  0022F2  FFFF               	dw	65535	; errata NOP
  1926  0022F4                     __end_of_uart_write_string:
  1927                           	opt callstack 0
  1928                           
  1929 ;; *************** function _uart_init *****************
  1930 ;; Defined at:
  1931 ;;		line 37 in file "../../libraries/lib_pic/uart.c"
  1932 ;; Parameters:    Size  Location     Type
  1933 ;;  uart_id         1    wreg     enum E2447
  1934 ;;  baudrate        4   91[COMRAM] unsigned long 
  1935 ;;  opt             2   95[COMRAM] unsigned short 
  1936 ;; Auto vars:     Size  Location     Type
  1937 ;;  uart_id         1   97[COMRAM] enum E2447
  1938 ;; Return value:  Size  Location     Type
  1939 ;;                  1    wreg      enum E1898
  1940 ;; Registers used:
  1941 ;;		wreg, status,2, status,0, prodl, prodh, cstack
  1942 ;; Tracked objects:
  1943 ;;		On entry : 0/0
  1944 ;;		On exit  : 0/0
  1945 ;;		Unchanged: 0/0
  1946 ;; Data sizes:     COMRAM   BANK0   BANK1   BANK2   BANK3   BANK4   BANK5
  1947 ;;      Params:         6       0       0       0       0       0       0
  1948 ;;      Locals:         1       0       0       0       0       0       0
  1949 ;;      Temps:          0       0       0       0       0       0       0
  1950 ;;      Totals:         7       0       0       0       0       0       0
  1951 ;;Total ram usage:        7 bytes
  1952 ;; Hardware stack levels used:    1
  1953 ;; Hardware stack levels required when called:    2
  1954 ;; This function calls:
  1955 ;;		___fladd
  1956 ;;		___fldiv
  1957 ;;		___flmul
  1958 ;;		___fltol
  1959 ;;		___xxtofl
  1960 ;;		_delay_ms
  1961 ;; This function is called by:
  1962 ;;		_main
  1963 ;; This function uses a non-reentrant model
  1964 ;;
  1965                           
  1966                           	psect	text2
  1967  001DAC                     __ptext2:
  1968                           	opt callstack 0
  1969  001DAC                     _uart_init:
  1970                           	opt callstack 0
  1971  001DAC  FFFF               	dw	65535	; assembler added errata NOP
  1972                           
  1973                           ;incstack = 0
  1974                           ;uart_init@uart_id stored from wreg
  1975  001DAE  6E62               	movwf	uart_init@uart_id^0,c
  1976  001DB0                     
  1977                           ;../../libraries/lib_pic/uart.c: 37: result_t uart_init (UART_ID uart_id, u32 baudrate, 
      +                          u16 opt);../../libraries/lib_pic/uart.c: 38: {;../../libraries/lib_pic/uart.c: 41:      
      +                             SPBRG = 10000000L / (16.0 * baudrate) - 1;
  1978  001DB0  0E00               	movlw	0
  1979  001DB2  6E46               	movwf	___fladd@a^0,c
  1980  001DB4  0E00               	movlw	0
  1981  001DB6  6E47               	movwf	(___fladd@a+1)^0,c
  1982  001DB8  0E80               	movlw	128
  1983  001DBA  6E48               	movwf	(___fladd@a+2)^0,c
  1984  001DBC  0EBF               	movlw	191
  1985  001DBE  6E49               	movwf	(___fladd@a+3)^0,c
  1986  001DC0  0E00               	movlw	0
  1987  001DC2  6E14               	movwf	___flmul@a^0,c
  1988  001DC4  0E00               	movlw	0
  1989  001DC6  6E15               	movwf	(___flmul@a+1)^0,c
  1990  001DC8  0E80               	movlw	128
  1991  001DCA  6E16               	movwf	(___flmul@a+2)^0,c
  1992  001DCC  0E41               	movlw	65
  1993  001DCE  6E17               	movwf	(___flmul@a+3)^0,c
  1994  001DD0  C05C  F002         	movff	uart_init@baudrate,___xxtofl@val
  1995  001DD4  C05D  F003         	movff	uart_init@baudrate+1,___xxtofl@val+1
  1996  001DD8  C05E  F004         	movff	uart_init@baudrate+2,___xxtofl@val+2
  1997  001DDC  C05F  F005         	movff	uart_init@baudrate+3,___xxtofl@val+3
  1998  001DE0  0E00               	movlw	0
  1999  001DE2  ECF6  F009         	call	___xxtofl
  2000  001DE6  C002  F010         	movff	?___xxtofl,___flmul@b
  2001  001DEA  C003  F011         	movff	?___xxtofl+1,___flmul@b+1
  2002  001DEE  C004  F012         	movff	?___xxtofl+2,___flmul@b+2
  2003  001DF2  C005  F013         	movff	?___xxtofl+3,___flmul@b+3
  2004  001DF6  EC37  F004         	call	___flmul	;wreg free
  2005  001DFA  C010  F02D         	movff	?___flmul,___fldiv@a
  2006  001DFE  C011  F02E         	movff	?___flmul+1,___fldiv@a+1
  2007  001E02  C012  F02F         	movff	?___flmul+2,___fldiv@a+2
  2008  001E06  C013  F030         	movff	?___flmul+3,___fldiv@a+3
  2009  001E0A  0E80               	movlw	128
  2010  001E0C  6E29               	movwf	___fldiv@b^0,c
  2011  001E0E  0E96               	movlw	150
  2012  001E10  6E2A               	movwf	(___fldiv@b+1)^0,c
  2013  001E12  0E18               	movlw	24
  2014  001E14  6E2B               	movwf	(___fldiv@b+2)^0,c
  2015  001E16  0E4B               	movlw	75
  2016  001E18  6E2C               	movwf	(___fldiv@b+3)^0,c
  2017  001E1A  EC89  F006         	call	___fldiv	;wreg free
  2018  001E1E  C029  F042         	movff	?___fldiv,___fladd@b
  2019  001E22  C02A  F043         	movff	?___fldiv+1,___fladd@b+1
  2020  001E26  C02B  F044         	movff	?___fldiv+2,___fladd@b+2
  2021  001E2A  C02C  F045         	movff	?___fldiv+3,___fladd@b+3
  2022  001E2E  EC63  F001         	call	___fladd	;wreg free
  2023  001E32  C042  F052         	movff	?___fladd,___fltol@f1
  2024  001E36  C043  F053         	movff	?___fladd+1,___fltol@f1+1
  2025  001E3A  C044  F054         	movff	?___fladd+2,___fltol@f1+2
  2026  001E3E  C045  F055         	movff	?___fladd+3,___fltol@f1+3
  2027  001E42  ECBE  F00D         	call	___fltol	;wreg free
  2028  001E46  5052               	movf	?___fltol^0,w,c
  2029  001E48  6EAF               	movwf	175,c	;volatile
  2030  001E4A                     
  2031                           ;../../libraries/lib_pic/uart.c: 44:         if (uart_id == UART_ID_1){
  2032  001E4A  5062               	movf	uart_init@uart_id^0,w,c
  2033  001E4C  A4D8               	btfss	status,2,c
  2034  001E4E  EF2B  F00F         	goto	u8331
  2035  001E52  EF2E  F00F         	goto	u8330
  2036  001E56                     u8331:
  2037  001E56  FFFF               	dw	65535	; assembler added errata NOP
  2038  001E58  EF35  F00F         	goto	l7702
  2039  001E5C                     u8330:
  2040  001E5C  FFFF               	dw	65535	; assembler added errata NOP
  2041  001E5E                     
  2042                           ;../../libraries/lib_pic/uart.c: 46:             TXSTAbits.BRGH = 1;
  2043  001E5E  84AC               	bsf	172,2,c	;volatile
  2044                           
  2045                           ;../../libraries/lib_pic/uart.c: 49:             TXSTAbits.TXEN = 1;
  2046  001E60  8AAC               	bsf	172,5,c	;volatile
  2047                           
  2048                           ;../../libraries/lib_pic/uart.c: 52:             RCSTAbits.SPEN = 1;
  2049  001E62  8EAB               	bsf	171,7,c	;volatile
  2050                           
  2051                           ;../../libraries/lib_pic/uart.c: 55:             RCSTAbits.CREN = 1;
  2052  001E64  88AB               	bsf	171,4,c	;volatile
  2053                           
  2054                           ;../../libraries/lib_pic/uart.c: 58:             TRISCbits.TRISC7 = 1;
  2055  001E66  8E94               	bsf	148,7,c	;volatile
  2056                           
  2057                           ;../../libraries/lib_pic/uart.c: 59:             TRISCbits.TRISC6 = 0;
  2058  001E68  9C94               	bcf	148,6,c	;volatile
  2059  001E6A                     l7702:
  2060  001E6A  FFFF               	dw	65535	; assembler added errata NOP
  2061                           
  2062                           ;../../libraries/lib_pic/uart.c: 169:     delay_ms(30);
  2063  001E6C  0E00               	movlw	0
  2064  001E6E  6E03               	movwf	(delay_ms@loop+1)^0,c
  2065  001E70  0E1E               	movlw	30
  2066  001E72  6E02               	movwf	delay_ms@loop^0,c
  2067  001E74  ECF4  F011         	call	_delay_ms	;wreg free
  2068  001E78                     
  2069                           ;../../libraries/lib_pic/uart.c: 175:     return SUCCESS;
  2070  001E78  0E00               	movlw	0
  2071  001E7A  0012               	return		;funcret
  2072  001E7C  FFFF               	dw	65535	; errata NOP
  2073  001E7E                     __end_of_uart_init:
  2074                           	opt callstack 0
  2075                           
  2076 ;; *************** function ___xxtofl *****************
  2077 ;; Defined at:
  2078 ;;		line 10 in file "C:\Programs\Microchip\xc8\v2.10\pic\sources\c99\common\xxtofl.c"
  2079 ;; Parameters:    Size  Location     Type
  2080 ;;  sign            1    wreg     unsigned char 
  2081 ;;  val             4    1[COMRAM] long 
  2082 ;; Auto vars:     Size  Location     Type
  2083 ;;  sign            1    9[COMRAM] unsigned char 
  2084 ;;  arg             4   11[COMRAM] unsigned long 
  2085 ;;  exp             1   10[COMRAM] unsigned char 
  2086 ;; Return value:  Size  Location     Type
  2087 ;;                  4    1[COMRAM] unsigned char 
  2088 ;; Registers used:
  2089 ;;		wreg, status,2, status,0
  2090 ;; Tracked objects:
  2091 ;;		On entry : 0/0
  2092 ;;		On exit  : 0/0
  2093 ;;		Unchanged: 0/0
  2094 ;; Data sizes:     COMRAM   BANK0   BANK1   BANK2   BANK3   BANK4   BANK5
  2095 ;;      Params:         4       0       0       0       0       0       0
  2096 ;;      Locals:         6       0       0       0       0       0       0
  2097 ;;      Temps:          4       0       0       0       0       0       0
  2098 ;;      Totals:        14       0       0       0       0       0       0
  2099 ;;Total ram usage:       14 bytes
  2100 ;; Hardware stack levels used:    1
  2101 ;; Hardware stack levels required when called:    1
  2102 ;; This function calls:
  2103 ;;		Nothing
  2104 ;; This function is called by:
  2105 ;;		_uart_init
  2106 ;; This function uses a non-reentrant model
  2107 ;;
  2108                           
  2109                           	psect	text3
  2110  0013EC                     __ptext3:
  2111                           	opt callstack 0
  2112  0013EC                     ___xxtofl:
  2113                           	opt callstack 0
  2114  0013EC  FFFF               	dw	65535	; assembler added errata NOP
  2115                           
  2116                           ;incstack = 0
  2117                           ;___xxtofl@sign stored from wreg
  2118  0013EE  6E0A               	movwf	___xxtofl@sign^0,c
  2119  0013F0  500A               	movf	___xxtofl@sign^0,w,c
  2120  0013F2  B4D8               	btfsc	status,2,c
  2121  0013F4  EFFE  F009         	goto	u8101
  2122  0013F8  EF01  F00A         	goto	u8100
  2123  0013FC                     u8101:
  2124  0013FC  FFFF               	dw	65535	; assembler added errata NOP
  2125  0013FE  EF26  F00A         	goto	l1736
  2126  001402                     u8100:
  2127  001402  FFFF               	dw	65535	; assembler added errata NOP
  2128  001404  BE05               	btfsc	(___xxtofl@val+3)^0,7,c
  2129  001406  EF0A  F00A         	goto	u8110
  2130  00140A  EF07  F00A         	goto	u8111
  2131  00140E                     u8111:
  2132  00140E  FFFF               	dw	65535	; assembler added errata NOP
  2133  001410  EF26  F00A         	goto	l1736
  2134  001414                     u8110:
  2135  001414  FFFF               	dw	65535	; assembler added errata NOP
  2136  001416  C002  F006         	movff	___xxtofl@val,??___xxtofl
  2137  00141A  C003  F007         	movff	___xxtofl@val+1,??___xxtofl+1
  2138  00141E  C004  F008         	movff	___xxtofl@val+2,??___xxtofl+2
  2139  001422  C005  F009         	movff	___xxtofl@val+3,??___xxtofl+3
  2140  001426  1E06               	comf	??___xxtofl^0,f,c
  2141  001428  1E07               	comf	(??___xxtofl+1)^0,f,c
  2142  00142A  1E08               	comf	(??___xxtofl+2)^0,f,c
  2143  00142C  1E09               	comf	(??___xxtofl+3)^0,f,c
  2144  00142E  2A06               	incf	??___xxtofl^0,f,c
  2145  001430  0E00               	movlw	0
  2146  001432  2207               	addwfc	(??___xxtofl+1)^0,f,c
  2147  001434  2208               	addwfc	(??___xxtofl+2)^0,f,c
  2148  001436  2209               	addwfc	(??___xxtofl+3)^0,f,c
  2149  001438  C006  F00C         	movff	??___xxtofl,___xxtofl@arg
  2150  00143C  C007  F00D         	movff	??___xxtofl+1,___xxtofl@arg+1
  2151  001440  C008  F00E         	movff	??___xxtofl+2,___xxtofl@arg+2
  2152  001444  C009  F00F         	movff	??___xxtofl+3,___xxtofl@arg+3
  2153  001448  EF2F  F00A         	goto	l7574
  2154  00144C                     l1736:
  2155  00144C  FFFF               	dw	65535	; assembler added errata NOP
  2156  00144E  C002  F00C         	movff	___xxtofl@val,___xxtofl@arg
  2157  001452  C003  F00D         	movff	___xxtofl@val+1,___xxtofl@arg+1
  2158  001456  C004  F00E         	movff	___xxtofl@val+2,___xxtofl@arg+2
  2159  00145A  C005  F00F         	movff	___xxtofl@val+3,___xxtofl@arg+3
  2160  00145E                     l7574:
  2161  00145E  FFFF               	dw	65535	; assembler added errata NOP
  2162  001460  5002               	movf	___xxtofl@val^0,w,c
  2163  001462  1003               	iorwf	(___xxtofl@val+1)^0,w,c
  2164  001464  1004               	iorwf	(___xxtofl@val+2)^0,w,c
  2165  001466  1005               	iorwf	(___xxtofl@val+3)^0,w,c
  2166  001468  A4D8               	btfss	status,2,c
  2167  00146A  EF39  F00A         	goto	u8121
  2168  00146E  EF3C  F00A         	goto	u8120
  2169  001472                     u8121:
  2170  001472  FFFF               	dw	65535	; assembler added errata NOP
  2171  001474  EF47  F00A         	goto	l7580
  2172  001478                     u8120:
  2173  001478  FFFF               	dw	65535	; assembler added errata NOP
  2174  00147A  0E00               	movlw	0
  2175  00147C  6E02               	movwf	?___xxtofl^0,c
  2176  00147E  0E00               	movlw	0
  2177  001480  6E03               	movwf	(?___xxtofl+1)^0,c
  2178  001482  0E00               	movlw	0
  2179  001484  6E04               	movwf	(?___xxtofl+2)^0,c
  2180  001486  0E00               	movlw	0
  2181  001488  6E05               	movwf	(?___xxtofl+3)^0,c
  2182  00148A  EFEF  F00A         	goto	l1739
  2183  00148E                     l7580:
  2184  00148E  FFFF               	dw	65535	; assembler added errata NOP
  2185  001490  0E96               	movlw	150
  2186  001492  6E0B               	movwf	___xxtofl@exp^0,c
  2187  001494  EF53  F00A         	goto	l7584
  2188  001498                     l7582:
  2189  001498  FFFF               	dw	65535	; assembler added errata NOP
  2190  00149A  2A0B               	incf	___xxtofl@exp^0,f,c
  2191  00149C  90D8               	bcf	status,0,c
  2192  00149E  320F               	rrcf	(___xxtofl@arg+3)^0,f,c
  2193  0014A0  320E               	rrcf	(___xxtofl@arg+2)^0,f,c
  2194  0014A2  320D               	rrcf	(___xxtofl@arg+1)^0,f,c
  2195  0014A4  320C               	rrcf	___xxtofl@arg^0,f,c
  2196  0014A6                     l7584:
  2197  0014A6  FFFF               	dw	65535	; assembler added errata NOP
  2198  0014A8  0E00               	movlw	0
  2199  0014AA  140C               	andwf	___xxtofl@arg^0,w,c
  2200  0014AC  6E06               	movwf	??___xxtofl^0,c
  2201  0014AE  0E00               	movlw	0
  2202  0014B0  140D               	andwf	(___xxtofl@arg+1)^0,w,c
  2203  0014B2  6E07               	movwf	(??___xxtofl+1)^0,c
  2204  0014B4  0E00               	movlw	0
  2205  0014B6  140E               	andwf	(___xxtofl@arg+2)^0,w,c
  2206  0014B8  6E08               	movwf	(??___xxtofl+2)^0,c
  2207  0014BA  0EFE               	movlw	254
  2208  0014BC  140F               	andwf	(___xxtofl@arg+3)^0,w,c
  2209  0014BE  6E09               	movwf	(??___xxtofl+3)^0,c
  2210  0014C0  5006               	movf	??___xxtofl^0,w,c
  2211  0014C2  1007               	iorwf	(??___xxtofl+1)^0,w,c
  2212  0014C4  1008               	iorwf	(??___xxtofl+2)^0,w,c
  2213  0014C6  1009               	iorwf	(??___xxtofl+3)^0,w,c
  2214  0014C8  A4D8               	btfss	status,2,c
  2215  0014CA  EF69  F00A         	goto	u8131
  2216  0014CE  EF6C  F00A         	goto	u8130
  2217  0014D2                     u8131:
  2218  0014D2  FFFF               	dw	65535	; assembler added errata NOP
  2219  0014D4  EF4C  F00A         	goto	l7582
  2220  0014D8                     u8130:
  2221  0014D8  FFFF               	dw	65535	; assembler added errata NOP
  2222  0014DA  EF7C  F00A         	goto	l1743
  2223  0014DE                     l7586:
  2224  0014DE  FFFF               	dw	65535	; assembler added errata NOP
  2225  0014E0  2A0B               	incf	___xxtofl@exp^0,f,c
  2226  0014E2  0E01               	movlw	1
  2227  0014E4  260C               	addwf	___xxtofl@arg^0,f,c
  2228  0014E6  0E00               	movlw	0
  2229  0014E8  220D               	addwfc	(___xxtofl@arg+1)^0,f,c
  2230  0014EA  220E               	addwfc	(___xxtofl@arg+2)^0,f,c
  2231  0014EC  220F               	addwfc	(___xxtofl@arg+3)^0,f,c
  2232  0014EE  90D8               	bcf	status,0,c
  2233  0014F0  320F               	rrcf	(___xxtofl@arg+3)^0,f,c
  2234  0014F2  320E               	rrcf	(___xxtofl@arg+2)^0,f,c
  2235  0014F4  320D               	rrcf	(___xxtofl@arg+1)^0,f,c
  2236  0014F6  320C               	rrcf	___xxtofl@arg^0,f,c
  2237  0014F8                     l1743:
  2238  0014F8  FFFF               	dw	65535	; assembler added errata NOP
  2239  0014FA  0E00               	movlw	0
  2240  0014FC  140C               	andwf	___xxtofl@arg^0,w,c
  2241  0014FE  6E06               	movwf	??___xxtofl^0,c
  2242  001500  0E00               	movlw	0
  2243  001502  140D               	andwf	(___xxtofl@arg+1)^0,w,c
  2244  001504  6E07               	movwf	(??___xxtofl+1)^0,c
  2245  001506  0E00               	movlw	0
  2246  001508  140E               	andwf	(___xxtofl@arg+2)^0,w,c
  2247  00150A  6E08               	movwf	(??___xxtofl+2)^0,c
  2248  00150C  0EFF               	movlw	255
  2249  00150E  140F               	andwf	(___xxtofl@arg+3)^0,w,c
  2250  001510  6E09               	movwf	(??___xxtofl+3)^0,c
  2251  001512  5006               	movf	??___xxtofl^0,w,c
  2252  001514  1007               	iorwf	(??___xxtofl+1)^0,w,c
  2253  001516  1008               	iorwf	(??___xxtofl+2)^0,w,c
  2254  001518  1009               	iorwf	(??___xxtofl+3)^0,w,c
  2255  00151A  A4D8               	btfss	status,2,c
  2256  00151C  EF92  F00A         	goto	u8141
  2257  001520  EF95  F00A         	goto	u8140
  2258  001524                     u8141:
  2259  001524  FFFF               	dw	65535	; assembler added errata NOP
  2260  001526  EF6F  F00A         	goto	l7586
  2261  00152A                     u8140:
  2262  00152A  FFFF               	dw	65535	; assembler added errata NOP
  2263  00152C  EF9F  F00A         	goto	l7594
  2264  001530                     l7592:
  2265  001530  FFFF               	dw	65535	; assembler added errata NOP
  2266  001532  060B               	decf	___xxtofl@exp^0,f,c
  2267  001534  90D8               	bcf	status,0,c
  2268  001536  360C               	rlcf	___xxtofl@arg^0,f,c
  2269  001538  360D               	rlcf	(___xxtofl@arg+1)^0,f,c
  2270  00153A  360E               	rlcf	(___xxtofl@arg+2)^0,f,c
  2271  00153C  360F               	rlcf	(___xxtofl@arg+3)^0,f,c
  2272  00153E                     l7594:
  2273  00153E  FFFF               	dw	65535	; assembler added errata NOP
  2274  001540  BE0E               	btfsc	(___xxtofl@arg+2)^0,7,c
  2275  001542  EFA5  F00A         	goto	u8151
  2276  001546  EFA8  F00A         	goto	u8150
  2277  00154A                     u8151:
  2278  00154A  FFFF               	dw	65535	; assembler added errata NOP
  2279  00154C  EFB2  F00A         	goto	l1750
  2280  001550                     u8150:
  2281  001550  FFFF               	dw	65535	; assembler added errata NOP
  2282  001552  0E02               	movlw	2
  2283  001554  600B               	cpfslt	___xxtofl@exp^0,c
  2284  001556  EFAF  F00A         	goto	u8161
  2285  00155A  EFB2  F00A         	goto	u8160
  2286  00155E                     u8161:
  2287  00155E  FFFF               	dw	65535	; assembler added errata NOP
  2288  001560  EF98  F00A         	goto	l7592
  2289  001564                     u8160:
  2290  001564                     l1750:
  2291  001564  FFFF               	dw	65535	; assembler added errata NOP
  2292  001566  B00B               	btfsc	___xxtofl@exp^0,0,c
  2293  001568  EFB8  F00A         	goto	u8171
  2294  00156C  EFBB  F00A         	goto	u8170
  2295  001570                     u8171:
  2296  001570  FFFF               	dw	65535	; assembler added errata NOP
  2297  001572  EFBD  F00A         	goto	l7600
  2298  001576                     u8170:
  2299  001576  FFFF               	dw	65535	; assembler added errata NOP
  2300  001578  9E0E               	bcf	(___xxtofl@arg+2)^0,7,c
  2301  00157A                     l7600:
  2302  00157A  FFFF               	dw	65535	; assembler added errata NOP
  2303  00157C  90D8               	bcf	status,0,c
  2304  00157E  320B               	rrcf	___xxtofl@exp^0,f,c
  2305  001580  C00B  F006         	movff	___xxtofl@exp,??___xxtofl
  2306  001584  6A07               	clrf	(??___xxtofl+1)^0,c
  2307  001586  6A08               	clrf	(??___xxtofl+2)^0,c
  2308  001588  6A09               	clrf	(??___xxtofl+3)^0,c
  2309  00158A  C006  F009         	movff	??___xxtofl,??___xxtofl+3
  2310  00158E  6A08               	clrf	(??___xxtofl+2)^0,c
  2311  001590  6A07               	clrf	(??___xxtofl+1)^0,c
  2312  001592  6A06               	clrf	??___xxtofl^0,c
  2313  001594  5006               	movf	??___xxtofl^0,w,c
  2314  001596  120C               	iorwf	___xxtofl@arg^0,f,c
  2315  001598  5007               	movf	(??___xxtofl+1)^0,w,c
  2316  00159A  120D               	iorwf	(___xxtofl@arg+1)^0,f,c
  2317  00159C  5008               	movf	(??___xxtofl+2)^0,w,c
  2318  00159E  120E               	iorwf	(___xxtofl@arg+2)^0,f,c
  2319  0015A0  5009               	movf	(??___xxtofl+3)^0,w,c
  2320  0015A2  120F               	iorwf	(___xxtofl@arg+3)^0,f,c
  2321  0015A4  500A               	movf	___xxtofl@sign^0,w,c
  2322  0015A6  B4D8               	btfsc	status,2,c
  2323  0015A8  EFD8  F00A         	goto	u8181
  2324  0015AC  EFDB  F00A         	goto	u8180
  2325  0015B0                     u8181:
  2326  0015B0  FFFF               	dw	65535	; assembler added errata NOP
  2327  0015B2  EFE6  F00A         	goto	l7610
  2328  0015B6                     u8180:
  2329  0015B6  FFFF               	dw	65535	; assembler added errata NOP
  2330  0015B8  BE05               	btfsc	(___xxtofl@val+3)^0,7,c
  2331  0015BA  EFE4  F00A         	goto	u8190
  2332  0015BE  EFE1  F00A         	goto	u8191
  2333  0015C2                     u8191:
  2334  0015C2  FFFF               	dw	65535	; assembler added errata NOP
  2335  0015C4  EFE6  F00A         	goto	l7610
  2336  0015C8                     u8190:
  2337  0015C8  FFFF               	dw	65535	; assembler added errata NOP
  2338  0015CA  8E0F               	bsf	(___xxtofl@arg+3)^0,7,c
  2339  0015CC                     l7610:
  2340  0015CC  FFFF               	dw	65535	; assembler added errata NOP
  2341  0015CE  C00C  F002         	movff	___xxtofl@arg,?___xxtofl
  2342  0015D2  C00D  F003         	movff	___xxtofl@arg+1,?___xxtofl+1
  2343  0015D6  C00E  F004         	movff	___xxtofl@arg+2,?___xxtofl+2
  2344  0015DA  C00F  F005         	movff	___xxtofl@arg+3,?___xxtofl+3
  2345  0015DE                     l1739:
  2346  0015DE  FFFF               	dw	65535	; assembler added errata NOP
  2347  0015E0  0012               	return		;funcret
  2348  0015E2  FFFF               	dw	65535	; errata NOP
  2349  0015E4                     __end_of___xxtofl:
  2350                           	opt callstack 0
  2351                           
  2352 ;; *************** function ___fltol *****************
  2353 ;; Defined at:
  2354 ;;		line 43 in file "C:\Programs\Microchip\xc8\v2.10\pic\sources\c99\common\fltol.c"
  2355 ;; Parameters:    Size  Location     Type
  2356 ;;  f1              4   81[COMRAM] unsigned char 
  2357 ;; Auto vars:     Size  Location     Type
  2358 ;;  exp1            1   90[COMRAM] unsigned char 
  2359 ;;  sign1           1   89[COMRAM] unsigned char 
  2360 ;; Return value:  Size  Location     Type
  2361 ;;                  4   81[COMRAM] long 
  2362 ;; Registers used:
  2363 ;;		wreg, status,2, status,0
  2364 ;; Tracked objects:
  2365 ;;		On entry : 0/0
  2366 ;;		On exit  : 0/0
  2367 ;;		Unchanged: 0/0
  2368 ;; Data sizes:     COMRAM   BANK0   BANK1   BANK2   BANK3   BANK4   BANK5
  2369 ;;      Params:         4       0       0       0       0       0       0
  2370 ;;      Locals:         2       0       0       0       0       0       0
  2371 ;;      Temps:          4       0       0       0       0       0       0
  2372 ;;      Totals:        10       0       0       0       0       0       0
  2373 ;;Total ram usage:       10 bytes
  2374 ;; Hardware stack levels used:    1
  2375 ;; Hardware stack levels required when called:    1
  2376 ;; This function calls:
  2377 ;;		Nothing
  2378 ;; This function is called by:
  2379 ;;		_uart_init
  2380 ;; This function uses a non-reentrant model
  2381 ;;
  2382                           
  2383                           	psect	text4
  2384  001B7C                     __ptext4:
  2385                           	opt callstack 0
  2386  001B7C                     ___fltol:
  2387                           	opt callstack 0
  2388  001B7C  FFFF               	dw	65535	; assembler added errata NOP
  2389  001B7E  3454               	rlcf	(___fltol@f1+2)^0,w,c
  2390  001B80  3455               	rlcf	(___fltol@f1+3)^0,w,c
  2391  001B82  6E5B               	movwf	___fltol@exp1^0,c
  2392  001B84  505B               	movf	___fltol@exp1^0,w,c
  2393  001B86  A4D8               	btfss	status,2,c
  2394  001B88  EFC8  F00D         	goto	u8031
  2395  001B8C  EFCB  F00D         	goto	u8030
  2396  001B90                     u8031:
  2397  001B90  FFFF               	dw	65535	; assembler added errata NOP
  2398  001B92  EFD7  F00D         	goto	l7530
  2399  001B96                     u8030:
  2400  001B96  FFFF               	dw	65535	; assembler added errata NOP
  2401  001B98                     l7526:
  2402  001B98  FFFF               	dw	65535	; assembler added errata NOP
  2403  001B9A  0E00               	movlw	0
  2404  001B9C  6E52               	movwf	?___fltol^0,c
  2405  001B9E  0E00               	movlw	0
  2406  001BA0  6E53               	movwf	(?___fltol+1)^0,c
  2407  001BA2  0E00               	movlw	0
  2408  001BA4  6E54               	movwf	(?___fltol+2)^0,c
  2409  001BA6  0E00               	movlw	0
  2410  001BA8  6E55               	movwf	(?___fltol+3)^0,c
  2411  001BAA  EF56  F00E         	goto	l1378
  2412  001BAE                     l7530:
  2413  001BAE  FFFF               	dw	65535	; assembler added errata NOP
  2414  001BB0  C052  F056         	movff	___fltol@f1,??___fltol
  2415  001BB4  C053  F057         	movff	___fltol@f1+1,??___fltol+1
  2416  001BB8  C054  F058         	movff	___fltol@f1+2,??___fltol+2
  2417  001BBC  C055  F059         	movff	___fltol@f1+3,??___fltol+3
  2418  001BC0  0E20               	movlw	32
  2419  001BC2  EFE9  F00D         	goto	u8040
  2420  001BC6                     u8045:
  2421  001BC6  FFFF               	dw	65535	; assembler added errata NOP
  2422  001BC8  90D8               	bcf	status,0,c
  2423  001BCA  3259               	rrcf	(??___fltol+3)^0,f,c
  2424  001BCC  3258               	rrcf	(??___fltol+2)^0,f,c
  2425  001BCE  3257               	rrcf	(??___fltol+1)^0,f,c
  2426  001BD0  3256               	rrcf	??___fltol^0,f,c
  2427  001BD2                     u8040:
  2428  001BD2  FFFF               	dw	65535	; assembler added errata NOP
  2429  001BD4  2EE8               	decfsz	wreg,f,c
  2430  001BD6  EFE3  F00D         	goto	u8045
  2431  001BDA  5056               	movf	??___fltol^0,w,c
  2432  001BDC  6E5A               	movwf	___fltol@sign1^0,c
  2433  001BDE  8E54               	bsf	(___fltol@f1+2)^0,7,c
  2434  001BE0  0EFF               	movlw	255
  2435  001BE2  1652               	andwf	___fltol@f1^0,f,c
  2436  001BE4  0EFF               	movlw	255
  2437  001BE6  1653               	andwf	(___fltol@f1+1)^0,f,c
  2438  001BE8  0EFF               	movlw	255
  2439  001BEA  1654               	andwf	(___fltol@f1+2)^0,f,c
  2440  001BEC  0E00               	movlw	0
  2441  001BEE  1655               	andwf	(___fltol@f1+3)^0,f,c
  2442  001BF0  0E96               	movlw	150
  2443  001BF2  5E5B               	subwf	___fltol@exp1^0,f,c
  2444  001BF4  BE5B               	btfsc	___fltol@exp1^0,7,c
  2445  001BF6  EF02  F00E         	goto	u8050
  2446  001BFA  EFFF  F00D         	goto	u8051
  2447  001BFE                     u8051:
  2448  001BFE  FFFF               	dw	65535	; assembler added errata NOP
  2449  001C00  EF1C  F00E         	goto	l7550
  2450  001C04                     u8050:
  2451  001C04  FFFF               	dw	65535	; assembler added errata NOP
  2452  001C06  505B               	movf	___fltol@exp1^0,w,c
  2453  001C08  0A80               	xorlw	128
  2454  001C0A  0F97               	addlw	151
  2455  001C0C  B0D8               	btfsc	status,0,c
  2456  001C0E  EF0B  F00E         	goto	u8061
  2457  001C12  EF0E  F00E         	goto	u8060
  2458  001C16                     u8061:
  2459  001C16  FFFF               	dw	65535	; assembler added errata NOP
  2460  001C18  EF11  F00E         	goto	l7546
  2461  001C1C                     u8060:
  2462  001C1C  FFFF               	dw	65535	; assembler added errata NOP
  2463  001C1E  EFCC  F00D         	goto	l7526
  2464  001C22                     l7546:
  2465  001C22  FFFF               	dw	65535	; assembler added errata NOP
  2466  001C24  90D8               	bcf	status,0,c
  2467  001C26  3255               	rrcf	(___fltol@f1+3)^0,f,c
  2468  001C28  3254               	rrcf	(___fltol@f1+2)^0,f,c
  2469  001C2A  3253               	rrcf	(___fltol@f1+1)^0,f,c
  2470  001C2C  3252               	rrcf	___fltol@f1^0,f,c
  2471  001C2E  3E5B               	incfsz	___fltol@exp1^0,f,c
  2472  001C30  EF11  F00E         	goto	l7546
  2473  001C34  EF3A  F00E         	goto	l7560
  2474  001C38                     l7550:
  2475  001C38  FFFF               	dw	65535	; assembler added errata NOP
  2476  001C3A  0E1F               	movlw	31
  2477  001C3C  645B               	cpfsgt	___fltol@exp1^0,c
  2478  001C3E  EF23  F00E         	goto	u8071
  2479  001C42  EF26  F00E         	goto	u8070
  2480  001C46                     u8071:
  2481  001C46  FFFF               	dw	65535	; assembler added errata NOP
  2482  001C48  EF30  F00E         	goto	l7558
  2483  001C4C                     u8070:
  2484  001C4C  FFFF               	dw	65535	; assembler added errata NOP
  2485  001C4E  EFCC  F00D         	goto	l7526
  2486  001C52                     l7556:
  2487  001C52  FFFF               	dw	65535	; assembler added errata NOP
  2488  001C54  90D8               	bcf	status,0,c
  2489  001C56  3652               	rlcf	___fltol@f1^0,f,c
  2490  001C58  3653               	rlcf	(___fltol@f1+1)^0,f,c
  2491  001C5A  3654               	rlcf	(___fltol@f1+2)^0,f,c
  2492  001C5C  3655               	rlcf	(___fltol@f1+3)^0,f,c
  2493  001C5E  065B               	decf	___fltol@exp1^0,f,c
  2494  001C60                     l7558:
  2495  001C60  FFFF               	dw	65535	; assembler added errata NOP
  2496  001C62  505B               	movf	___fltol@exp1^0,w,c
  2497  001C64  A4D8               	btfss	status,2,c
  2498  001C66  EF37  F00E         	goto	u8081
  2499  001C6A  EF3A  F00E         	goto	u8080
  2500  001C6E                     u8081:
  2501  001C6E  FFFF               	dw	65535	; assembler added errata NOP
  2502  001C70  EF29  F00E         	goto	l7556
  2503  001C74                     u8080:
  2504  001C74                     l7560:
  2505  001C74  FFFF               	dw	65535	; assembler added errata NOP
  2506  001C76  505A               	movf	___fltol@sign1^0,w,c
  2507  001C78  B4D8               	btfsc	status,2,c
  2508  001C7A  EF41  F00E         	goto	u8091
  2509  001C7E  EF44  F00E         	goto	u8090
  2510  001C82                     u8091:
  2511  001C82  FFFF               	dw	65535	; assembler added errata NOP
  2512  001C84  EF4D  F00E         	goto	l7564
  2513  001C88                     u8090:
  2514  001C88  FFFF               	dw	65535	; assembler added errata NOP
  2515  001C8A  1E55               	comf	(___fltol@f1+3)^0,f,c
  2516  001C8C  1E54               	comf	(___fltol@f1+2)^0,f,c
  2517  001C8E  1E53               	comf	(___fltol@f1+1)^0,f,c
  2518  001C90  6C52               	negf	___fltol@f1^0,c
  2519  001C92  0E00               	movlw	0
  2520  001C94  2253               	addwfc	(___fltol@f1+1)^0,f,c
  2521  001C96  2254               	addwfc	(___fltol@f1+2)^0,f,c
  2522  001C98  2255               	addwfc	(___fltol@f1+3)^0,f,c
  2523  001C9A                     l7564:
  2524  001C9A  FFFF               	dw	65535	; assembler added errata NOP
  2525  001C9C  C052  F052         	movff	___fltol@f1,?___fltol
  2526  001CA0  C053  F053         	movff	___fltol@f1+1,?___fltol+1
  2527  001CA4  C054  F054         	movff	___fltol@f1+2,?___fltol+2
  2528  001CA8  C055  F055         	movff	___fltol@f1+3,?___fltol+3
  2529  001CAC                     l1378:
  2530  001CAC  FFFF               	dw	65535	; assembler added errata NOP
  2531  001CAE  0012               	return		;funcret
  2532  001CB0  FFFF               	dw	65535	; errata NOP
  2533  001CB2                     __end_of___fltol:
  2534                           	opt callstack 0
  2535                           
  2536 ;; *************** function ___flmul *****************
  2537 ;; Defined at:
  2538 ;;		line 8 in file "C:\Programs\Microchip\xc8\v2.10\pic\sources\c99\common\sprcmul.c"
  2539 ;; Parameters:    Size  Location     Type
  2540 ;;  b               4   15[COMRAM] long 
  2541 ;;  a               4   19[COMRAM] long 
  2542 ;; Auto vars:     Size  Location     Type
  2543 ;;  prod            4   34[COMRAM] struct .
  2544 ;;  grs             4   29[COMRAM] unsigned long 
  2545 ;;  temp            2   38[COMRAM] struct .
  2546 ;;  bexp            1   33[COMRAM] unsigned char 
  2547 ;;  aexp            1   28[COMRAM] unsigned char 
  2548 ;;  sign            1   27[COMRAM] unsigned char 
  2549 ;; Return value:  Size  Location     Type
  2550 ;;                  4   15[COMRAM] unsigned char 
  2551 ;; Registers used:
  2552 ;;		wreg, status,2, status,0, prodl, prodh
  2553 ;; Tracked objects:
  2554 ;;		On entry : 0/0
  2555 ;;		On exit  : 0/0
  2556 ;;		Unchanged: 0/0
  2557 ;; Data sizes:     COMRAM   BANK0   BANK1   BANK2   BANK3   BANK4   BANK5
  2558 ;;      Params:         8       0       0       0       0       0       0
  2559 ;;      Locals:        13       0       0       0       0       0       0
  2560 ;;      Temps:          4       0       0       0       0       0       0
  2561 ;;      Totals:        25       0       0       0       0       0       0
  2562 ;;Total ram usage:       25 bytes
  2563 ;; Hardware stack levels used:    1
  2564 ;; Hardware stack levels required when called:    1
  2565 ;; This function calls:
  2566 ;;		Nothing
  2567 ;; This function is called by:
  2568 ;;		_uart_init
  2569 ;; This function uses a non-reentrant model
  2570 ;;
  2571                           
  2572                           	psect	text5
  2573  00086E                     __ptext5:
  2574                           	opt callstack 0
  2575  00086E                     ___flmul:
  2576                           	opt callstack 0
  2577  00086E  FFFF               	dw	65535	; assembler added errata NOP
  2578  000870  5013               	movf	(___flmul@b+3)^0,w,c
  2579  000872  0B80               	andlw	128
  2580  000874  6E1C               	movwf	___flmul@sign^0,c
  2581  000876  5013               	movf	(___flmul@b+3)^0,w,c
  2582  000878  2413               	addwf	(___flmul@b+3)^0,w,c
  2583  00087A  6E22               	movwf	___flmul@bexp^0,c
  2584  00087C  AE12               	btfss	(___flmul@b+2)^0,7,c
  2585  00087E  EF43  F004         	goto	u7841
  2586  000882  EF46  F004         	goto	u7840
  2587  000886                     u7841:
  2588  000886  FFFF               	dw	65535	; assembler added errata NOP
  2589  000888  EF48  F004         	goto	l7400
  2590  00088C                     u7840:
  2591  00088C  FFFF               	dw	65535	; assembler added errata NOP
  2592  00088E  8022               	bsf	___flmul@bexp^0,0,c
  2593  000890                     l7400:
  2594  000890  FFFF               	dw	65535	; assembler added errata NOP
  2595  000892  5022               	movf	___flmul@bexp^0,w,c
  2596  000894  B4D8               	btfsc	status,2,c
  2597  000896  EF4F  F004         	goto	u7851
  2598  00089A  EF52  F004         	goto	u7850
  2599  00089E                     u7851:
  2600  00089E  FFFF               	dw	65535	; assembler added errata NOP
  2601  0008A0  EF69  F004         	goto	l7408
  2602  0008A4                     u7850:
  2603  0008A4  FFFF               	dw	65535	; assembler added errata NOP
  2604  0008A6  2822               	incf	___flmul@bexp^0,w,c
  2605  0008A8  A4D8               	btfss	status,2,c
  2606  0008AA  EF59  F004         	goto	u7861
  2607  0008AE  EF5C  F004         	goto	u7860
  2608  0008B2                     u7861:
  2609  0008B2  FFFF               	dw	65535	; assembler added errata NOP
  2610  0008B4  EF65  F004         	goto	l7406
  2611  0008B8                     u7860:
  2612  0008B8  FFFF               	dw	65535	; assembler added errata NOP
  2613  0008BA  0E00               	movlw	0
  2614  0008BC  6E10               	movwf	___flmul@b^0,c
  2615  0008BE  0E00               	movlw	0
  2616  0008C0  6E11               	movwf	(___flmul@b+1)^0,c
  2617  0008C2  0E00               	movlw	0
  2618  0008C4  6E12               	movwf	(___flmul@b+2)^0,c
  2619  0008C6  0E00               	movlw	0
  2620  0008C8  6E13               	movwf	(___flmul@b+3)^0,c
  2621  0008CA                     l7406:
  2622  0008CA  FFFF               	dw	65535	; assembler added errata NOP
  2623  0008CC  8E12               	bsf	(___flmul@b+2)^0,7,c
  2624  0008CE  EF72  F004         	goto	l7410
  2625  0008D2                     l7408:
  2626  0008D2  FFFF               	dw	65535	; assembler added errata NOP
  2627  0008D4  0E00               	movlw	0
  2628  0008D6  6E10               	movwf	___flmul@b^0,c
  2629  0008D8  0E00               	movlw	0
  2630  0008DA  6E11               	movwf	(___flmul@b+1)^0,c
  2631  0008DC  0E00               	movlw	0
  2632  0008DE  6E12               	movwf	(___flmul@b+2)^0,c
  2633  0008E0  0E00               	movlw	0
  2634  0008E2  6E13               	movwf	(___flmul@b+3)^0,c
  2635  0008E4                     l7410:
  2636  0008E4  FFFF               	dw	65535	; assembler added errata NOP
  2637  0008E6  5017               	movf	(___flmul@a+3)^0,w,c
  2638  0008E8  0B80               	andlw	128
  2639  0008EA  1A1C               	xorwf	___flmul@sign^0,f,c
  2640  0008EC  5017               	movf	(___flmul@a+3)^0,w,c
  2641  0008EE  2417               	addwf	(___flmul@a+3)^0,w,c
  2642  0008F0  6E1D               	movwf	___flmul@aexp^0,c
  2643  0008F2  AE16               	btfss	(___flmul@a+2)^0,7,c
  2644  0008F4  EF7E  F004         	goto	u7871
  2645  0008F8  EF81  F004         	goto	u7870
  2646  0008FC                     u7871:
  2647  0008FC  FFFF               	dw	65535	; assembler added errata NOP
  2648  0008FE  EF83  F004         	goto	l7418
  2649  000902                     u7870:
  2650  000902  FFFF               	dw	65535	; assembler added errata NOP
  2651  000904  801D               	bsf	___flmul@aexp^0,0,c
  2652  000906                     l7418:
  2653  000906  FFFF               	dw	65535	; assembler added errata NOP
  2654  000908  501D               	movf	___flmul@aexp^0,w,c
  2655  00090A  B4D8               	btfsc	status,2,c
  2656  00090C  EF8A  F004         	goto	u7881
  2657  000910  EF8D  F004         	goto	u7880
  2658  000914                     u7881:
  2659  000914  FFFF               	dw	65535	; assembler added errata NOP
  2660  000916  EFA4  F004         	goto	l7426
  2661  00091A                     u7880:
  2662  00091A  FFFF               	dw	65535	; assembler added errata NOP
  2663  00091C  281D               	incf	___flmul@aexp^0,w,c
  2664  00091E  A4D8               	btfss	status,2,c
  2665  000920  EF94  F004         	goto	u7891
  2666  000924  EF97  F004         	goto	u7890
  2667  000928                     u7891:
  2668  000928  FFFF               	dw	65535	; assembler added errata NOP
  2669  00092A  EFA0  F004         	goto	l7424
  2670  00092E                     u7890:
  2671  00092E  FFFF               	dw	65535	; assembler added errata NOP
  2672  000930  0E00               	movlw	0
  2673  000932  6E14               	movwf	___flmul@a^0,c
  2674  000934  0E00               	movlw	0
  2675  000936  6E15               	movwf	(___flmul@a+1)^0,c
  2676  000938  0E00               	movlw	0
  2677  00093A  6E16               	movwf	(___flmul@a+2)^0,c
  2678  00093C  0E00               	movlw	0
  2679  00093E  6E17               	movwf	(___flmul@a+3)^0,c
  2680  000940                     l7424:
  2681  000940  FFFF               	dw	65535	; assembler added errata NOP
  2682  000942  8E16               	bsf	(___flmul@a+2)^0,7,c
  2683  000944  EFAD  F004         	goto	l1695
  2684  000948                     l7426:
  2685  000948  FFFF               	dw	65535	; assembler added errata NOP
  2686  00094A  0E00               	movlw	0
  2687  00094C  6E14               	movwf	___flmul@a^0,c
  2688  00094E  0E00               	movlw	0
  2689  000950  6E15               	movwf	(___flmul@a+1)^0,c
  2690  000952  0E00               	movlw	0
  2691  000954  6E16               	movwf	(___flmul@a+2)^0,c
  2692  000956  0E00               	movlw	0
  2693  000958  6E17               	movwf	(___flmul@a+3)^0,c
  2694  00095A                     l1695:
  2695  00095A  FFFF               	dw	65535	; assembler added errata NOP
  2696  00095C  501D               	movf	___flmul@aexp^0,w,c
  2697  00095E  B4D8               	btfsc	status,2,c
  2698  000960  EFB4  F004         	goto	u7901
  2699  000964  EFB7  F004         	goto	u7900
  2700  000968                     u7901:
  2701  000968  FFFF               	dw	65535	; assembler added errata NOP
  2702  00096A  EFC1  F004         	goto	l7430
  2703  00096E                     u7900:
  2704  00096E  FFFF               	dw	65535	; assembler added errata NOP
  2705  000970  5022               	movf	___flmul@bexp^0,w,c
  2706  000972  A4D8               	btfss	status,2,c
  2707  000974  EFBE  F004         	goto	u7911
  2708  000978  EFC1  F004         	goto	u7910
  2709  00097C                     u7911:
  2710  00097C  FFFF               	dw	65535	; assembler added errata NOP
  2711  00097E  EFCC  F004         	goto	l7434
  2712  000982                     u7910:
  2713  000982                     l7430:
  2714  000982  FFFF               	dw	65535	; assembler added errata NOP
  2715  000984  0E00               	movlw	0
  2716  000986  6E10               	movwf	?___flmul^0,c
  2717  000988  0E00               	movlw	0
  2718  00098A  6E11               	movwf	(?___flmul+1)^0,c
  2719  00098C  0E00               	movlw	0
  2720  00098E  6E12               	movwf	(?___flmul+2)^0,c
  2721  000990  0E00               	movlw	0
  2722  000992  6E13               	movwf	(?___flmul+3)^0,c
  2723  000994  EF86  F006         	goto	l1699
  2724  000998                     l7434:
  2725  000998  FFFF               	dw	65535	; assembler added errata NOP
  2726  00099A  5016               	movf	(___flmul@a+2)^0,w,c
  2727  00099C  0210               	mulwf	___flmul@b^0,c
  2728  00099E  CFF3 F027          	movff	prodl,___flmul@temp
  2729  0009A2  CFF4 F028          	movff	prodh,___flmul@temp+1
  2730  0009A6  5027               	movf	___flmul@temp^0,w,c
  2731  0009A8  6E1E               	movwf	___flmul@grs^0,c
  2732  0009AA  6A1F               	clrf	(___flmul@grs+1)^0,c
  2733  0009AC  6A20               	clrf	(___flmul@grs+2)^0,c
  2734  0009AE  6A21               	clrf	(___flmul@grs+3)^0,c
  2735  0009B0  5028               	movf	(___flmul@temp+1)^0,w,c
  2736  0009B2  6E23               	movwf	___flmul@prod^0,c
  2737  0009B4  6A24               	clrf	(___flmul@prod+1)^0,c
  2738  0009B6  6A25               	clrf	(___flmul@prod+2)^0,c
  2739  0009B8  6A26               	clrf	(___flmul@prod+3)^0,c
  2740  0009BA  5015               	movf	(___flmul@a+1)^0,w,c
  2741  0009BC  0211               	mulwf	(___flmul@b+1)^0,c
  2742  0009BE  CFF3 F027          	movff	prodl,___flmul@temp
  2743  0009C2  CFF4 F028          	movff	prodh,___flmul@temp+1
  2744  0009C6  5027               	movf	___flmul@temp^0,w,c
  2745  0009C8  261E               	addwf	___flmul@grs^0,f,c
  2746  0009CA  0E00               	movlw	0
  2747  0009CC  221F               	addwfc	(___flmul@grs+1)^0,f,c
  2748  0009CE  2220               	addwfc	(___flmul@grs+2)^0,f,c
  2749  0009D0  2221               	addwfc	(___flmul@grs+3)^0,f,c
  2750  0009D2  5028               	movf	(___flmul@temp+1)^0,w,c
  2751  0009D4  2623               	addwf	___flmul@prod^0,f,c
  2752  0009D6  0E00               	movlw	0
  2753  0009D8  2224               	addwfc	(___flmul@prod+1)^0,f,c
  2754  0009DA  2225               	addwfc	(___flmul@prod+2)^0,f,c
  2755  0009DC  2226               	addwfc	(___flmul@prod+3)^0,f,c
  2756  0009DE  5014               	movf	___flmul@a^0,w,c
  2757  0009E0  0212               	mulwf	(___flmul@b+2)^0,c
  2758  0009E2  CFF3 F027          	movff	prodl,___flmul@temp
  2759  0009E6  CFF4 F028          	movff	prodh,___flmul@temp+1
  2760  0009EA  5027               	movf	___flmul@temp^0,w,c
  2761  0009EC  261E               	addwf	___flmul@grs^0,f,c
  2762  0009EE  0E00               	movlw	0
  2763  0009F0  221F               	addwfc	(___flmul@grs+1)^0,f,c
  2764  0009F2  2220               	addwfc	(___flmul@grs+2)^0,f,c
  2765  0009F4  2221               	addwfc	(___flmul@grs+3)^0,f,c
  2766  0009F6  5028               	movf	(___flmul@temp+1)^0,w,c
  2767  0009F8  2623               	addwf	___flmul@prod^0,f,c
  2768  0009FA  0E00               	movlw	0
  2769  0009FC  2224               	addwfc	(___flmul@prod+1)^0,f,c
  2770  0009FE  2225               	addwfc	(___flmul@prod+2)^0,f,c
  2771  000A00  2226               	addwfc	(___flmul@prod+3)^0,f,c
  2772  000A02  C020  F021         	movff	___flmul@grs+2,___flmul@grs+3
  2773  000A06  C01F  F020         	movff	___flmul@grs+1,___flmul@grs+2
  2774  000A0A  C01E  F01F         	movff	___flmul@grs,___flmul@grs+1
  2775  000A0E  6A1E               	clrf	___flmul@grs^0,c
  2776  000A10  5014               	movf	___flmul@a^0,w,c
  2777  000A12  0211               	mulwf	(___flmul@b+1)^0,c
  2778  000A14  CFF3 F027          	movff	prodl,___flmul@temp
  2779  000A18  CFF4 F028          	movff	prodh,___flmul@temp+1
  2780  000A1C  5027               	movf	___flmul@temp^0,w,c
  2781  000A1E  261E               	addwf	___flmul@grs^0,f,c
  2782  000A20  5028               	movf	(___flmul@temp+1)^0,w,c
  2783  000A22  221F               	addwfc	(___flmul@grs+1)^0,f,c
  2784  000A24  0E00               	movlw	0
  2785  000A26  2220               	addwfc	(___flmul@grs+2)^0,f,c
  2786  000A28  0E00               	movlw	0
  2787  000A2A  2221               	addwfc	(___flmul@grs+3)^0,f,c
  2788  000A2C  5015               	movf	(___flmul@a+1)^0,w,c
  2789  000A2E  0210               	mulwf	___flmul@b^0,c
  2790  000A30  CFF3 F027          	movff	prodl,___flmul@temp
  2791  000A34  CFF4 F028          	movff	prodh,___flmul@temp+1
  2792  000A38  5027               	movf	___flmul@temp^0,w,c
  2793  000A3A  261E               	addwf	___flmul@grs^0,f,c
  2794  000A3C  5028               	movf	(___flmul@temp+1)^0,w,c
  2795  000A3E  221F               	addwfc	(___flmul@grs+1)^0,f,c
  2796  000A40  0E00               	movlw	0
  2797  000A42  2220               	addwfc	(___flmul@grs+2)^0,f,c
  2798  000A44  0E00               	movlw	0
  2799  000A46  2221               	addwfc	(___flmul@grs+3)^0,f,c
  2800  000A48  C020  F021         	movff	___flmul@grs+2,___flmul@grs+3
  2801  000A4C  C01F  F020         	movff	___flmul@grs+1,___flmul@grs+2
  2802  000A50  C01E  F01F         	movff	___flmul@grs,___flmul@grs+1
  2803  000A54  6A1E               	clrf	___flmul@grs^0,c
  2804  000A56  5014               	movf	___flmul@a^0,w,c
  2805  000A58  0210               	mulwf	___flmul@b^0,c
  2806  000A5A  CFF3 F027          	movff	prodl,___flmul@temp
  2807  000A5E  CFF4 F028          	movff	prodh,___flmul@temp+1
  2808  000A62  5027               	movf	___flmul@temp^0,w,c
  2809  000A64  261E               	addwf	___flmul@grs^0,f,c
  2810  000A66  5028               	movf	(___flmul@temp+1)^0,w,c
  2811  000A68  221F               	addwfc	(___flmul@grs+1)^0,f,c
  2812  000A6A  0E00               	movlw	0
  2813  000A6C  2220               	addwfc	(___flmul@grs+2)^0,f,c
  2814  000A6E  0E00               	movlw	0
  2815  000A70  2221               	addwfc	(___flmul@grs+3)^0,f,c
  2816  000A72  5016               	movf	(___flmul@a+2)^0,w,c
  2817  000A74  0211               	mulwf	(___flmul@b+1)^0,c
  2818  000A76  CFF3 F027          	movff	prodl,___flmul@temp
  2819  000A7A  CFF4 F028          	movff	prodh,___flmul@temp+1
  2820  000A7E  5027               	movf	___flmul@temp^0,w,c
  2821  000A80  2623               	addwf	___flmul@prod^0,f,c
  2822  000A82  5028               	movf	(___flmul@temp+1)^0,w,c
  2823  000A84  2224               	addwfc	(___flmul@prod+1)^0,f,c
  2824  000A86  0E00               	movlw	0
  2825  000A88  2225               	addwfc	(___flmul@prod+2)^0,f,c
  2826  000A8A  0E00               	movlw	0
  2827  000A8C  2226               	addwfc	(___flmul@prod+3)^0,f,c
  2828  000A8E  5015               	movf	(___flmul@a+1)^0,w,c
  2829  000A90  0212               	mulwf	(___flmul@b+2)^0,c
  2830  000A92  CFF3 F027          	movff	prodl,___flmul@temp
  2831  000A96  CFF4 F028          	movff	prodh,___flmul@temp+1
  2832  000A9A  5027               	movf	___flmul@temp^0,w,c
  2833  000A9C  2623               	addwf	___flmul@prod^0,f,c
  2834  000A9E  5028               	movf	(___flmul@temp+1)^0,w,c
  2835  000AA0  2224               	addwfc	(___flmul@prod+1)^0,f,c
  2836  000AA2  0E00               	movlw	0
  2837  000AA4  2225               	addwfc	(___flmul@prod+2)^0,f,c
  2838  000AA6  0E00               	movlw	0
  2839  000AA8  2226               	addwfc	(___flmul@prod+3)^0,f,c
  2840  000AAA  5016               	movf	(___flmul@a+2)^0,w,c
  2841  000AAC  0212               	mulwf	(___flmul@b+2)^0,c
  2842  000AAE  CFF3 F027          	movff	prodl,___flmul@temp
  2843  000AB2  CFF4 F028          	movff	prodh,___flmul@temp+1
  2844  000AB6  5027               	movf	___flmul@temp^0,w,c
  2845  000AB8  6E18               	movwf	??___flmul^0,c
  2846  000ABA  5028               	movf	(___flmul@temp+1)^0,w,c
  2847  000ABC  6E19               	movwf	(??___flmul+1)^0,c
  2848  000ABE  6A1A               	clrf	(??___flmul+2)^0,c
  2849  000AC0  6A1B               	clrf	(??___flmul+3)^0,c
  2850  000AC2  C01A  F01B         	movff	??___flmul+2,??___flmul+3
  2851  000AC6  C019  F01A         	movff	??___flmul+1,??___flmul+2
  2852  000ACA  C018  F019         	movff	??___flmul,??___flmul+1
  2853  000ACE  6A18               	clrf	??___flmul^0,c
  2854  000AD0  5018               	movf	??___flmul^0,w,c
  2855  000AD2  2623               	addwf	___flmul@prod^0,f,c
  2856  000AD4  5019               	movf	(??___flmul+1)^0,w,c
  2857  000AD6  2224               	addwfc	(___flmul@prod+1)^0,f,c
  2858  000AD8  501A               	movf	(??___flmul+2)^0,w,c
  2859  000ADA  2225               	addwfc	(___flmul@prod+2)^0,f,c
  2860  000ADC  501B               	movf	(??___flmul+3)^0,w,c
  2861  000ADE  2226               	addwfc	(___flmul@prod+3)^0,f,c
  2862  000AE0  C01E  F018         	movff	___flmul@grs,??___flmul
  2863  000AE4  C01F  F019         	movff	___flmul@grs+1,??___flmul+1
  2864  000AE8  C020  F01A         	movff	___flmul@grs+2,??___flmul+2
  2865  000AEC  C021  F01B         	movff	___flmul@grs+3,??___flmul+3
  2866  000AF0  0E19               	movlw	25
  2867  000AF2  EF81  F005         	goto	u7920
  2868  000AF6                     u7925:
  2869  000AF6  FFFF               	dw	65535	; assembler added errata NOP
  2870  000AF8  90D8               	bcf	status,0,c
  2871  000AFA  321B               	rrcf	(??___flmul+3)^0,f,c
  2872  000AFC  321A               	rrcf	(??___flmul+2)^0,f,c
  2873  000AFE  3219               	rrcf	(??___flmul+1)^0,f,c
  2874  000B00  3218               	rrcf	??___flmul^0,f,c
  2875  000B02                     u7920:
  2876  000B02  FFFF               	dw	65535	; assembler added errata NOP
  2877  000B04  2EE8               	decfsz	wreg,f,c
  2878  000B06  EF7B  F005         	goto	u7925
  2879  000B0A  5018               	movf	??___flmul^0,w,c
  2880  000B0C  2623               	addwf	___flmul@prod^0,f,c
  2881  000B0E  5019               	movf	(??___flmul+1)^0,w,c
  2882  000B10  2224               	addwfc	(___flmul@prod+1)^0,f,c
  2883  000B12  501A               	movf	(??___flmul+2)^0,w,c
  2884  000B14  2225               	addwfc	(___flmul@prod+2)^0,f,c
  2885  000B16  501B               	movf	(??___flmul+3)^0,w,c
  2886  000B18  2226               	addwfc	(___flmul@prod+3)^0,f,c
  2887  000B1A  C020  F021         	movff	___flmul@grs+2,___flmul@grs+3
  2888  000B1E  C01F  F020         	movff	___flmul@grs+1,___flmul@grs+2
  2889  000B22  C01E  F01F         	movff	___flmul@grs,___flmul@grs+1
  2890  000B26  6A1E               	clrf	___flmul@grs^0,c
  2891  000B28  501D               	movf	___flmul@aexp^0,w,c
  2892  000B2A  C022  F018         	movff	___flmul@bexp,??___flmul
  2893  000B2E  6A19               	clrf	(??___flmul+1)^0,c
  2894  000B30  2618               	addwf	??___flmul^0,f,c
  2895  000B32  0E00               	movlw	0
  2896  000B34  2219               	addwfc	(??___flmul+1)^0,f,c
  2897  000B36  0E82               	movlw	130
  2898  000B38  2418               	addwf	??___flmul^0,w,c
  2899  000B3A  6E27               	movwf	___flmul@temp^0,c
  2900  000B3C  0EFF               	movlw	255
  2901  000B3E  2019               	addwfc	(??___flmul+1)^0,w,c
  2902  000B40  6E28               	movwf	(___flmul@temp+1)^0,c
  2903  000B42  EFBC  F005         	goto	l7482
  2904  000B46                     l7476:
  2905  000B46  FFFF               	dw	65535	; assembler added errata NOP
  2906  000B48  90D8               	bcf	status,0,c
  2907  000B4A  3623               	rlcf	___flmul@prod^0,f,c
  2908  000B4C  3624               	rlcf	(___flmul@prod+1)^0,f,c
  2909  000B4E  3625               	rlcf	(___flmul@prod+2)^0,f,c
  2910  000B50  3626               	rlcf	(___flmul@prod+3)^0,f,c
  2911  000B52  AE21               	btfss	(___flmul@grs+3)^0,7,c
  2912  000B54  EFAE  F005         	goto	u7931
  2913  000B58  EFB1  F005         	goto	u7930
  2914  000B5C                     u7931:
  2915  000B5C  FFFF               	dw	65535	; assembler added errata NOP
  2916  000B5E  EFB3  F005         	goto	l1702
  2917  000B62                     u7930:
  2918  000B62  FFFF               	dw	65535	; assembler added errata NOP
  2919  000B64  8023               	bsf	___flmul@prod^0,0,c
  2920  000B66                     l1702:
  2921  000B66  FFFF               	dw	65535	; assembler added errata NOP
  2922  000B68  90D8               	bcf	status,0,c
  2923  000B6A  361E               	rlcf	___flmul@grs^0,f,c
  2924  000B6C  361F               	rlcf	(___flmul@grs+1)^0,f,c
  2925  000B6E  3620               	rlcf	(___flmul@grs+2)^0,f,c
  2926  000B70  3621               	rlcf	(___flmul@grs+3)^0,f,c
  2927  000B72  0627               	decf	___flmul@temp^0,f,c
  2928  000B74  A0D8               	btfss	status,0,c
  2929  000B76  0628               	decf	(___flmul@temp+1)^0,f,c
  2930  000B78                     l7482:
  2931  000B78  FFFF               	dw	65535	; assembler added errata NOP
  2932  000B7A  AE25               	btfss	(___flmul@prod+2)^0,7,c
  2933  000B7C  EFC2  F005         	goto	u7941
  2934  000B80  EFC5  F005         	goto	u7940
  2935  000B84                     u7941:
  2936  000B84  FFFF               	dw	65535	; assembler added errata NOP
  2937  000B86  EFA3  F005         	goto	l7476
  2938  000B8A                     u7940:
  2939  000B8A  FFFF               	dw	65535	; assembler added errata NOP
  2940  000B8C  0E00               	movlw	0
  2941  000B8E  6E1D               	movwf	___flmul@aexp^0,c
  2942  000B90  AE21               	btfss	(___flmul@grs+3)^0,7,c
  2943  000B92  EFCD  F005         	goto	u7951
  2944  000B96  EFD0  F005         	goto	u7950
  2945  000B9A                     u7951:
  2946  000B9A  FFFF               	dw	65535	; assembler added errata NOP
  2947  000B9C  EFFB  F005         	goto	l1704
  2948  000BA0                     u7950:
  2949  000BA0  FFFF               	dw	65535	; assembler added errata NOP
  2950  000BA2  0EFF               	movlw	255
  2951  000BA4  141E               	andwf	___flmul@grs^0,w,c
  2952  000BA6  6E18               	movwf	??___flmul^0,c
  2953  000BA8  0EFF               	movlw	255
  2954  000BAA  141F               	andwf	(___flmul@grs+1)^0,w,c
  2955  000BAC  6E19               	movwf	(??___flmul+1)^0,c
  2956  000BAE  0EFF               	movlw	255
  2957  000BB0  1420               	andwf	(___flmul@grs+2)^0,w,c
  2958  000BB2  6E1A               	movwf	(??___flmul+2)^0,c
  2959  000BB4  0E7F               	movlw	127
  2960  000BB6  1421               	andwf	(___flmul@grs+3)^0,w,c
  2961  000BB8  6E1B               	movwf	(??___flmul+3)^0,c
  2962  000BBA  5018               	movf	??___flmul^0,w,c
  2963  000BBC  1019               	iorwf	(??___flmul+1)^0,w,c
  2964  000BBE  101A               	iorwf	(??___flmul+2)^0,w,c
  2965  000BC0  101B               	iorwf	(??___flmul+3)^0,w,c
  2966  000BC2  B4D8               	btfsc	status,2,c
  2967  000BC4  EFE6  F005         	goto	u7961
  2968  000BC8  EFE9  F005         	goto	u7960
  2969  000BCC                     u7961:
  2970  000BCC  FFFF               	dw	65535	; assembler added errata NOP
  2971  000BCE  EFEF  F005         	goto	l1705
  2972  000BD2                     u7960:
  2973  000BD2  FFFF               	dw	65535	; assembler added errata NOP
  2974  000BD4                     l7490:
  2975  000BD4  FFFF               	dw	65535	; assembler added errata NOP
  2976  000BD6  0E01               	movlw	1
  2977  000BD8  6E1D               	movwf	___flmul@aexp^0,c
  2978  000BDA  EFFB  F005         	goto	l1704
  2979  000BDE                     l1705:
  2980  000BDE  FFFF               	dw	65535	; assembler added errata NOP
  2981  000BE0  A023               	btfss	___flmul@prod^0,0,c
  2982  000BE2  EFF5  F005         	goto	u7971
  2983  000BE6  EFF8  F005         	goto	u7970
  2984  000BEA                     u7971:
  2985  000BEA  FFFF               	dw	65535	; assembler added errata NOP
  2986  000BEC  EFFB  F005         	goto	l1704
  2987  000BF0                     u7970:
  2988  000BF0  FFFF               	dw	65535	; assembler added errata NOP
  2989  000BF2  EFEA  F005         	goto	l7490
  2990  000BF6                     l1704:
  2991  000BF6  FFFF               	dw	65535	; assembler added errata NOP
  2992  000BF8  501D               	movf	___flmul@aexp^0,w,c
  2993  000BFA  B4D8               	btfsc	status,2,c
  2994  000BFC  EF02  F006         	goto	u7981
  2995  000C00  EF05  F006         	goto	u7980
  2996  000C04                     u7981:
  2997  000C04  FFFF               	dw	65535	; assembler added errata NOP
  2998  000C06  EF2C  F006         	goto	l7502
  2999  000C0A                     u7980:
  3000  000C0A  FFFF               	dw	65535	; assembler added errata NOP
  3001  000C0C  0E01               	movlw	1
  3002  000C0E  2623               	addwf	___flmul@prod^0,f,c
  3003  000C10  0E00               	movlw	0
  3004  000C12  2224               	addwfc	(___flmul@prod+1)^0,f,c
  3005  000C14  2225               	addwfc	(___flmul@prod+2)^0,f,c
  3006  000C16  2226               	addwfc	(___flmul@prod+3)^0,f,c
  3007  000C18  A026               	btfss	(___flmul@prod+3)^0,0,c
  3008  000C1A  EF11  F006         	goto	u7991
  3009  000C1E  EF14  F006         	goto	u7990
  3010  000C22                     u7991:
  3011  000C22  FFFF               	dw	65535	; assembler added errata NOP
  3012  000C24  EF2C  F006         	goto	l7502
  3013  000C28                     u7990:
  3014  000C28  FFFF               	dw	65535	; assembler added errata NOP
  3015  000C2A  C023  F018         	movff	___flmul@prod,??___flmul
  3016  000C2E  C024  F019         	movff	___flmul@prod+1,??___flmul+1
  3017  000C32  C025  F01A         	movff	___flmul@prod+2,??___flmul+2
  3018  000C36  C026  F01B         	movff	___flmul@prod+3,??___flmul+3
  3019  000C3A  341B               	rlcf	(??___flmul+3)^0,w,c
  3020  000C3C  321B               	rrcf	(??___flmul+3)^0,f,c
  3021  000C3E  321A               	rrcf	(??___flmul+2)^0,f,c
  3022  000C40  3219               	rrcf	(??___flmul+1)^0,f,c
  3023  000C42  3218               	rrcf	??___flmul^0,f,c
  3024  000C44  C018  F023         	movff	??___flmul,___flmul@prod
  3025  000C48  C019  F024         	movff	??___flmul+1,___flmul@prod+1
  3026  000C4C  C01A  F025         	movff	??___flmul+2,___flmul@prod+2
  3027  000C50  C01B  F026         	movff	??___flmul+3,___flmul@prod+3
  3028  000C54  4A27               	infsnz	___flmul@temp^0,f,c
  3029  000C56  2A28               	incf	(___flmul@temp+1)^0,f,c
  3030  000C58                     l7502:
  3031  000C58  FFFF               	dw	65535	; assembler added errata NOP
  3032  000C5A  BE28               	btfsc	(___flmul@temp+1)^0,7,c
  3033  000C5C  EF38  F006         	goto	u8001
  3034  000C60  5028               	movf	(___flmul@temp+1)^0,w,c
  3035  000C62  E109               	bnz	u8000
  3036  000C64  2827               	incf	___flmul@temp^0,w,c
  3037  000C66  A0D8               	btfss	status,0,c
  3038  000C68  EF38  F006         	goto	u8001
  3039  000C6C  EF3B  F006         	goto	u8000
  3040  000C70                     u8001:
  3041  000C70  FFFF               	dw	65535	; assembler added errata NOP
  3042  000C72  EF46  F006         	goto	l7506
  3043  000C76                     u8000:
  3044  000C76  FFFF               	dw	65535	; assembler added errata NOP
  3045  000C78  0E00               	movlw	0
  3046  000C7A  6E23               	movwf	___flmul@prod^0,c
  3047  000C7C  0E00               	movlw	0
  3048  000C7E  6E24               	movwf	(___flmul@prod+1)^0,c
  3049  000C80  0E80               	movlw	128
  3050  000C82  6E25               	movwf	(___flmul@prod+2)^0,c
  3051  000C84  0E7F               	movlw	127
  3052  000C86  6E26               	movwf	(___flmul@prod+3)^0,c
  3053  000C88  EF7B  F006         	goto	l7518
  3054  000C8C                     l7506:
  3055  000C8C  FFFF               	dw	65535	; assembler added errata NOP
  3056  000C8E  BE28               	btfsc	(___flmul@temp+1)^0,7,c
  3057  000C90  EF55  F006         	goto	u8010
  3058  000C94  5028               	movf	(___flmul@temp+1)^0,w,c
  3059  000C96  E106               	bnz	u8011
  3060  000C98  0427               	decf	___flmul@temp^0,w,c
  3061  000C9A  B0D8               	btfsc	status,0,c
  3062  000C9C  EF52  F006         	goto	u8011
  3063  000CA0  EF55  F006         	goto	u8010
  3064  000CA4                     u8011:
  3065  000CA4  FFFF               	dw	65535	; assembler added errata NOP
  3066  000CA6  EF62  F006         	goto	l1712
  3067  000CAA                     u8010:
  3068  000CAA  FFFF               	dw	65535	; assembler added errata NOP
  3069  000CAC  0E00               	movlw	0
  3070  000CAE  6E23               	movwf	___flmul@prod^0,c
  3071  000CB0  0E00               	movlw	0
  3072  000CB2  6E24               	movwf	(___flmul@prod+1)^0,c
  3073  000CB4  0E00               	movlw	0
  3074  000CB6  6E25               	movwf	(___flmul@prod+2)^0,c
  3075  000CB8  0E00               	movlw	0
  3076  000CBA  6E26               	movwf	(___flmul@prod+3)^0,c
  3077  000CBC  0E00               	movlw	0
  3078  000CBE  6E1C               	movwf	___flmul@sign^0,c
  3079  000CC0  EF7B  F006         	goto	l7518
  3080  000CC4                     l1712:
  3081  000CC4  FFFF               	dw	65535	; assembler added errata NOP
  3082  000CC6  C027  F022         	movff	___flmul@temp,___flmul@bexp
  3083  000CCA  0EFF               	movlw	255
  3084  000CCC  1623               	andwf	___flmul@prod^0,f,c
  3085  000CCE  0EFF               	movlw	255
  3086  000CD0  1624               	andwf	(___flmul@prod+1)^0,f,c
  3087  000CD2  0E7F               	movlw	127
  3088  000CD4  1625               	andwf	(___flmul@prod+2)^0,f,c
  3089  000CD6  0E00               	movlw	0
  3090  000CD8  1626               	andwf	(___flmul@prod+3)^0,f,c
  3091  000CDA  A022               	btfss	___flmul@bexp^0,0,c
  3092  000CDC  EF72  F006         	goto	u8021
  3093  000CE0  EF75  F006         	goto	u8020
  3094  000CE4                     u8021:
  3095  000CE4  FFFF               	dw	65535	; assembler added errata NOP
  3096  000CE6  EF77  F006         	goto	l7516
  3097  000CEA                     u8020:
  3098  000CEA  FFFF               	dw	65535	; assembler added errata NOP
  3099  000CEC  8E25               	bsf	(___flmul@prod+2)^0,7,c
  3100  000CEE                     l7516:
  3101  000CEE  FFFF               	dw	65535	; assembler added errata NOP
  3102  000CF0  90D8               	bcf	status,0,c
  3103  000CF2  3022               	rrcf	___flmul@bexp^0,w,c
  3104  000CF4  6E26               	movwf	(___flmul@prod+3)^0,c
  3105  000CF6                     l7518:
  3106  000CF6  FFFF               	dw	65535	; assembler added errata NOP
  3107  000CF8  501C               	movf	___flmul@sign^0,w,c
  3108  000CFA  1226               	iorwf	(___flmul@prod+3)^0,f,c
  3109  000CFC  C023  F010         	movff	___flmul@prod,?___flmul
  3110  000D00  C024  F011         	movff	___flmul@prod+1,?___flmul+1
  3111  000D04  C025  F012         	movff	___flmul@prod+2,?___flmul+2
  3112  000D08  C026  F013         	movff	___flmul@prod+3,?___flmul+3
  3113  000D0C                     l1699:
  3114  000D0C  FFFF               	dw	65535	; assembler added errata NOP
  3115  000D0E  0012               	return		;funcret
  3116  000D10  FFFF               	dw	65535	; errata NOP
  3117  000D12                     __end_of___flmul:
  3118                           	opt callstack 0
  3119                           
  3120 ;; *************** function ___fldiv *****************
  3121 ;; Defined at:
  3122 ;;		line 11 in file "C:\Programs\Microchip\xc8\v2.10\pic\sources\c99\common\sprcdiv.c"
  3123 ;; Parameters:    Size  Location     Type
  3124 ;;  b               4   40[COMRAM] unsigned char 
  3125 ;;  a               4   44[COMRAM] unsigned char 
  3126 ;; Auto vars:     Size  Location     Type
  3127 ;;  grs             4   59[COMRAM] unsigned long 
  3128 ;;  rem             4   52[COMRAM] unsigned long 
  3129 ;;  new_exp         2   57[COMRAM] short 
  3130 ;;  aexp            1   64[COMRAM] unsigned char 
  3131 ;;  bexp            1   63[COMRAM] unsigned char 
  3132 ;;  sign            1   56[COMRAM] unsigned char 
  3133 ;; Return value:  Size  Location     Type
  3134 ;;                  4   40[COMRAM] unsigned char 
  3135 ;; Registers used:
  3136 ;;		wreg, status,2, status,0
  3137 ;; Tracked objects:
  3138 ;;		On entry : 0/0
  3139 ;;		On exit  : 0/0
  3140 ;;		Unchanged: 0/0
  3141 ;; Data sizes:     COMRAM   BANK0   BANK1   BANK2   BANK3   BANK4   BANK5
  3142 ;;      Params:         8       0       0       0       0       0       0
  3143 ;;      Locals:        13       0       0       0       0       0       0
  3144 ;;      Temps:          4       0       0       0       0       0       0
  3145 ;;      Totals:        25       0       0       0       0       0       0
  3146 ;;Total ram usage:       25 bytes
  3147 ;; Hardware stack levels used:    1
  3148 ;; Hardware stack levels required when called:    1
  3149 ;; This function calls:
  3150 ;;		Nothing
  3151 ;; This function is called by:
  3152 ;;		_uart_init
  3153 ;; This function uses a non-reentrant model
  3154 ;;
  3155                           
  3156                           	psect	text6
  3157  000D12                     __ptext6:
  3158                           	opt callstack 0
  3159  000D12                     ___fldiv:
  3160                           	opt callstack 0
  3161  000D12  FFFF               	dw	65535	; assembler added errata NOP
  3162  000D14  502C               	movf	(___fldiv@b+3)^0,w,c
  3163  000D16  0B80               	andlw	128
  3164  000D18  6E39               	movwf	___fldiv@sign^0,c
  3165  000D1A  502C               	movf	(___fldiv@b+3)^0,w,c
  3166  000D1C  242C               	addwf	(___fldiv@b+3)^0,w,c
  3167  000D1E  6E40               	movwf	___fldiv@bexp^0,c
  3168  000D20  AE2B               	btfss	(___fldiv@b+2)^0,7,c
  3169  000D22  EF95  F006         	goto	u7611
  3170  000D26  EF98  F006         	goto	u7610
  3171  000D2A                     u7611:
  3172  000D2A  FFFF               	dw	65535	; assembler added errata NOP
  3173  000D2C  EF9A  F006         	goto	l7262
  3174  000D30                     u7610:
  3175  000D30  FFFF               	dw	65535	; assembler added errata NOP
  3176  000D32  8040               	bsf	___fldiv@bexp^0,0,c
  3177  000D34                     l7262:
  3178  000D34  FFFF               	dw	65535	; assembler added errata NOP
  3179  000D36  5040               	movf	___fldiv@bexp^0,w,c
  3180  000D38  B4D8               	btfsc	status,2,c
  3181  000D3A  EFA1  F006         	goto	u7621
  3182  000D3E  EFA4  F006         	goto	u7620
  3183  000D42                     u7621:
  3184  000D42  FFFF               	dw	65535	; assembler added errata NOP
  3185  000D44  EFBD  F006         	goto	l7272
  3186  000D48                     u7620:
  3187  000D48  FFFF               	dw	65535	; assembler added errata NOP
  3188  000D4A  2840               	incf	___fldiv@bexp^0,w,c
  3189  000D4C  A4D8               	btfss	status,2,c
  3190  000D4E  EFAB  F006         	goto	u7631
  3191  000D52  EFAE  F006         	goto	u7630
  3192  000D56                     u7631:
  3193  000D56  FFFF               	dw	65535	; assembler added errata NOP
  3194  000D58  EFB7  F006         	goto	l7268
  3195  000D5C                     u7630:
  3196  000D5C  FFFF               	dw	65535	; assembler added errata NOP
  3197  000D5E  0E00               	movlw	0
  3198  000D60  6E29               	movwf	___fldiv@b^0,c
  3199  000D62  0E00               	movlw	0
  3200  000D64  6E2A               	movwf	(___fldiv@b+1)^0,c
  3201  000D66  0E00               	movlw	0
  3202  000D68  6E2B               	movwf	(___fldiv@b+2)^0,c
  3203  000D6A  0E00               	movlw	0
  3204  000D6C  6E2C               	movwf	(___fldiv@b+3)^0,c
  3205  000D6E                     l7268:
  3206  000D6E  FFFF               	dw	65535	; assembler added errata NOP
  3207  000D70  8E2B               	bsf	(___fldiv@b+2)^0,7,c
  3208  000D72  0E00               	movlw	0
  3209  000D74  6E2C               	movwf	(___fldiv@b+3)^0,c
  3210  000D76  EFC6  F006         	goto	l7274
  3211  000D7A                     l7272:
  3212  000D7A  FFFF               	dw	65535	; assembler added errata NOP
  3213  000D7C  0E00               	movlw	0
  3214  000D7E  6E29               	movwf	___fldiv@b^0,c
  3215  000D80  0E00               	movlw	0
  3216  000D82  6E2A               	movwf	(___fldiv@b+1)^0,c
  3217  000D84  0E00               	movlw	0
  3218  000D86  6E2B               	movwf	(___fldiv@b+2)^0,c
  3219  000D88  0E00               	movlw	0
  3220  000D8A  6E2C               	movwf	(___fldiv@b+3)^0,c
  3221  000D8C                     l7274:
  3222  000D8C  FFFF               	dw	65535	; assembler added errata NOP
  3223  000D8E  5030               	movf	(___fldiv@a+3)^0,w,c
  3224  000D90  0B80               	andlw	128
  3225  000D92  1A39               	xorwf	___fldiv@sign^0,f,c
  3226  000D94  5030               	movf	(___fldiv@a+3)^0,w,c
  3227  000D96  2430               	addwf	(___fldiv@a+3)^0,w,c
  3228  000D98  6E41               	movwf	___fldiv@aexp^0,c
  3229  000D9A  AE2F               	btfss	(___fldiv@a+2)^0,7,c
  3230  000D9C  EFD2  F006         	goto	u7641
  3231  000DA0  EFD5  F006         	goto	u7640
  3232  000DA4                     u7641:
  3233  000DA4  FFFF               	dw	65535	; assembler added errata NOP
  3234  000DA6  EFD7  F006         	goto	l7282
  3235  000DAA                     u7640:
  3236  000DAA  FFFF               	dw	65535	; assembler added errata NOP
  3237  000DAC  8041               	bsf	___fldiv@aexp^0,0,c
  3238  000DAE                     l7282:
  3239  000DAE  FFFF               	dw	65535	; assembler added errata NOP
  3240  000DB0  5041               	movf	___fldiv@aexp^0,w,c
  3241  000DB2  B4D8               	btfsc	status,2,c
  3242  000DB4  EFDE  F006         	goto	u7651
  3243  000DB8  EFE1  F006         	goto	u7650
  3244  000DBC                     u7651:
  3245  000DBC  FFFF               	dw	65535	; assembler added errata NOP
  3246  000DBE  EFFA  F006         	goto	l7292
  3247  000DC2                     u7650:
  3248  000DC2  FFFF               	dw	65535	; assembler added errata NOP
  3249  000DC4  2841               	incf	___fldiv@aexp^0,w,c
  3250  000DC6  A4D8               	btfss	status,2,c
  3251  000DC8  EFE8  F006         	goto	u7661
  3252  000DCC  EFEB  F006         	goto	u7660
  3253  000DD0                     u7661:
  3254  000DD0  FFFF               	dw	65535	; assembler added errata NOP
  3255  000DD2  EFF4  F006         	goto	l7288
  3256  000DD6                     u7660:
  3257  000DD6  FFFF               	dw	65535	; assembler added errata NOP
  3258  000DD8  0E00               	movlw	0
  3259  000DDA  6E2D               	movwf	___fldiv@a^0,c
  3260  000DDC  0E00               	movlw	0
  3261  000DDE  6E2E               	movwf	(___fldiv@a+1)^0,c
  3262  000DE0  0E00               	movlw	0
  3263  000DE2  6E2F               	movwf	(___fldiv@a+2)^0,c
  3264  000DE4  0E00               	movlw	0
  3265  000DE6  6E30               	movwf	(___fldiv@a+3)^0,c
  3266  000DE8                     l7288:
  3267  000DE8  FFFF               	dw	65535	; assembler added errata NOP
  3268  000DEA  8E2F               	bsf	(___fldiv@a+2)^0,7,c
  3269  000DEC  0E00               	movlw	0
  3270  000DEE  6E30               	movwf	(___fldiv@a+3)^0,c
  3271  000DF0  EF03  F007         	goto	l7294
  3272  000DF4                     l7292:
  3273  000DF4  FFFF               	dw	65535	; assembler added errata NOP
  3274  000DF6  0E00               	movlw	0
  3275  000DF8  6E2D               	movwf	___fldiv@a^0,c
  3276  000DFA  0E00               	movlw	0
  3277  000DFC  6E2E               	movwf	(___fldiv@a+1)^0,c
  3278  000DFE  0E00               	movlw	0
  3279  000E00  6E2F               	movwf	(___fldiv@a+2)^0,c
  3280  000E02  0E00               	movlw	0
  3281  000E04  6E30               	movwf	(___fldiv@a+3)^0,c
  3282  000E06                     l7294:
  3283  000E06  FFFF               	dw	65535	; assembler added errata NOP
  3284  000E08  502D               	movf	___fldiv@a^0,w,c
  3285  000E0A  102E               	iorwf	(___fldiv@a+1)^0,w,c
  3286  000E0C  102F               	iorwf	(___fldiv@a+2)^0,w,c
  3287  000E0E  1030               	iorwf	(___fldiv@a+3)^0,w,c
  3288  000E10  A4D8               	btfss	status,2,c
  3289  000E12  EF0D  F007         	goto	u7671
  3290  000E16  EF10  F007         	goto	u7670
  3291  000E1A                     u7671:
  3292  000E1A  FFFF               	dw	65535	; assembler added errata NOP
  3293  000E1C  EF2A  F007         	goto	l7306
  3294  000E20                     u7670:
  3295  000E20  FFFF               	dw	65535	; assembler added errata NOP
  3296  000E22  0E00               	movlw	0
  3297  000E24  6E29               	movwf	___fldiv@b^0,c
  3298  000E26  0E00               	movlw	0
  3299  000E28  6E2A               	movwf	(___fldiv@b+1)^0,c
  3300  000E2A  0E00               	movlw	0
  3301  000E2C  6E2B               	movwf	(___fldiv@b+2)^0,c
  3302  000E2E  0E00               	movlw	0
  3303  000E30  6E2C               	movwf	(___fldiv@b+3)^0,c
  3304  000E32  0E80               	movlw	128
  3305  000E34  122B               	iorwf	(___fldiv@b+2)^0,f,c
  3306  000E36  0E7F               	movlw	127
  3307  000E38  122C               	iorwf	(___fldiv@b+3)^0,f,c
  3308  000E3A                     l7300:
  3309  000E3A  FFFF               	dw	65535	; assembler added errata NOP
  3310  000E3C  5039               	movf	___fldiv@sign^0,w,c
  3311  000E3E  122C               	iorwf	(___fldiv@b+3)^0,f,c
  3312  000E40  C029  F029         	movff	___fldiv@b,?___fldiv
  3313  000E44  C02A  F02A         	movff	___fldiv@b+1,?___fldiv+1
  3314  000E48  C02B  F02B         	movff	___fldiv@b+2,?___fldiv+2
  3315  000E4C  C02C  F02C         	movff	___fldiv@b+3,?___fldiv+3
  3316  000E50  EF9F  F008         	goto	l1663
  3317  000E54                     l7306:
  3318  000E54  FFFF               	dw	65535	; assembler added errata NOP
  3319  000E56  5040               	movf	___fldiv@bexp^0,w,c
  3320  000E58  A4D8               	btfss	status,2,c
  3321  000E5A  EF31  F007         	goto	u7681
  3322  000E5E  EF34  F007         	goto	u7680
  3323  000E62                     u7681:
  3324  000E62  FFFF               	dw	65535	; assembler added errata NOP
  3325  000E64  EF3F  F007         	goto	l7314
  3326  000E68                     u7680:
  3327  000E68  FFFF               	dw	65535	; assembler added errata NOP
  3328  000E6A  0E00               	movlw	0
  3329  000E6C  6E29               	movwf	?___fldiv^0,c
  3330  000E6E  0E00               	movlw	0
  3331  000E70  6E2A               	movwf	(?___fldiv+1)^0,c
  3332  000E72  0E00               	movlw	0
  3333  000E74  6E2B               	movwf	(?___fldiv+2)^0,c
  3334  000E76  0E00               	movlw	0
  3335  000E78  6E2C               	movwf	(?___fldiv+3)^0,c
  3336  000E7A  EF9F  F008         	goto	l1663
  3337  000E7E                     l7314:
  3338  000E7E  FFFF               	dw	65535	; assembler added errata NOP
  3339  000E80  5041               	movf	___fldiv@aexp^0,w,c
  3340  000E82  C040  F031         	movff	___fldiv@bexp,??___fldiv
  3341  000E86  6A32               	clrf	(??___fldiv+1)^0,c
  3342  000E88  5E31               	subwf	??___fldiv^0,f,c
  3343  000E8A  0E00               	movlw	0
  3344  000E8C  5A32               	subwfb	(??___fldiv+1)^0,f,c
  3345  000E8E  0E7F               	movlw	127
  3346  000E90  2431               	addwf	??___fldiv^0,w,c
  3347  000E92  6E3A               	movwf	___fldiv@new_exp^0,c
  3348  000E94  0E00               	movlw	0
  3349  000E96  2032               	addwfc	(??___fldiv+1)^0,w,c
  3350  000E98  6E3B               	movwf	(___fldiv@new_exp+1)^0,c
  3351  000E9A  C029  F035         	movff	___fldiv@b,___fldiv@rem
  3352  000E9E  C02A  F036         	movff	___fldiv@b+1,___fldiv@rem+1
  3353  000EA2  C02B  F037         	movff	___fldiv@b+2,___fldiv@rem+2
  3354  000EA6  C02C  F038         	movff	___fldiv@b+3,___fldiv@rem+3
  3355  000EAA  0E00               	movlw	0
  3356  000EAC  6E29               	movwf	___fldiv@b^0,c
  3357  000EAE  0E00               	movlw	0
  3358  000EB0  6E2A               	movwf	(___fldiv@b+1)^0,c
  3359  000EB2  0E00               	movlw	0
  3360  000EB4  6E2B               	movwf	(___fldiv@b+2)^0,c
  3361  000EB6  0E00               	movlw	0
  3362  000EB8  6E2C               	movwf	(___fldiv@b+3)^0,c
  3363  000EBA  0E00               	movlw	0
  3364  000EBC  6E3C               	movwf	___fldiv@grs^0,c
  3365  000EBE  0E00               	movlw	0
  3366  000EC0  6E3D               	movwf	(___fldiv@grs+1)^0,c
  3367  000EC2  0E00               	movlw	0
  3368  000EC4  6E3E               	movwf	(___fldiv@grs+2)^0,c
  3369  000EC6  0E00               	movlw	0
  3370  000EC8  6E3F               	movwf	(___fldiv@grs+3)^0,c
  3371  000ECA  0E00               	movlw	0
  3372  000ECC  6E41               	movwf	___fldiv@aexp^0,c
  3373  000ECE  EFAB  F007         	goto	l1665
  3374  000ED2                     l7324:
  3375  000ED2  FFFF               	dw	65535	; assembler added errata NOP
  3376  000ED4  5041               	movf	___fldiv@aexp^0,w,c
  3377  000ED6  B4D8               	btfsc	status,2,c
  3378  000ED8  EF70  F007         	goto	u7691
  3379  000EDC  EF73  F007         	goto	u7690
  3380  000EE0                     u7691:
  3381  000EE0  FFFF               	dw	65535	; assembler added errata NOP
  3382  000EE2  EF8E  F007         	goto	l7332
  3383  000EE6                     u7690:
  3384  000EE6  FFFF               	dw	65535	; assembler added errata NOP
  3385  000EE8  90D8               	bcf	status,0,c
  3386  000EEA  3635               	rlcf	___fldiv@rem^0,f,c
  3387  000EEC  3636               	rlcf	(___fldiv@rem+1)^0,f,c
  3388  000EEE  3637               	rlcf	(___fldiv@rem+2)^0,f,c
  3389  000EF0  3638               	rlcf	(___fldiv@rem+3)^0,f,c
  3390  000EF2  90D8               	bcf	status,0,c
  3391  000EF4  3629               	rlcf	___fldiv@b^0,f,c
  3392  000EF6  362A               	rlcf	(___fldiv@b+1)^0,f,c
  3393  000EF8  362B               	rlcf	(___fldiv@b+2)^0,f,c
  3394  000EFA  362C               	rlcf	(___fldiv@b+3)^0,f,c
  3395  000EFC  AE3F               	btfss	(___fldiv@grs+3)^0,7,c
  3396  000EFE  EF83  F007         	goto	u7701
  3397  000F02  EF86  F007         	goto	u7700
  3398  000F06                     u7701:
  3399  000F06  FFFF               	dw	65535	; assembler added errata NOP
  3400  000F08  EF88  F007         	goto	l1668
  3401  000F0C                     u7700:
  3402  000F0C  FFFF               	dw	65535	; assembler added errata NOP
  3403  000F0E  8029               	bsf	___fldiv@b^0,0,c
  3404  000F10                     l1668:
  3405  000F10  FFFF               	dw	65535	; assembler added errata NOP
  3406  000F12  90D8               	bcf	status,0,c
  3407  000F14  363C               	rlcf	___fldiv@grs^0,f,c
  3408  000F16  363D               	rlcf	(___fldiv@grs+1)^0,f,c
  3409  000F18  363E               	rlcf	(___fldiv@grs+2)^0,f,c
  3410  000F1A  363F               	rlcf	(___fldiv@grs+3)^0,f,c
  3411  000F1C                     l7332:
  3412  000F1C  FFFF               	dw	65535	; assembler added errata NOP
  3413  000F1E  502D               	movf	___fldiv@a^0,w,c
  3414  000F20  5C35               	subwf	___fldiv@rem^0,w,c
  3415  000F22  502E               	movf	(___fldiv@a+1)^0,w,c
  3416  000F24  5836               	subwfb	(___fldiv@rem+1)^0,w,c
  3417  000F26  502F               	movf	(___fldiv@a+2)^0,w,c
  3418  000F28  5837               	subwfb	(___fldiv@rem+2)^0,w,c
  3419  000F2A  5030               	movf	(___fldiv@a+3)^0,w,c
  3420  000F2C  5838               	subwfb	(___fldiv@rem+3)^0,w,c
  3421  000F2E  A0D8               	btfss	status,0,c
  3422  000F30  EF9C  F007         	goto	u7711
  3423  000F34  EF9F  F007         	goto	u7710
  3424  000F38                     u7711:
  3425  000F38  FFFF               	dw	65535	; assembler added errata NOP
  3426  000F3A  EFA9  F007         	goto	l7338
  3427  000F3E                     u7710:
  3428  000F3E  FFFF               	dw	65535	; assembler added errata NOP
  3429  000F40  8C3F               	bsf	(___fldiv@grs+3)^0,6,c
  3430  000F42  502D               	movf	___fldiv@a^0,w,c
  3431  000F44  5E35               	subwf	___fldiv@rem^0,f,c
  3432  000F46  502E               	movf	(___fldiv@a+1)^0,w,c
  3433  000F48  5A36               	subwfb	(___fldiv@rem+1)^0,f,c
  3434  000F4A  502F               	movf	(___fldiv@a+2)^0,w,c
  3435  000F4C  5A37               	subwfb	(___fldiv@rem+2)^0,f,c
  3436  000F4E  5030               	movf	(___fldiv@a+3)^0,w,c
  3437  000F50  5A38               	subwfb	(___fldiv@rem+3)^0,f,c
  3438  000F52                     l7338:
  3439  000F52  FFFF               	dw	65535	; assembler added errata NOP
  3440  000F54  2A41               	incf	___fldiv@aexp^0,f,c
  3441  000F56                     l1665:
  3442  000F56  FFFF               	dw	65535	; assembler added errata NOP
  3443  000F58  0E19               	movlw	25
  3444  000F5A  6441               	cpfsgt	___fldiv@aexp^0,c
  3445  000F5C  EFB2  F007         	goto	u7721
  3446  000F60  EFB5  F007         	goto	u7720
  3447  000F64                     u7721:
  3448  000F64  FFFF               	dw	65535	; assembler added errata NOP
  3449  000F66  EF69  F007         	goto	l7324
  3450  000F6A                     u7720:
  3451  000F6A  FFFF               	dw	65535	; assembler added errata NOP
  3452  000F6C  5035               	movf	___fldiv@rem^0,w,c
  3453  000F6E  1036               	iorwf	(___fldiv@rem+1)^0,w,c
  3454  000F70  1037               	iorwf	(___fldiv@rem+2)^0,w,c
  3455  000F72  1038               	iorwf	(___fldiv@rem+3)^0,w,c
  3456  000F74  B4D8               	btfsc	status,2,c
  3457  000F76  EFBF  F007         	goto	u7731
  3458  000F7A  EFC2  F007         	goto	u7730
  3459  000F7E                     u7731:
  3460  000F7E  FFFF               	dw	65535	; assembler added errata NOP
  3461  000F80  EFDF  F007         	goto	l7350
  3462  000F84                     u7730:
  3463  000F84  FFFF               	dw	65535	; assembler added errata NOP
  3464  000F86  803C               	bsf	___fldiv@grs^0,0,c
  3465  000F88  EFDF  F007         	goto	l7350
  3466  000F8C                     l7344:
  3467  000F8C  FFFF               	dw	65535	; assembler added errata NOP
  3468  000F8E  90D8               	bcf	status,0,c
  3469  000F90  3629               	rlcf	___fldiv@b^0,f,c
  3470  000F92  362A               	rlcf	(___fldiv@b+1)^0,f,c
  3471  000F94  362B               	rlcf	(___fldiv@b+2)^0,f,c
  3472  000F96  362C               	rlcf	(___fldiv@b+3)^0,f,c
  3473  000F98  AE3F               	btfss	(___fldiv@grs+3)^0,7,c
  3474  000F9A  EFD1  F007         	goto	u7741
  3475  000F9E  EFD4  F007         	goto	u7740
  3476  000FA2                     u7741:
  3477  000FA2  FFFF               	dw	65535	; assembler added errata NOP
  3478  000FA4  EFD6  F007         	goto	l1674
  3479  000FA8                     u7740:
  3480  000FA8  FFFF               	dw	65535	; assembler added errata NOP
  3481  000FAA  8029               	bsf	___fldiv@b^0,0,c
  3482  000FAC                     l1674:
  3483  000FAC  FFFF               	dw	65535	; assembler added errata NOP
  3484  000FAE  90D8               	bcf	status,0,c
  3485  000FB0  363C               	rlcf	___fldiv@grs^0,f,c
  3486  000FB2  363D               	rlcf	(___fldiv@grs+1)^0,f,c
  3487  000FB4  363E               	rlcf	(___fldiv@grs+2)^0,f,c
  3488  000FB6  363F               	rlcf	(___fldiv@grs+3)^0,f,c
  3489  000FB8  063A               	decf	___fldiv@new_exp^0,f,c
  3490  000FBA  A0D8               	btfss	status,0,c
  3491  000FBC  063B               	decf	(___fldiv@new_exp+1)^0,f,c
  3492  000FBE                     l7350:
  3493  000FBE  FFFF               	dw	65535	; assembler added errata NOP
  3494  000FC0  AE2B               	btfss	(___fldiv@b+2)^0,7,c
  3495  000FC2  EFE5  F007         	goto	u7751
  3496  000FC6  EFE8  F007         	goto	u7750
  3497  000FCA                     u7751:
  3498  000FCA  FFFF               	dw	65535	; assembler added errata NOP
  3499  000FCC  EFC6  F007         	goto	l7344
  3500  000FD0                     u7750:
  3501  000FD0  FFFF               	dw	65535	; assembler added errata NOP
  3502  000FD2  0E00               	movlw	0
  3503  000FD4  6E41               	movwf	___fldiv@aexp^0,c
  3504  000FD6  AE3F               	btfss	(___fldiv@grs+3)^0,7,c
  3505  000FD8  EFF0  F007         	goto	u7761
  3506  000FDC  EFF3  F007         	goto	u7760
  3507  000FE0                     u7761:
  3508  000FE0  FFFF               	dw	65535	; assembler added errata NOP
  3509  000FE2  EF1E  F008         	goto	l1676
  3510  000FE6                     u7760:
  3511  000FE6  FFFF               	dw	65535	; assembler added errata NOP
  3512  000FE8  0EFF               	movlw	255
  3513  000FEA  143C               	andwf	___fldiv@grs^0,w,c
  3514  000FEC  6E31               	movwf	??___fldiv^0,c
  3515  000FEE  0EFF               	movlw	255
  3516  000FF0  143D               	andwf	(___fldiv@grs+1)^0,w,c
  3517  000FF2  6E32               	movwf	(??___fldiv+1)^0,c
  3518  000FF4  0EFF               	movlw	255
  3519  000FF6  143E               	andwf	(___fldiv@grs+2)^0,w,c
  3520  000FF8  6E33               	movwf	(??___fldiv+2)^0,c
  3521  000FFA  0E7F               	movlw	127
  3522  000FFC  143F               	andwf	(___fldiv@grs+3)^0,w,c
  3523  000FFE  6E34               	movwf	(??___fldiv+3)^0,c
  3524  001000  5031               	movf	??___fldiv^0,w,c
  3525  001002  1032               	iorwf	(??___fldiv+1)^0,w,c
  3526  001004  1033               	iorwf	(??___fldiv+2)^0,w,c
  3527  001006  1034               	iorwf	(??___fldiv+3)^0,w,c
  3528  001008  B4D8               	btfsc	status,2,c
  3529  00100A  EF09  F008         	goto	u7771
  3530  00100E  EF0C  F008         	goto	u7770
  3531  001012                     u7771:
  3532  001012  FFFF               	dw	65535	; assembler added errata NOP
  3533  001014  EF12  F008         	goto	l1677
  3534  001018                     u7770:
  3535  001018  FFFF               	dw	65535	; assembler added errata NOP
  3536  00101A                     l7358:
  3537  00101A  FFFF               	dw	65535	; assembler added errata NOP
  3538  00101C  0E01               	movlw	1
  3539  00101E  6E41               	movwf	___fldiv@aexp^0,c
  3540  001020  EF1E  F008         	goto	l1676
  3541  001024                     l1677:
  3542  001024  FFFF               	dw	65535	; assembler added errata NOP
  3543  001026  A029               	btfss	___fldiv@b^0,0,c
  3544  001028  EF18  F008         	goto	u7781
  3545  00102C  EF1B  F008         	goto	u7780
  3546  001030                     u7781:
  3547  001030  FFFF               	dw	65535	; assembler added errata NOP
  3548  001032  EF1E  F008         	goto	l1676
  3549  001036                     u7780:
  3550  001036  FFFF               	dw	65535	; assembler added errata NOP
  3551  001038  EF0D  F008         	goto	l7358
  3552  00103C                     l1676:
  3553  00103C  FFFF               	dw	65535	; assembler added errata NOP
  3554  00103E  5041               	movf	___fldiv@aexp^0,w,c
  3555  001040  B4D8               	btfsc	status,2,c
  3556  001042  EF25  F008         	goto	u7791
  3557  001046  EF28  F008         	goto	u7790
  3558  00104A                     u7791:
  3559  00104A  FFFF               	dw	65535	; assembler added errata NOP
  3560  00104C  EF4F  F008         	goto	l7370
  3561  001050                     u7790:
  3562  001050  FFFF               	dw	65535	; assembler added errata NOP
  3563  001052  0E01               	movlw	1
  3564  001054  2629               	addwf	___fldiv@b^0,f,c
  3565  001056  0E00               	movlw	0
  3566  001058  222A               	addwfc	(___fldiv@b+1)^0,f,c
  3567  00105A  222B               	addwfc	(___fldiv@b+2)^0,f,c
  3568  00105C  222C               	addwfc	(___fldiv@b+3)^0,f,c
  3569  00105E  A02C               	btfss	(___fldiv@b+3)^0,0,c
  3570  001060  EF34  F008         	goto	u7801
  3571  001064  EF37  F008         	goto	u7800
  3572  001068                     u7801:
  3573  001068  FFFF               	dw	65535	; assembler added errata NOP
  3574  00106A  EF4F  F008         	goto	l7370
  3575  00106E                     u7800:
  3576  00106E  FFFF               	dw	65535	; assembler added errata NOP
  3577  001070  C029  F031         	movff	___fldiv@b,??___fldiv
  3578  001074  C02A  F032         	movff	___fldiv@b+1,??___fldiv+1
  3579  001078  C02B  F033         	movff	___fldiv@b+2,??___fldiv+2
  3580  00107C  C02C  F034         	movff	___fldiv@b+3,??___fldiv+3
  3581  001080  3434               	rlcf	(??___fldiv+3)^0,w,c
  3582  001082  3234               	rrcf	(??___fldiv+3)^0,f,c
  3583  001084  3233               	rrcf	(??___fldiv+2)^0,f,c
  3584  001086  3232               	rrcf	(??___fldiv+1)^0,f,c
  3585  001088  3231               	rrcf	??___fldiv^0,f,c
  3586  00108A  C031  F029         	movff	??___fldiv,___fldiv@b
  3587  00108E  C032  F02A         	movff	??___fldiv+1,___fldiv@b+1
  3588  001092  C033  F02B         	movff	??___fldiv+2,___fldiv@b+2
  3589  001096  C034  F02C         	movff	??___fldiv+3,___fldiv@b+3
  3590  00109A  4A3A               	infsnz	___fldiv@new_exp^0,f,c
  3591  00109C  2A3B               	incf	(___fldiv@new_exp+1)^0,f,c
  3592  00109E                     l7370:
  3593  00109E  FFFF               	dw	65535	; assembler added errata NOP
  3594  0010A0  BE3B               	btfsc	(___fldiv@new_exp+1)^0,7,c
  3595  0010A2  EF5B  F008         	goto	u7811
  3596  0010A6  503B               	movf	(___fldiv@new_exp+1)^0,w,c
  3597  0010A8  E109               	bnz	u7810
  3598  0010AA  283A               	incf	___fldiv@new_exp^0,w,c
  3599  0010AC  A0D8               	btfss	status,0,c
  3600  0010AE  EF5B  F008         	goto	u7811
  3601  0010B2  EF5E  F008         	goto	u7810
  3602  0010B6                     u7811:
  3603  0010B6  FFFF               	dw	65535	; assembler added errata NOP
  3604  0010B8  EF6A  F008         	goto	l7374
  3605  0010BC                     u7810:
  3606  0010BC  FFFF               	dw	65535	; assembler added errata NOP
  3607  0010BE  0E00               	movlw	0
  3608  0010C0  6E3B               	movwf	(___fldiv@new_exp+1)^0,c
  3609  0010C2  683A               	setf	___fldiv@new_exp^0,c
  3610  0010C4  0E00               	movlw	0
  3611  0010C6  6E29               	movwf	___fldiv@b^0,c
  3612  0010C8  0E00               	movlw	0
  3613  0010CA  6E2A               	movwf	(___fldiv@b+1)^0,c
  3614  0010CC  0E00               	movlw	0
  3615  0010CE  6E2B               	movwf	(___fldiv@b+2)^0,c
  3616  0010D0  0E00               	movlw	0
  3617  0010D2  6E2C               	movwf	(___fldiv@b+3)^0,c
  3618  0010D4                     l7374:
  3619  0010D4  FFFF               	dw	65535	; assembler added errata NOP
  3620  0010D6  BE3B               	btfsc	(___fldiv@new_exp+1)^0,7,c
  3621  0010D8  EF79  F008         	goto	u7820
  3622  0010DC  503B               	movf	(___fldiv@new_exp+1)^0,w,c
  3623  0010DE  E106               	bnz	u7821
  3624  0010E0  043A               	decf	___fldiv@new_exp^0,w,c
  3625  0010E2  B0D8               	btfsc	status,0,c
  3626  0010E4  EF76  F008         	goto	u7821
  3627  0010E8  EF79  F008         	goto	u7820
  3628  0010EC                     u7821:
  3629  0010EC  FFFF               	dw	65535	; assembler added errata NOP
  3630  0010EE  EF88  F008         	goto	l7378
  3631  0010F2                     u7820:
  3632  0010F2  FFFF               	dw	65535	; assembler added errata NOP
  3633  0010F4  0E00               	movlw	0
  3634  0010F6  6E3B               	movwf	(___fldiv@new_exp+1)^0,c
  3635  0010F8  0E00               	movlw	0
  3636  0010FA  6E3A               	movwf	___fldiv@new_exp^0,c
  3637  0010FC  0E00               	movlw	0
  3638  0010FE  6E29               	movwf	___fldiv@b^0,c
  3639  001100  0E00               	movlw	0
  3640  001102  6E2A               	movwf	(___fldiv@b+1)^0,c
  3641  001104  0E00               	movlw	0
  3642  001106  6E2B               	movwf	(___fldiv@b+2)^0,c
  3643  001108  0E00               	movlw	0
  3644  00110A  6E2C               	movwf	(___fldiv@b+3)^0,c
  3645  00110C  0E00               	movlw	0
  3646  00110E  6E39               	movwf	___fldiv@sign^0,c
  3647  001110                     l7378:
  3648  001110  FFFF               	dw	65535	; assembler added errata NOP
  3649  001112  C03A  F040         	movff	___fldiv@new_exp,___fldiv@bexp
  3650  001116  A040               	btfss	___fldiv@bexp^0,0,c
  3651  001118  EF90  F008         	goto	u7831
  3652  00111C  EF93  F008         	goto	u7830
  3653  001120                     u7831:
  3654  001120  FFFF               	dw	65535	; assembler added errata NOP
  3655  001122  EF97  F008         	goto	l7384
  3656  001126                     u7830:
  3657  001126  FFFF               	dw	65535	; assembler added errata NOP
  3658  001128  8E2B               	bsf	(___fldiv@b+2)^0,7,c
  3659  00112A  EF99  F008         	goto	l7386
  3660  00112E                     l7384:
  3661  00112E  FFFF               	dw	65535	; assembler added errata NOP
  3662  001130  9E2B               	bcf	(___fldiv@b+2)^0,7,c
  3663  001132                     l7386:
  3664  001132  FFFF               	dw	65535	; assembler added errata NOP
  3665  001134  90D8               	bcf	status,0,c
  3666  001136  3040               	rrcf	___fldiv@bexp^0,w,c
  3667  001138  6E2C               	movwf	(___fldiv@b+3)^0,c
  3668  00113A  EF1D  F007         	goto	l7300
  3669  00113E                     l1663:
  3670  00113E  FFFF               	dw	65535	; assembler added errata NOP
  3671  001140  0012               	return		;funcret
  3672  001142  FFFF               	dw	65535	; errata NOP
  3673  001144                     __end_of___fldiv:
  3674                           	opt callstack 0
  3675                           
  3676 ;; *************** function ___fladd *****************
  3677 ;; Defined at:
  3678 ;;		line 10 in file "C:\Programs\Microchip\xc8\v2.10\pic\sources\c99\common\sprcadd.c"
  3679 ;; Parameters:    Size  Location     Type
  3680 ;;  b               4   65[COMRAM] unsigned char 
  3681 ;;  a               4   69[COMRAM] unsigned char 
  3682 ;; Auto vars:     Size  Location     Type
  3683 ;;  grs             1   80[COMRAM] unsigned char 
  3684 ;;  bexp            1   79[COMRAM] unsigned char 
  3685 ;;  aexp            1   78[COMRAM] unsigned char 
  3686 ;;  signs           1   77[COMRAM] unsigned char 
  3687 ;; Return value:  Size  Location     Type
  3688 ;;                  4   65[COMRAM] unsigned char 
  3689 ;; Registers used:
  3690 ;;		wreg, status,2, status,0
  3691 ;; Tracked objects:
  3692 ;;		On entry : 0/0
  3693 ;;		On exit  : 0/0
  3694 ;;		Unchanged: 0/0
  3695 ;; Data sizes:     COMRAM   BANK0   BANK1   BANK2   BANK3   BANK4   BANK5
  3696 ;;      Params:         8       0       0       0       0       0       0
  3697 ;;      Locals:         4       0       0       0       0       0       0
  3698 ;;      Temps:          4       0       0       0       0       0       0
  3699 ;;      Totals:        16       0       0       0       0       0       0
  3700 ;;Total ram usage:       16 bytes
  3701 ;; Hardware stack levels used:    1
  3702 ;; Hardware stack levels required when called:    1
  3703 ;; This function calls:
  3704 ;;		Nothing
  3705 ;; This function is called by:
  3706 ;;		_uart_init
  3707 ;; This function uses a non-reentrant model
  3708 ;;
  3709                           
  3710                           	psect	text7
  3711  0002C6                     __ptext7:
  3712                           	opt callstack 0
  3713  0002C6                     ___fladd:
  3714                           	opt callstack 0
  3715  0002C6  FFFF               	dw	65535	; assembler added errata NOP
  3716  0002C8  5045               	movf	(___fladd@b+3)^0,w,c
  3717  0002CA  0B80               	andlw	128
  3718  0002CC  6E4E               	movwf	___fladd@signs^0,c
  3719  0002CE  5045               	movf	(___fladd@b+3)^0,w,c
  3720  0002D0  2445               	addwf	(___fladd@b+3)^0,w,c
  3721  0002D2  6E50               	movwf	___fladd@bexp^0,c
  3722  0002D4  AE44               	btfss	(___fladd@b+2)^0,7,c
  3723  0002D6  EF6F  F001         	goto	u7221
  3724  0002DA  EF72  F001         	goto	u7220
  3725  0002DE                     u7221:
  3726  0002DE  FFFF               	dw	65535	; assembler added errata NOP
  3727  0002E0  EF74  F001         	goto	l7060
  3728  0002E4                     u7220:
  3729  0002E4  FFFF               	dw	65535	; assembler added errata NOP
  3730  0002E6  8050               	bsf	___fladd@bexp^0,0,c
  3731  0002E8                     l7060:
  3732  0002E8  FFFF               	dw	65535	; assembler added errata NOP
  3733  0002EA  5050               	movf	___fladd@bexp^0,w,c
  3734  0002EC  B4D8               	btfsc	status,2,c
  3735  0002EE  EF7B  F001         	goto	u7231
  3736  0002F2  EF7E  F001         	goto	u7230
  3737  0002F6                     u7231:
  3738  0002F6  FFFF               	dw	65535	; assembler added errata NOP
  3739  0002F8  EF97  F001         	goto	l7070
  3740  0002FC                     u7230:
  3741  0002FC  FFFF               	dw	65535	; assembler added errata NOP
  3742  0002FE  2850               	incf	___fladd@bexp^0,w,c
  3743  000300  A4D8               	btfss	status,2,c
  3744  000302  EF85  F001         	goto	u7241
  3745  000306  EF88  F001         	goto	u7240
  3746  00030A                     u7241:
  3747  00030A  FFFF               	dw	65535	; assembler added errata NOP
  3748  00030C  EF91  F001         	goto	l7066
  3749  000310                     u7240:
  3750  000310  FFFF               	dw	65535	; assembler added errata NOP
  3751  000312  0E00               	movlw	0
  3752  000314  6E42               	movwf	___fladd@b^0,c
  3753  000316  0E00               	movlw	0
  3754  000318  6E43               	movwf	(___fladd@b+1)^0,c
  3755  00031A  0E00               	movlw	0
  3756  00031C  6E44               	movwf	(___fladd@b+2)^0,c
  3757  00031E  0E00               	movlw	0
  3758  000320  6E45               	movwf	(___fladd@b+3)^0,c
  3759  000322                     l7066:
  3760  000322  FFFF               	dw	65535	; assembler added errata NOP
  3761  000324  8E44               	bsf	(___fladd@b+2)^0,7,c
  3762  000326  0E00               	movlw	0
  3763  000328  6E45               	movwf	(___fladd@b+3)^0,c
  3764  00032A  EFA0  F001         	goto	l7072
  3765  00032E                     l7070:
  3766  00032E  FFFF               	dw	65535	; assembler added errata NOP
  3767  000330  0E00               	movlw	0
  3768  000332  6E42               	movwf	___fladd@b^0,c
  3769  000334  0E00               	movlw	0
  3770  000336  6E43               	movwf	(___fladd@b+1)^0,c
  3771  000338  0E00               	movlw	0
  3772  00033A  6E44               	movwf	(___fladd@b+2)^0,c
  3773  00033C  0E00               	movlw	0
  3774  00033E  6E45               	movwf	(___fladd@b+3)^0,c
  3775  000340                     l7072:
  3776  000340  FFFF               	dw	65535	; assembler added errata NOP
  3777  000342  5049               	movf	(___fladd@a+3)^0,w,c
  3778  000344  0B80               	andlw	128
  3779  000346  6E4F               	movwf	___fladd@aexp^0,c
  3780  000348  504E               	movf	___fladd@signs^0,w,c
  3781  00034A  184F               	xorwf	___fladd@aexp^0,w,c
  3782  00034C  B4D8               	btfsc	status,2,c
  3783  00034E  EFAB  F001         	goto	u7251
  3784  000352  EFAE  F001         	goto	u7250
  3785  000356                     u7251:
  3786  000356  FFFF               	dw	65535	; assembler added errata NOP
  3787  000358  EFB0  F001         	goto	l7078
  3788  00035C                     u7250:
  3789  00035C  FFFF               	dw	65535	; assembler added errata NOP
  3790  00035E  8C4E               	bsf	___fladd@signs^0,6,c
  3791  000360                     l7078:
  3792  000360  FFFF               	dw	65535	; assembler added errata NOP
  3793  000362  5049               	movf	(___fladd@a+3)^0,w,c
  3794  000364  2449               	addwf	(___fladd@a+3)^0,w,c
  3795  000366  6E4F               	movwf	___fladd@aexp^0,c
  3796  000368  AE48               	btfss	(___fladd@a+2)^0,7,c
  3797  00036A  EFB9  F001         	goto	u7261
  3798  00036E  EFBC  F001         	goto	u7260
  3799  000372                     u7261:
  3800  000372  FFFF               	dw	65535	; assembler added errata NOP
  3801  000374  EFBE  F001         	goto	l7084
  3802  000378                     u7260:
  3803  000378  FFFF               	dw	65535	; assembler added errata NOP
  3804  00037A  804F               	bsf	___fladd@aexp^0,0,c
  3805  00037C                     l7084:
  3806  00037C  FFFF               	dw	65535	; assembler added errata NOP
  3807  00037E  504F               	movf	___fladd@aexp^0,w,c
  3808  000380  B4D8               	btfsc	status,2,c
  3809  000382  EFC5  F001         	goto	u7271
  3810  000386  EFC8  F001         	goto	u7270
  3811  00038A                     u7271:
  3812  00038A  FFFF               	dw	65535	; assembler added errata NOP
  3813  00038C  EFE1  F001         	goto	l7094
  3814  000390                     u7270:
  3815  000390  FFFF               	dw	65535	; assembler added errata NOP
  3816  000392  284F               	incf	___fladd@aexp^0,w,c
  3817  000394  A4D8               	btfss	status,2,c
  3818  000396  EFCF  F001         	goto	u7281
  3819  00039A  EFD2  F001         	goto	u7280
  3820  00039E                     u7281:
  3821  00039E  FFFF               	dw	65535	; assembler added errata NOP
  3822  0003A0  EFDB  F001         	goto	l7090
  3823  0003A4                     u7280:
  3824  0003A4  FFFF               	dw	65535	; assembler added errata NOP
  3825  0003A6  0E00               	movlw	0
  3826  0003A8  6E46               	movwf	___fladd@a^0,c
  3827  0003AA  0E00               	movlw	0
  3828  0003AC  6E47               	movwf	(___fladd@a+1)^0,c
  3829  0003AE  0E00               	movlw	0
  3830  0003B0  6E48               	movwf	(___fladd@a+2)^0,c
  3831  0003B2  0E00               	movlw	0
  3832  0003B4  6E49               	movwf	(___fladd@a+3)^0,c
  3833  0003B6                     l7090:
  3834  0003B6  FFFF               	dw	65535	; assembler added errata NOP
  3835  0003B8  8E48               	bsf	(___fladd@a+2)^0,7,c
  3836  0003BA  0E00               	movlw	0
  3837  0003BC  6E49               	movwf	(___fladd@a+3)^0,c
  3838  0003BE  EFEA  F001         	goto	l7096
  3839  0003C2                     l7094:
  3840  0003C2  FFFF               	dw	65535	; assembler added errata NOP
  3841  0003C4  0E00               	movlw	0
  3842  0003C6  6E46               	movwf	___fladd@a^0,c
  3843  0003C8  0E00               	movlw	0
  3844  0003CA  6E47               	movwf	(___fladd@a+1)^0,c
  3845  0003CC  0E00               	movlw	0
  3846  0003CE  6E48               	movwf	(___fladd@a+2)^0,c
  3847  0003D0  0E00               	movlw	0
  3848  0003D2  6E49               	movwf	(___fladd@a+3)^0,c
  3849  0003D4                     l7096:
  3850  0003D4  FFFF               	dw	65535	; assembler added errata NOP
  3851  0003D6  5050               	movf	___fladd@bexp^0,w,c
  3852  0003D8  5C4F               	subwf	___fladd@aexp^0,w,c
  3853  0003DA  B0D8               	btfsc	status,0,c
  3854  0003DC  EFF2  F001         	goto	u7291
  3855  0003E0  EFF5  F001         	goto	u7290
  3856  0003E4                     u7291:
  3857  0003E4  FFFF               	dw	65535	; assembler added errata NOP
  3858  0003E6  EF20  F002         	goto	l7132
  3859  0003EA                     u7290:
  3860  0003EA  FFFF               	dw	65535	; assembler added errata NOP
  3861  0003EC  AC4E               	btfss	___fladd@signs^0,6,c
  3862  0003EE  EFFB  F001         	goto	u7301
  3863  0003F2  EFFE  F001         	goto	u7300
  3864  0003F6                     u7301:
  3865  0003F6  FFFF               	dw	65535	; assembler added errata NOP
  3866  0003F8  EF01  F002         	goto	l7102
  3867  0003FC                     u7300:
  3868  0003FC  FFFF               	dw	65535	; assembler added errata NOP
  3869  0003FE  0E80               	movlw	128
  3870  000400  1A4E               	xorwf	___fladd@signs^0,f,c
  3871  000402                     l7102:
  3872  000402  FFFF               	dw	65535	; assembler added errata NOP
  3873  000404  C050  F051         	movff	___fladd@bexp,___fladd@grs
  3874  000408  C04F  F050         	movff	___fladd@aexp,___fladd@bexp
  3875  00040C  C051  F04F         	movff	___fladd@grs,___fladd@aexp
  3876  000410  C042  F051         	movff	___fladd@b,___fladd@grs
  3877  000414  C046  F042         	movff	___fladd@a,___fladd@b
  3878  000418  C051  F046         	movff	___fladd@grs,___fladd@a
  3879  00041C  C043  F051         	movff	___fladd@b+1,___fladd@grs
  3880  000420  C047  F043         	movff	___fladd@a+1,___fladd@b+1
  3881  000424  C051  F047         	movff	___fladd@grs,___fladd@a+1
  3882  000428  C044  F051         	movff	___fladd@b+2,___fladd@grs
  3883  00042C  C048  F044         	movff	___fladd@a+2,___fladd@b+2
  3884  000430  C051  F048         	movff	___fladd@grs,___fladd@a+2
  3885  000434  C045  F051         	movff	___fladd@b+3,___fladd@grs
  3886  000438  C049  F045         	movff	___fladd@a+3,___fladd@b+3
  3887  00043C  C051  F049         	movff	___fladd@grs,___fladd@a+3
  3888  000440                     l7132:
  3889  000440  FFFF               	dw	65535	; assembler added errata NOP
  3890  000442  0E00               	movlw	0
  3891  000444  6E51               	movwf	___fladd@grs^0,c
  3892  000446  5050               	movf	___fladd@bexp^0,w,c
  3893  000448  C04F  F04A         	movff	___fladd@aexp,??___fladd
  3894  00044C  6A4B               	clrf	(??___fladd+1)^0,c
  3895  00044E  5E4A               	subwf	??___fladd^0,f,c
  3896  000450  0E00               	movlw	0
  3897  000452  5A4B               	subwfb	(??___fladd+1)^0,f,c
  3898  000454  BE4B               	btfsc	(??___fladd+1)^0,7,c
  3899  000456  EF36  F002         	goto	u7311
  3900  00045A  504B               	movf	(??___fladd+1)^0,w,c
  3901  00045C  E10A               	bnz	u7310
  3902  00045E  0E1A               	movlw	26
  3903  000460  5C4A               	subwf	??___fladd^0,w,c
  3904  000462  A0D8               	btfss	status,0,c
  3905  000464  EF36  F002         	goto	u7311
  3906  000468  EF39  F002         	goto	u7310
  3907  00046C                     u7311:
  3908  00046C  FFFF               	dw	65535	; assembler added errata NOP
  3909  00046E  EF7C  F002         	goto	l1610
  3910  000472                     u7310:
  3911  000472  FFFF               	dw	65535	; assembler added errata NOP
  3912  000474  5042               	movf	___fladd@b^0,w,c
  3913  000476  1043               	iorwf	(___fladd@b+1)^0,w,c
  3914  000478  1044               	iorwf	(___fladd@b+2)^0,w,c
  3915  00047A  1045               	iorwf	(___fladd@b+3)^0,w,c
  3916  00047C  A4D8               	btfss	status,2,c
  3917  00047E  EF43  F002         	goto	u7321
  3918  000482  EF47  F002         	goto	u7320
  3919  000486                     u7321:
  3920  000486  FFFF               	dw	65535	; assembler added errata NOP
  3921  000488  0E01               	movlw	1
  3922  00048A  EF49  F002         	goto	u7330
  3923  00048E                     u7320:
  3924  00048E  FFFF               	dw	65535	; assembler added errata NOP
  3925  000490  0E00               	movlw	0
  3926  000492                     u7330:
  3927  000492  FFFF               	dw	65535	; assembler added errata NOP
  3928  000494  6E51               	movwf	___fladd@grs^0,c
  3929  000496  0E00               	movlw	0
  3930  000498  6E42               	movwf	___fladd@b^0,c
  3931  00049A  0E00               	movlw	0
  3932  00049C  6E43               	movwf	(___fladd@b+1)^0,c
  3933  00049E  0E00               	movlw	0
  3934  0004A0  6E44               	movwf	(___fladd@b+2)^0,c
  3935  0004A2  0E00               	movlw	0
  3936  0004A4  6E45               	movwf	(___fladd@b+3)^0,c
  3937  0004A6  C04F  F050         	movff	___fladd@aexp,___fladd@bexp
  3938  0004AA  EF87  F002         	goto	l1609
  3939  0004AE                     l1611:
  3940  0004AE  FFFF               	dw	65535	; assembler added errata NOP
  3941  0004B0  A051               	btfss	___fladd@grs^0,0,c
  3942  0004B2  EF5D  F002         	goto	u7341
  3943  0004B6  EF60  F002         	goto	u7340
  3944  0004BA                     u7341:
  3945  0004BA  FFFF               	dw	65535	; assembler added errata NOP
  3946  0004BC  EF67  F002         	goto	l7144
  3947  0004C0                     u7340:
  3948  0004C0  FFFF               	dw	65535	; assembler added errata NOP
  3949  0004C2  90D8               	bcf	status,0,c
  3950  0004C4  3051               	rrcf	___fladd@grs^0,w,c
  3951  0004C6  0901               	iorlw	1
  3952  0004C8  6E51               	movwf	___fladd@grs^0,c
  3953  0004CA  EF6A  F002         	goto	l7146
  3954  0004CE                     l7144:
  3955  0004CE  FFFF               	dw	65535	; assembler added errata NOP
  3956  0004D0  90D8               	bcf	status,0,c
  3957  0004D2  3251               	rrcf	___fladd@grs^0,f,c
  3958  0004D4                     l7146:
  3959  0004D4  FFFF               	dw	65535	; assembler added errata NOP
  3960  0004D6  A042               	btfss	___fladd@b^0,0,c
  3961  0004D8  EF70  F002         	goto	u7351
  3962  0004DC  EF73  F002         	goto	u7350
  3963  0004E0                     u7351:
  3964  0004E0  FFFF               	dw	65535	; assembler added errata NOP
  3965  0004E2  EF75  F002         	goto	l7150
  3966  0004E6                     u7350:
  3967  0004E6  FFFF               	dw	65535	; assembler added errata NOP
  3968  0004E8  8E51               	bsf	___fladd@grs^0,7,c
  3969  0004EA                     l7150:
  3970  0004EA  FFFF               	dw	65535	; assembler added errata NOP
  3971  0004EC  3445               	rlcf	(___fladd@b+3)^0,w,c
  3972  0004EE  3245               	rrcf	(___fladd@b+3)^0,f,c
  3973  0004F0  3244               	rrcf	(___fladd@b+2)^0,f,c
  3974  0004F2  3243               	rrcf	(___fladd@b+1)^0,f,c
  3975  0004F4  3242               	rrcf	___fladd@b^0,f,c
  3976  0004F6  2A50               	incf	___fladd@bexp^0,f,c
  3977  0004F8                     l1610:
  3978  0004F8  FFFF               	dw	65535	; assembler added errata NOP
  3979  0004FA  504F               	movf	___fladd@aexp^0,w,c
  3980  0004FC  5C50               	subwf	___fladd@bexp^0,w,c
  3981  0004FE  A0D8               	btfss	status,0,c
  3982  000500  EF84  F002         	goto	u7361
  3983  000504  EF87  F002         	goto	u7360
  3984  000508                     u7361:
  3985  000508  FFFF               	dw	65535	; assembler added errata NOP
  3986  00050A  EF57  F002         	goto	l1611
  3987  00050E                     u7360:
  3988  00050E                     l1609:
  3989  00050E  FFFF               	dw	65535	; assembler added errata NOP
  3990  000510  BC4E               	btfsc	___fladd@signs^0,6,c
  3991  000512  EF8D  F002         	goto	u7371
  3992  000516  EF90  F002         	goto	u7370
  3993  00051A                     u7371:
  3994  00051A  FFFF               	dw	65535	; assembler added errata NOP
  3995  00051C  EFDD  F002         	goto	l7178
  3996  000520                     u7370:
  3997  000520  FFFF               	dw	65535	; assembler added errata NOP
  3998  000522  5050               	movf	___fladd@bexp^0,w,c
  3999  000524  A4D8               	btfss	status,2,c
  4000  000526  EF97  F002         	goto	u7381
  4001  00052A  EF9A  F002         	goto	u7380
  4002  00052E                     u7381:
  4003  00052E  FFFF               	dw	65535	; assembler added errata NOP
  4004  000530  EFA5  F002         	goto	l7160
  4005  000534                     u7380:
  4006  000534  FFFF               	dw	65535	; assembler added errata NOP
  4007  000536  0E00               	movlw	0
  4008  000538  6E42               	movwf	?___fladd^0,c
  4009  00053A  0E00               	movlw	0
  4010  00053C  6E43               	movwf	(?___fladd+1)^0,c
  4011  00053E  0E00               	movlw	0
  4012  000540  6E44               	movwf	(?___fladd+2)^0,c
  4013  000542  0E00               	movlw	0
  4014  000544  6E45               	movwf	(?___fladd+3)^0,c
  4015  000546  EF34  F004         	goto	l1618
  4016  00054A                     l7160:
  4017  00054A  FFFF               	dw	65535	; assembler added errata NOP
  4018  00054C  5046               	movf	___fladd@a^0,w,c
  4019  00054E  2642               	addwf	___fladd@b^0,f,c
  4020  000550  5047               	movf	(___fladd@a+1)^0,w,c
  4021  000552  2243               	addwfc	(___fladd@b+1)^0,f,c
  4022  000554  5048               	movf	(___fladd@a+2)^0,w,c
  4023  000556  2244               	addwfc	(___fladd@b+2)^0,f,c
  4024  000558  5049               	movf	(___fladd@a+3)^0,w,c
  4025  00055A  2245               	addwfc	(___fladd@b+3)^0,f,c
  4026  00055C  A045               	btfss	(___fladd@b+3)^0,0,c
  4027  00055E  EFB3  F002         	goto	u7391
  4028  000562  EFB6  F002         	goto	u7390
  4029  000566                     u7391:
  4030  000566  FFFF               	dw	65535	; assembler added errata NOP
  4031  000568  EF81  F003         	goto	l7214
  4032  00056C                     u7390:
  4033  00056C  FFFF               	dw	65535	; assembler added errata NOP
  4034  00056E  A051               	btfss	___fladd@grs^0,0,c
  4035  000570  EFBC  F002         	goto	u7401
  4036  000574  EFBF  F002         	goto	u7400
  4037  000578                     u7401:
  4038  000578  FFFF               	dw	65535	; assembler added errata NOP
  4039  00057A  EFC6  F002         	goto	l7168
  4040  00057E                     u7400:
  4041  00057E  FFFF               	dw	65535	; assembler added errata NOP
  4042  000580  90D8               	bcf	status,0,c
  4043  000582  3051               	rrcf	___fladd@grs^0,w,c
  4044  000584  0901               	iorlw	1
  4045  000586  6E51               	movwf	___fladd@grs^0,c
  4046  000588  EFC9  F002         	goto	l7170
  4047  00058C                     l7168:
  4048  00058C  FFFF               	dw	65535	; assembler added errata NOP
  4049  00058E  90D8               	bcf	status,0,c
  4050  000590  3251               	rrcf	___fladd@grs^0,f,c
  4051  000592                     l7170:
  4052  000592  FFFF               	dw	65535	; assembler added errata NOP
  4053  000594  A042               	btfss	___fladd@b^0,0,c
  4054  000596  EFCF  F002         	goto	u7411
  4055  00059A  EFD2  F002         	goto	u7410
  4056  00059E                     u7411:
  4057  00059E  FFFF               	dw	65535	; assembler added errata NOP
  4058  0005A0  EFD4  F002         	goto	l7174
  4059  0005A4                     u7410:
  4060  0005A4  FFFF               	dw	65535	; assembler added errata NOP
  4061  0005A6  8E51               	bsf	___fladd@grs^0,7,c
  4062  0005A8                     l7174:
  4063  0005A8  FFFF               	dw	65535	; assembler added errata NOP
  4064  0005AA  3445               	rlcf	(___fladd@b+3)^0,w,c
  4065  0005AC  3245               	rrcf	(___fladd@b+3)^0,f,c
  4066  0005AE  3244               	rrcf	(___fladd@b+2)^0,f,c
  4067  0005B0  3243               	rrcf	(___fladd@b+1)^0,f,c
  4068  0005B2  3242               	rrcf	___fladd@b^0,f,c
  4069  0005B4  2A50               	incf	___fladd@bexp^0,f,c
  4070  0005B6  EF81  F003         	goto	l7214
  4071  0005BA                     l7178:
  4072  0005BA  FFFF               	dw	65535	; assembler added errata NOP
  4073  0005BC  5046               	movf	___fladd@a^0,w,c
  4074  0005BE  5C42               	subwf	___fladd@b^0,w,c
  4075  0005C0  5047               	movf	(___fladd@a+1)^0,w,c
  4076  0005C2  5843               	subwfb	(___fladd@b+1)^0,w,c
  4077  0005C4  5048               	movf	(___fladd@a+2)^0,w,c
  4078  0005C6  5844               	subwfb	(___fladd@b+2)^0,w,c
  4079  0005C8  5045               	movf	(___fladd@b+3)^0,w,c
  4080  0005CA  0A80               	xorlw	128
  4081  0005CC  6E4A               	movwf	??___fladd^0,c
  4082  0005CE  5049               	movf	(___fladd@a+3)^0,w,c
  4083  0005D0  0A80               	xorlw	128
  4084  0005D2  584A               	subwfb	??___fladd^0,w,c
  4085  0005D4  B0D8               	btfsc	status,0,c
  4086  0005D6  EFEF  F002         	goto	u7421
  4087  0005DA  EFF2  F002         	goto	u7420
  4088  0005DE                     u7421:
  4089  0005DE  FFFF               	dw	65535	; assembler added errata NOP
  4090  0005E0  EF20  F003         	goto	l7188
  4091  0005E4                     u7420:
  4092  0005E4  FFFF               	dw	65535	; assembler added errata NOP
  4093  0005E6  5042               	movf	___fladd@b^0,w,c
  4094  0005E8  5C46               	subwf	___fladd@a^0,w,c
  4095  0005EA  6E4A               	movwf	??___fladd^0,c
  4096  0005EC  5043               	movf	(___fladd@b+1)^0,w,c
  4097  0005EE  5847               	subwfb	(___fladd@a+1)^0,w,c
  4098  0005F0  6E4B               	movwf	(??___fladd+1)^0,c
  4099  0005F2  5044               	movf	(___fladd@b+2)^0,w,c
  4100  0005F4  5848               	subwfb	(___fladd@a+2)^0,w,c
  4101  0005F6  6E4C               	movwf	(??___fladd+2)^0,c
  4102  0005F8  5045               	movf	(___fladd@b+3)^0,w,c
  4103  0005FA  5849               	subwfb	(___fladd@a+3)^0,w,c
  4104  0005FC  6E4D               	movwf	(??___fladd+3)^0,c
  4105  0005FE  0EFF               	movlw	255
  4106  000600  244A               	addwf	??___fladd^0,w,c
  4107  000602  6E42               	movwf	___fladd@b^0,c
  4108  000604  0EFF               	movlw	255
  4109  000606  204B               	addwfc	(??___fladd+1)^0,w,c
  4110  000608  6E43               	movwf	(___fladd@b+1)^0,c
  4111  00060A  0EFF               	movlw	255
  4112  00060C  204C               	addwfc	(??___fladd+2)^0,w,c
  4113  00060E  6E44               	movwf	(___fladd@b+2)^0,c
  4114  000610  0EFF               	movlw	255
  4115  000612  204D               	addwfc	(??___fladd+3)^0,w,c
  4116  000614  6E45               	movwf	(___fladd@b+3)^0,c
  4117  000616  0E80               	movlw	128
  4118  000618  1A4E               	xorwf	___fladd@signs^0,f,c
  4119  00061A  6C51               	negf	___fladd@grs^0,c
  4120  00061C  5051               	movf	___fladd@grs^0,w,c
  4121  00061E  A4D8               	btfss	status,2,c
  4122  000620  EF14  F003         	goto	u7431
  4123  000624  EF17  F003         	goto	u7430
  4124  000628                     u7431:
  4125  000628  FFFF               	dw	65535	; assembler added errata NOP
  4126  00062A  EF29  F003         	goto	l1626
  4127  00062E                     u7430:
  4128  00062E  FFFF               	dw	65535	; assembler added errata NOP
  4129  000630  0E01               	movlw	1
  4130  000632  2642               	addwf	___fladd@b^0,f,c
  4131  000634  0E00               	movlw	0
  4132  000636  2243               	addwfc	(___fladd@b+1)^0,f,c
  4133  000638  2244               	addwfc	(___fladd@b+2)^0,f,c
  4134  00063A  2245               	addwfc	(___fladd@b+3)^0,f,c
  4135  00063C  EF29  F003         	goto	l1626
  4136  000640                     l7188:
  4137  000640  FFFF               	dw	65535	; assembler added errata NOP
  4138  000642  5046               	movf	___fladd@a^0,w,c
  4139  000644  5E42               	subwf	___fladd@b^0,f,c
  4140  000646  5047               	movf	(___fladd@a+1)^0,w,c
  4141  000648  5A43               	subwfb	(___fladd@b+1)^0,f,c
  4142  00064A  5048               	movf	(___fladd@a+2)^0,w,c
  4143  00064C  5A44               	subwfb	(___fladd@b+2)^0,f,c
  4144  00064E  5049               	movf	(___fladd@a+3)^0,w,c
  4145  000650  5A45               	subwfb	(___fladd@b+3)^0,f,c
  4146  000652                     l1626:
  4147  000652  FFFF               	dw	65535	; assembler added errata NOP
  4148  000654  5042               	movf	___fladd@b^0,w,c
  4149  000656  1043               	iorwf	(___fladd@b+1)^0,w,c
  4150  000658  1044               	iorwf	(___fladd@b+2)^0,w,c
  4151  00065A  1045               	iorwf	(___fladd@b+3)^0,w,c
  4152  00065C  A4D8               	btfss	status,2,c
  4153  00065E  EF33  F003         	goto	u7441
  4154  000662  EF36  F003         	goto	u7440
  4155  000666                     u7441:
  4156  000666  FFFF               	dw	65535	; assembler added errata NOP
  4157  000668  EF78  F003         	goto	l7212
  4158  00066C                     u7440:
  4159  00066C  FFFF               	dw	65535	; assembler added errata NOP
  4160  00066E  5051               	movf	___fladd@grs^0,w,c
  4161  000670  A4D8               	btfss	status,2,c
  4162  000672  EF3D  F003         	goto	u7451
  4163  000676  EF40  F003         	goto	u7450
  4164  00067A                     u7451:
  4165  00067A  FFFF               	dw	65535	; assembler added errata NOP
  4166  00067C  EF78  F003         	goto	l7212
  4167  000680                     u7450:
  4168  000680  FFFF               	dw	65535	; assembler added errata NOP
  4169  000682  0E00               	movlw	0
  4170  000684  6E42               	movwf	?___fladd^0,c
  4171  000686  0E00               	movlw	0
  4172  000688  6E43               	movwf	(?___fladd+1)^0,c
  4173  00068A  0E00               	movlw	0
  4174  00068C  6E44               	movwf	(?___fladd+2)^0,c
  4175  00068E  0E00               	movlw	0
  4176  000690  6E45               	movwf	(?___fladd+3)^0,c
  4177  000692  EF34  F004         	goto	l1618
  4178  000696                     l7196:
  4179  000696  FFFF               	dw	65535	; assembler added errata NOP
  4180  000698  90D8               	bcf	status,0,c
  4181  00069A  3642               	rlcf	___fladd@b^0,f,c
  4182  00069C  3643               	rlcf	(___fladd@b+1)^0,f,c
  4183  00069E  3644               	rlcf	(___fladd@b+2)^0,f,c
  4184  0006A0  3645               	rlcf	(___fladd@b+3)^0,f,c
  4185  0006A2  AE51               	btfss	___fladd@grs^0,7,c
  4186  0006A4  EF56  F003         	goto	u7461
  4187  0006A8  EF59  F003         	goto	u7460
  4188  0006AC                     u7461:
  4189  0006AC  FFFF               	dw	65535	; assembler added errata NOP
  4190  0006AE  EF5B  F003         	goto	l7202
  4191  0006B2                     u7460:
  4192  0006B2  FFFF               	dw	65535	; assembler added errata NOP
  4193  0006B4  8042               	bsf	___fladd@b^0,0,c
  4194  0006B6                     l7202:
  4195  0006B6  FFFF               	dw	65535	; assembler added errata NOP
  4196  0006B8  A051               	btfss	___fladd@grs^0,0,c
  4197  0006BA  EF61  F003         	goto	u7471
  4198  0006BE  EF64  F003         	goto	u7470
  4199  0006C2                     u7471:
  4200  0006C2  FFFF               	dw	65535	; assembler added errata NOP
  4201  0006C4  EF69  F003         	goto	l7206
  4202  0006C8                     u7470:
  4203  0006C8  FFFF               	dw	65535	; assembler added errata NOP
  4204  0006CA  80D8               	bsf	status,0,c
  4205  0006CC  3651               	rlcf	___fladd@grs^0,f,c
  4206  0006CE  EF6C  F003         	goto	l7208
  4207  0006D2                     l7206:
  4208  0006D2  FFFF               	dw	65535	; assembler added errata NOP
  4209  0006D4  90D8               	bcf	status,0,c
  4210  0006D6  3651               	rlcf	___fladd@grs^0,f,c
  4211  0006D8                     l7208:
  4212  0006D8  FFFF               	dw	65535	; assembler added errata NOP
  4213  0006DA  5050               	movf	___fladd@bexp^0,w,c
  4214  0006DC  B4D8               	btfsc	status,2,c
  4215  0006DE  EF73  F003         	goto	u7481
  4216  0006E2  EF76  F003         	goto	u7480
  4217  0006E6                     u7481:
  4218  0006E6  FFFF               	dw	65535	; assembler added errata NOP
  4219  0006E8  EF78  F003         	goto	l7212
  4220  0006EC                     u7480:
  4221  0006EC  FFFF               	dw	65535	; assembler added errata NOP
  4222  0006EE  0650               	decf	___fladd@bexp^0,f,c
  4223  0006F0                     l7212:
  4224  0006F0  FFFF               	dw	65535	; assembler added errata NOP
  4225  0006F2  AE44               	btfss	(___fladd@b+2)^0,7,c
  4226  0006F4  EF7E  F003         	goto	u7491
  4227  0006F8  EF81  F003         	goto	u7490
  4228  0006FC                     u7491:
  4229  0006FC  FFFF               	dw	65535	; assembler added errata NOP
  4230  0006FE  EF4B  F003         	goto	l7196
  4231  000702                     u7490:
  4232  000702                     l7214:
  4233  000702  FFFF               	dw	65535	; assembler added errata NOP
  4234  000704  0E00               	movlw	0
  4235  000706  6E4F               	movwf	___fladd@aexp^0,c
  4236  000708  AE51               	btfss	___fladd@grs^0,7,c
  4237  00070A  EF89  F003         	goto	u7501
  4238  00070E  EF8C  F003         	goto	u7500
  4239  000712                     u7501:
  4240  000712  FFFF               	dw	65535	; assembler added errata NOP
  4241  000714  EFAB  F003         	goto	l1635
  4242  000718                     u7500:
  4243  000718  FFFF               	dw	65535	; assembler added errata NOP
  4244  00071A  C051  F04A         	movff	___fladd@grs,??___fladd
  4245  00071E  0E7F               	movlw	127
  4246  000720  164A               	andwf	??___fladd^0,f,c
  4247  000722  B4D8               	btfsc	status,2,c
  4248  000724  EF96  F003         	goto	u7511
  4249  000728  EF99  F003         	goto	u7510
  4250  00072C                     u7511:
  4251  00072C  FFFF               	dw	65535	; assembler added errata NOP
  4252  00072E  EF9F  F003         	goto	l1636
  4253  000732                     u7510:
  4254  000732  FFFF               	dw	65535	; assembler added errata NOP
  4255  000734                     l7220:
  4256  000734  FFFF               	dw	65535	; assembler added errata NOP
  4257  000736  0E01               	movlw	1
  4258  000738  6E4F               	movwf	___fladd@aexp^0,c
  4259  00073A  EFAB  F003         	goto	l1635
  4260  00073E                     l1636:
  4261  00073E  FFFF               	dw	65535	; assembler added errata NOP
  4262  000740  A042               	btfss	___fladd@b^0,0,c
  4263  000742  EFA5  F003         	goto	u7521
  4264  000746  EFA8  F003         	goto	u7520
  4265  00074A                     u7521:
  4266  00074A  FFFF               	dw	65535	; assembler added errata NOP
  4267  00074C  EFAB  F003         	goto	l1635
  4268  000750                     u7520:
  4269  000750  FFFF               	dw	65535	; assembler added errata NOP
  4270  000752  EF9A  F003         	goto	l7220
  4271  000756                     l1635:
  4272  000756  FFFF               	dw	65535	; assembler added errata NOP
  4273  000758  504F               	movf	___fladd@aexp^0,w,c
  4274  00075A  B4D8               	btfsc	status,2,c
  4275  00075C  EFB2  F003         	goto	u7531
  4276  000760  EFB5  F003         	goto	u7530
  4277  000764                     u7531:
  4278  000764  FFFF               	dw	65535	; assembler added errata NOP
  4279  000766  EFE5  F003         	goto	l7232
  4280  00076A                     u7530:
  4281  00076A  FFFF               	dw	65535	; assembler added errata NOP
  4282  00076C  0E01               	movlw	1
  4283  00076E  2642               	addwf	___fladd@b^0,f,c
  4284  000770  0E00               	movlw	0
  4285  000772  2243               	addwfc	(___fladd@b+1)^0,f,c
  4286  000774  2244               	addwfc	(___fladd@b+2)^0,f,c
  4287  000776  2245               	addwfc	(___fladd@b+3)^0,f,c
  4288  000778  A045               	btfss	(___fladd@b+3)^0,0,c
  4289  00077A  EFC1  F003         	goto	u7541
  4290  00077E  EFC4  F003         	goto	u7540
  4291  000782                     u7541:
  4292  000782  FFFF               	dw	65535	; assembler added errata NOP
  4293  000784  EFE5  F003         	goto	l7232
  4294  000788                     u7540:
  4295  000788  FFFF               	dw	65535	; assembler added errata NOP
  4296  00078A  C042  F04A         	movff	___fladd@b,??___fladd
  4297  00078E  C043  F04B         	movff	___fladd@b+1,??___fladd+1
  4298  000792  C044  F04C         	movff	___fladd@b+2,??___fladd+2
  4299  000796  C045  F04D         	movff	___fladd@b+3,??___fladd+3
  4300  00079A  344D               	rlcf	(??___fladd+3)^0,w,c
  4301  00079C  324D               	rrcf	(??___fladd+3)^0,f,c
  4302  00079E  324C               	rrcf	(??___fladd+2)^0,f,c
  4303  0007A0  324B               	rrcf	(??___fladd+1)^0,f,c
  4304  0007A2  324A               	rrcf	??___fladd^0,f,c
  4305  0007A4  C04A  F042         	movff	??___fladd,___fladd@b
  4306  0007A8  C04B  F043         	movff	??___fladd+1,___fladd@b+1
  4307  0007AC  C04C  F044         	movff	??___fladd+2,___fladd@b+2
  4308  0007B0  C04D  F045         	movff	??___fladd+3,___fladd@b+3
  4309  0007B4  2850               	incf	___fladd@bexp^0,w,c
  4310  0007B6  B4D8               	btfsc	status,2,c
  4311  0007B8  EFE0  F003         	goto	u7551
  4312  0007BC  EFE3  F003         	goto	u7550
  4313  0007C0                     u7551:
  4314  0007C0  FFFF               	dw	65535	; assembler added errata NOP
  4315  0007C2  EFE5  F003         	goto	l7232
  4316  0007C6                     u7550:
  4317  0007C6  FFFF               	dw	65535	; assembler added errata NOP
  4318  0007C8  2A50               	incf	___fladd@bexp^0,f,c
  4319  0007CA                     l7232:
  4320  0007CA  FFFF               	dw	65535	; assembler added errata NOP
  4321  0007CC  2850               	incf	___fladd@bexp^0,w,c
  4322  0007CE  B4D8               	btfsc	status,2,c
  4323  0007D0  EFEC  F003         	goto	u7561
  4324  0007D4  EFEF  F003         	goto	u7560
  4325  0007D8                     u7561:
  4326  0007D8  FFFF               	dw	65535	; assembler added errata NOP
  4327  0007DA  EFF9  F003         	goto	l7236
  4328  0007DE                     u7560:
  4329  0007DE  FFFF               	dw	65535	; assembler added errata NOP
  4330  0007E0  5050               	movf	___fladd@bexp^0,w,c
  4331  0007E2  A4D8               	btfss	status,2,c
  4332  0007E4  EFF6  F003         	goto	u7571
  4333  0007E8  EFF9  F003         	goto	u7570
  4334  0007EC                     u7571:
  4335  0007EC  FFFF               	dw	65535	; assembler added errata NOP
  4336  0007EE  EF0E  F004         	goto	l7240
  4337  0007F2                     u7570:
  4338  0007F2                     l7236:
  4339  0007F2  FFFF               	dw	65535	; assembler added errata NOP
  4340  0007F4  0E00               	movlw	0
  4341  0007F6  6E42               	movwf	___fladd@b^0,c
  4342  0007F8  0E00               	movlw	0
  4343  0007FA  6E43               	movwf	(___fladd@b+1)^0,c
  4344  0007FC  0E00               	movlw	0
  4345  0007FE  6E44               	movwf	(___fladd@b+2)^0,c
  4346  000800  0E00               	movlw	0
  4347  000802  6E45               	movwf	(___fladd@b+3)^0,c
  4348  000804  5050               	movf	___fladd@bexp^0,w,c
  4349  000806  A4D8               	btfss	status,2,c
  4350  000808  EF08  F004         	goto	u7581
  4351  00080C  EF0B  F004         	goto	u7580
  4352  000810                     u7581:
  4353  000810  FFFF               	dw	65535	; assembler added errata NOP
  4354  000812  EF0E  F004         	goto	l7240
  4355  000816                     u7580:
  4356  000816  FFFF               	dw	65535	; assembler added errata NOP
  4357  000818  0E00               	movlw	0
  4358  00081A  6E4E               	movwf	___fladd@signs^0,c
  4359  00081C                     l7240:
  4360  00081C  FFFF               	dw	65535	; assembler added errata NOP
  4361  00081E  A050               	btfss	___fladd@bexp^0,0,c
  4362  000820  EF14  F004         	goto	u7591
  4363  000824  EF17  F004         	goto	u7590
  4364  000828                     u7591:
  4365  000828  FFFF               	dw	65535	; assembler added errata NOP
  4366  00082A  EF1B  F004         	goto	l7244
  4367  00082E                     u7590:
  4368  00082E  FFFF               	dw	65535	; assembler added errata NOP
  4369  000830  8E44               	bsf	(___fladd@b+2)^0,7,c
  4370  000832  EF1D  F004         	goto	l7246
  4371  000836                     l7244:
  4372  000836  FFFF               	dw	65535	; assembler added errata NOP
  4373  000838  9E44               	bcf	(___fladd@b+2)^0,7,c
  4374  00083A                     l7246:
  4375  00083A  FFFF               	dw	65535	; assembler added errata NOP
  4376  00083C  90D8               	bcf	status,0,c
  4377  00083E  3050               	rrcf	___fladd@bexp^0,w,c
  4378  000840  6E45               	movwf	(___fladd@b+3)^0,c
  4379  000842  AE4E               	btfss	___fladd@signs^0,7,c
  4380  000844  EF26  F004         	goto	u7601
  4381  000848  EF29  F004         	goto	u7600
  4382  00084C                     u7601:
  4383  00084C  FFFF               	dw	65535	; assembler added errata NOP
  4384  00084E  EF2B  F004         	goto	l7252
  4385  000852                     u7600:
  4386  000852  FFFF               	dw	65535	; assembler added errata NOP
  4387  000854  8E45               	bsf	(___fladd@b+3)^0,7,c
  4388  000856                     l7252:
  4389  000856  FFFF               	dw	65535	; assembler added errata NOP
  4390  000858  C042  F042         	movff	___fladd@b,?___fladd
  4391  00085C  C043  F043         	movff	___fladd@b+1,?___fladd+1
  4392  000860  C044  F044         	movff	___fladd@b+2,?___fladd+2
  4393  000864  C045  F045         	movff	___fladd@b+3,?___fladd+3
  4394  000868                     l1618:
  4395  000868  FFFF               	dw	65535	; assembler added errata NOP
  4396  00086A  0012               	return		;funcret
  4397  00086C  FFFF               	dw	65535	; errata NOP
  4398  00086E                     __end_of___fladd:
  4399                           	opt callstack 0
  4400                           
  4401 ;; *************** function _tmp75_read_temp *****************
  4402 ;; Defined at:
  4403 ;;		line 30 in file "../../libraries/lib_comp/tmp75.c"
  4404 ;; Parameters:    Size  Location     Type
  4405 ;;  bus_id          1    wreg     enum E1909
  4406 ;;  dev_addr        1    8[COMRAM] unsigned char 
  4407 ;;  temp            2    9[COMRAM] PTR unsigned short 
  4408 ;;		 -> main@tmp75_temp(2), 
  4409 ;; Auto vars:     Size  Location     Type
  4410 ;;  bus_id          1   18[COMRAM] enum E1909
  4411 ;;  tmp             2   14[COMRAM] unsigned short 
  4412 ;;  i2cbyte2        1   17[COMRAM] unsigned char 
  4413 ;;  i2cbyte1        1   16[COMRAM] unsigned char 
  4414 ;; Return value:  Size  Location     Type
  4415 ;;                  1    wreg      enum E1898
  4416 ;; Registers used:
  4417 ;;		wreg, fsr2l, fsr2h, status,2, status,0, cstack
  4418 ;; Tracked objects:
  4419 ;;		On entry : 0/0
  4420 ;;		On exit  : 0/0
  4421 ;;		Unchanged: 0/0
  4422 ;; Data sizes:     COMRAM   BANK0   BANK1   BANK2   BANK3   BANK4   BANK5
  4423 ;;      Params:         3       0       0       0       0       0       0
  4424 ;;      Locals:         5       0       0       0       0       0       0
  4425 ;;      Temps:          3       0       0       0       0       0       0
  4426 ;;      Totals:        11       0       0       0       0       0       0
  4427 ;;Total ram usage:       11 bytes
  4428 ;; Hardware stack levels used:    1
  4429 ;; Hardware stack levels required when called:    3
  4430 ;; This function calls:
  4431 ;;		_i2c_read
  4432 ;;		_i2c_rstart
  4433 ;;		_i2c_start
  4434 ;;		_i2c_stop
  4435 ;;		_i2c_write
  4436 ;; This function is called by:
  4437 ;;		_main
  4438 ;; This function uses a non-reentrant model
  4439 ;;
  4440                           
  4441                           	psect	text8
  4442  0015E4                     __ptext8:
  4443                           	opt callstack 0
  4444  0015E4                     _tmp75_read_temp:
  4445                           	opt callstack 0
  4446  0015E4  FFFF               	dw	65535	; assembler added errata NOP
  4447                           
  4448                           ;incstack = 0
  4449                           ;tmp75_read_temp@bus_id stored from wreg
  4450  0015E6  6E13               	movwf	tmp75_read_temp@bus_id^0,c
  4451  0015E8                     
  4452                           ;../../libraries/lib_comp/tmp75.c: 33:     u8 i2cbyte1 = 0;
  4453  0015E8  0E00               	movlw	0
  4454  0015EA  6E11               	movwf	tmp75_read_temp@i2cbyte1^0,c
  4455                           
  4456                           ;../../libraries/lib_comp/tmp75.c: 34:     u8 i2cbyte2 = 0;
  4457  0015EC  0E00               	movlw	0
  4458  0015EE  6E12               	movwf	tmp75_read_temp@i2cbyte2^0,c
  4459  0015F0                     
  4460                           ;../../libraries/lib_comp/tmp75.c: 36:     if (i2c_start (bus_id) != SUCCESS)
  4461  0015F0  5013               	movf	tmp75_read_temp@bus_id^0,w,c
  4462  0015F2  EC5A  F014         	call	_i2c_start
  4463  0015F6  0900               	iorlw	0
  4464  0015F8  B4D8               	btfsc	status,2,c
  4465  0015FA  EF01  F00B         	goto	u8501
  4466  0015FE  EF04  F00B         	goto	u8500
  4467  001602                     u8501:
  4468  001602  FFFF               	dw	65535	; assembler added errata NOP
  4469  001604  EF07  F00B         	goto	l7870
  4470  001608                     u8500:
  4471  001608  FFFF               	dw	65535	; assembler added errata NOP
  4472  00160A  EFAB  F00B         	goto	l714
  4473  00160E                     l7870:
  4474  00160E  FFFF               	dw	65535	; assembler added errata NOP
  4475                           
  4476                           ;../../libraries/lib_comp/tmp75.c: 39:     if (i2c_write (bus_id, (dev_addr<<1) & 0xFE) 
      +                          != SUCCESS)
  4477  001610  5009               	movf	tmp75_read_temp@dev_addr^0,w,c
  4478  001612  2409               	addwf	tmp75_read_temp@dev_addr^0,w,c
  4479  001614  0BFE               	andlw	254
  4480  001616  6E03               	movwf	i2c_write@data^0,c
  4481  001618  5013               	movf	tmp75_read_temp@bus_id^0,w,c
  4482  00161A  EC69  F014         	call	_i2c_write
  4483  00161E  0900               	iorlw	0
  4484  001620  B4D8               	btfsc	status,2,c
  4485  001622  EF15  F00B         	goto	u8511
  4486  001626  EF18  F00B         	goto	u8510
  4487  00162A                     u8511:
  4488  00162A  FFFF               	dw	65535	; assembler added errata NOP
  4489  00162C  EF1B  F00B         	goto	l7874
  4490  001630                     u8510:
  4491  001630  FFFF               	dw	65535	; assembler added errata NOP
  4492  001632  EFAB  F00B         	goto	l714
  4493  001636                     l7874:
  4494  001636  FFFF               	dw	65535	; assembler added errata NOP
  4495                           
  4496                           ;../../libraries/lib_comp/tmp75.c: 42:     if (i2c_write (bus_id, 0x00) != SUCCESS)
  4497  001638  0E00               	movlw	0
  4498  00163A  6E03               	movwf	i2c_write@data^0,c
  4499  00163C  5013               	movf	tmp75_read_temp@bus_id^0,w,c
  4500  00163E  EC69  F014         	call	_i2c_write
  4501  001642  0900               	iorlw	0
  4502  001644  B4D8               	btfsc	status,2,c
  4503  001646  EF27  F00B         	goto	u8521
  4504  00164A  EF2A  F00B         	goto	u8520
  4505  00164E                     u8521:
  4506  00164E  FFFF               	dw	65535	; assembler added errata NOP
  4507  001650  EF2D  F00B         	goto	l7878
  4508  001654                     u8520:
  4509  001654  FFFF               	dw	65535	; assembler added errata NOP
  4510  001656  EFAB  F00B         	goto	l714
  4511  00165A                     l7878:
  4512  00165A  FFFF               	dw	65535	; assembler added errata NOP
  4513                           
  4514                           ;../../libraries/lib_comp/tmp75.c: 45:     if (i2c_rstart (bus_id) != SUCCESS)
  4515  00165C  5013               	movf	tmp75_read_temp@bus_id^0,w,c
  4516  00165E  EC3C  F014         	call	_i2c_rstart
  4517  001662  0900               	iorlw	0
  4518  001664  B4D8               	btfsc	status,2,c
  4519  001666  EF37  F00B         	goto	u8531
  4520  00166A  EF3A  F00B         	goto	u8530
  4521  00166E                     u8531:
  4522  00166E  FFFF               	dw	65535	; assembler added errata NOP
  4523  001670  EF3D  F00B         	goto	l7882
  4524  001674                     u8530:
  4525  001674  FFFF               	dw	65535	; assembler added errata NOP
  4526  001676  EFAB  F00B         	goto	l714
  4527  00167A                     l7882:
  4528  00167A  FFFF               	dw	65535	; assembler added errata NOP
  4529                           
  4530                           ;../../libraries/lib_comp/tmp75.c: 49:     if (i2c_write (bus_id, (dev_addr<<1) | 0x01) 
      +                          != SUCCESS)
  4531  00167C  80D8               	bsf	status,0,c
  4532  00167E  3409               	rlcf	tmp75_read_temp@dev_addr^0,w,c
  4533  001680  6E03               	movwf	i2c_write@data^0,c
  4534  001682  5013               	movf	tmp75_read_temp@bus_id^0,w,c
  4535  001684  EC69  F014         	call	_i2c_write
  4536  001688  0900               	iorlw	0
  4537  00168A  B4D8               	btfsc	status,2,c
  4538  00168C  EF4A  F00B         	goto	u8541
  4539  001690  EF4D  F00B         	goto	u8540
  4540  001694                     u8541:
  4541  001694  FFFF               	dw	65535	; assembler added errata NOP
  4542  001696  EF50  F00B         	goto	l7886
  4543  00169A                     u8540:
  4544  00169A  FFFF               	dw	65535	; assembler added errata NOP
  4545  00169C  EFAB  F00B         	goto	l714
  4546  0016A0                     l7886:
  4547  0016A0  FFFF               	dw	65535	; assembler added errata NOP
  4548                           
  4549                           ;../../libraries/lib_comp/tmp75.c: 53:     if (i2c_read (bus_id, 0, &i2cbyte1) != SUCCES
      +                          S)
  4550  0016A2  0E00               	movlw	0
  4551  0016A4  6E04               	movwf	i2c_read@ack^0,c
  4552  0016A6  0E11               	movlw	low tmp75_read_temp@i2cbyte1
  4553  0016A8  6E05               	movwf	i2c_read@data^0,c
  4554  0016AA  0E00               	movlw	high tmp75_read_temp@i2cbyte1
  4555  0016AC  6E06               	movwf	(i2c_read@data+1)^0,c
  4556  0016AE  5013               	movf	tmp75_read_temp@bus_id^0,w,c
  4557  0016B0  ECF1  F013         	call	_i2c_read
  4558  0016B4  0900               	iorlw	0
  4559  0016B6  B4D8               	btfsc	status,2,c
  4560  0016B8  EF60  F00B         	goto	u8551
  4561  0016BC  EF63  F00B         	goto	u8550
  4562  0016C0                     u8551:
  4563  0016C0  FFFF               	dw	65535	; assembler added errata NOP
  4564  0016C2  EF66  F00B         	goto	l7890
  4565  0016C6                     u8550:
  4566  0016C6  FFFF               	dw	65535	; assembler added errata NOP
  4567  0016C8  EFAB  F00B         	goto	l714
  4568  0016CC                     l7890:
  4569  0016CC  FFFF               	dw	65535	; assembler added errata NOP
  4570                           
  4571                           ;../../libraries/lib_comp/tmp75.c: 57:     if (i2c_read (bus_id, 1, &i2cbyte2) != SUCCES
      +                          S)
  4572  0016CE  0E01               	movlw	1
  4573  0016D0  6E04               	movwf	i2c_read@ack^0,c
  4574  0016D2  0E12               	movlw	low tmp75_read_temp@i2cbyte2
  4575  0016D4  6E05               	movwf	i2c_read@data^0,c
  4576  0016D6  0E00               	movlw	high tmp75_read_temp@i2cbyte2
  4577  0016D8  6E06               	movwf	(i2c_read@data+1)^0,c
  4578  0016DA  5013               	movf	tmp75_read_temp@bus_id^0,w,c
  4579  0016DC  ECF1  F013         	call	_i2c_read
  4580  0016E0  0900               	iorlw	0
  4581  0016E2  B4D8               	btfsc	status,2,c
  4582  0016E4  EF76  F00B         	goto	u8561
  4583  0016E8  EF79  F00B         	goto	u8560
  4584  0016EC                     u8561:
  4585  0016EC  FFFF               	dw	65535	; assembler added errata NOP
  4586  0016EE  EF7C  F00B         	goto	l7894
  4587  0016F2                     u8560:
  4588  0016F2  FFFF               	dw	65535	; assembler added errata NOP
  4589  0016F4  EFAB  F00B         	goto	l714
  4590  0016F8                     l7894:
  4591  0016F8  FFFF               	dw	65535	; assembler added errata NOP
  4592                           
  4593                           ;../../libraries/lib_comp/tmp75.c: 60:     if (i2c_stop (bus_id) != SUCCESS)
  4594  0016FA  5013               	movf	tmp75_read_temp@bus_id^0,w,c
  4595  0016FC  EC4B  F014         	call	_i2c_stop
  4596  001700  0900               	iorlw	0
  4597  001702  B4D8               	btfsc	status,2,c
  4598  001704  EF86  F00B         	goto	u8571
  4599  001708  EF89  F00B         	goto	u8570
  4600  00170C                     u8571:
  4601  00170C  FFFF               	dw	65535	; assembler added errata NOP
  4602  00170E  EF8C  F00B         	goto	l7898
  4603  001712                     u8570:
  4604  001712  FFFF               	dw	65535	; assembler added errata NOP
  4605  001714  EFAB  F00B         	goto	l714
  4606  001718                     l7898:
  4607  001718  FFFF               	dw	65535	; assembler added errata NOP
  4608                           
  4609                           ;../../libraries/lib_comp/tmp75.c: 63:     tmp = (s16) (i2cbyte1<<8);
  4610  00171A  5011               	movf	tmp75_read_temp@i2cbyte1^0,w,c
  4611  00171C  6E10               	movwf	(tmp75_read_temp@tmp+1)^0,c
  4612  00171E  6A0F               	clrf	tmp75_read_temp@tmp^0,c
  4613  001720                     
  4614                           ;../../libraries/lib_comp/tmp75.c: 64:     tmp = (tmp | i2cbyte2)>>4;
  4615  001720  5012               	movf	tmp75_read_temp@i2cbyte2^0,w,c
  4616  001722  100F               	iorwf	tmp75_read_temp@tmp^0,w,c
  4617  001724  6E0C               	movwf	??_tmp75_read_temp^0,c
  4618  001726  0E00               	movlw	0
  4619  001728  1010               	iorwf	(tmp75_read_temp@tmp+1)^0,w,c
  4620  00172A  6E0D               	movwf	(??_tmp75_read_temp+1)^0,c
  4621  00172C  0E04               	movlw	4
  4622  00172E  6E0E               	movwf	(??_tmp75_read_temp+2)^0,c
  4623  001730                     u8585:
  4624  001730  FFFF               	dw	65535	; assembler added errata NOP
  4625  001732  90D8               	bcf	status,0,c
  4626  001734  320D               	rrcf	(??_tmp75_read_temp+1)^0,f,c
  4627  001736  320C               	rrcf	??_tmp75_read_temp^0,f,c
  4628  001738  2E0E               	decfsz	(??_tmp75_read_temp+2)^0,f,c
  4629  00173A  EF98  F00B         	goto	u8585
  4630  00173E  C00C  F00F         	movff	??_tmp75_read_temp,tmp75_read_temp@tmp
  4631  001742  C00D  F010         	movff	??_tmp75_read_temp+1,tmp75_read_temp@tmp+1
  4632  001746                     
  4633                           ;../../libraries/lib_comp/tmp75.c: 66:     *temp = tmp;
  4634  001746  C00A  FFD9         	movff	tmp75_read_temp@temp,fsr2l
  4635  00174A  C00B  FFDA         	movff	tmp75_read_temp@temp+1,fsr2h
  4636  00174E  C00F  FFDE         	movff	tmp75_read_temp@tmp,postinc2
  4637  001752  C010  FFDD         	movff	tmp75_read_temp@tmp+1,postdec2
  4638  001756                     l714:
  4639  001756  FFFF               	dw	65535	; assembler added errata NOP
  4640  001758  0012               	return		;funcret
  4641  00175A  FFFF               	dw	65535	; errata NOP
  4642  00175C                     __end_of_tmp75_read_temp:
  4643                           	opt callstack 0
  4644                           
  4645 ;; *************** function _i2c_rstart *****************
  4646 ;; Defined at:
  4647 ;;		line 179 in file "../../libraries/lib_pic/i2c.c"
  4648 ;; Parameters:    Size  Location     Type
  4649 ;;  bus_id          1    wreg     enum E1909
  4650 ;; Auto vars:     Size  Location     Type
  4651 ;;  bus_id          1    0[COMRAM] enum E1909
  4652 ;;  result          1    0        enum E1898
  4653 ;; Return value:  Size  Location     Type
  4654 ;;                  1    wreg      enum E39
  4655 ;; Registers used:
  4656 ;;		wreg, status,2
  4657 ;; Tracked objects:
  4658 ;;		On entry : 0/0
  4659 ;;		On exit  : 0/0
  4660 ;;		Unchanged: 0/0
  4661 ;; Data sizes:     COMRAM   BANK0   BANK1   BANK2   BANK3   BANK4   BANK5
  4662 ;;      Params:         0       0       0       0       0       0       0
  4663 ;;      Locals:         1       0       0       0       0       0       0
  4664 ;;      Temps:          0       0       0       0       0       0       0
  4665 ;;      Totals:         1       0       0       0       0       0       0
  4666 ;;Total ram usage:        1 bytes
  4667 ;; Hardware stack levels used:    1
  4668 ;; Hardware stack levels required when called:    1
  4669 ;; This function calls:
  4670 ;;		Nothing
  4671 ;; This function is called by:
  4672 ;;		_tmp75_read_temp
  4673 ;;		_ds1621_read_temp
  4674 ;;		_i2c_read_reg
  4675 ;;		_i2c_dump
  4676 ;; This function uses a non-reentrant model
  4677 ;;
  4678                           
  4679                           	psect	text9
  4680  002878                     __ptext9:
  4681                           	opt callstack 0
  4682  002878                     _i2c_rstart:
  4683                           	opt callstack 0
  4684  002878  FFFF               	dw	65535	; assembler added errata NOP
  4685  00287A                     
  4686                           ;../../libraries/lib_pic/i2c.c: 185:         SSPCON2bits.RSEN = 1;
  4687  00287A  82C5               	bsf	197,1,c	;volatile
  4688  00287C                     l357:
  4689  00287C  FFFF               	dw	65535	; assembler added errata NOP
  4690  00287E  B2C5               	btfsc	197,1,c	;volatile
  4691  002880  EF44  F014         	goto	u7151
  4692  002884  EF47  F014         	goto	u7150
  4693  002888                     u7151:
  4694  002888  FFFF               	dw	65535	; assembler added errata NOP
  4695  00288A  EF3E  F014         	goto	l357
  4696  00288E                     u7150:
  4697  00288E  FFFF               	dw	65535	; assembler added errata NOP
  4698  002890                     
  4699                           ;../../libraries/lib_pic/i2c.c: 213:     return result;
  4700  002890  0E00               	movlw	0
  4701  002892  0012               	return		;funcret
  4702  002894  FFFF               	dw	65535	; errata NOP
  4703  002896                     __end_of_i2c_rstart:
  4704                           	opt callstack 0
  4705                           
  4706 ;; *************** function _i2c_read *****************
  4707 ;; Defined at:
  4708 ;;		line 316 in file "../../libraries/lib_pic/i2c.c"
  4709 ;; Parameters:    Size  Location     Type
  4710 ;;  bus_id          1    wreg     enum E1909
  4711 ;;  ack             1    3[COMRAM] unsigned char 
  4712 ;;  data            2    4[COMRAM] PTR unsigned char 
  4713 ;;		 -> ds1307_get_time@tmp(1), tmp75_read_temp@i2cbyte2(1), tmp75_read_temp@i2cbyte1(1), i2c_dump@i2c_rx(1), 
  4714 ;;		 -> command_line_interpreter@tmp(1), 
  4715 ;; Auto vars:     Size  Location     Type
  4716 ;;  bus_id          1    7[COMRAM] enum E1909
  4717 ;;  result          1    0        enum E1898
  4718 ;; Return value:  Size  Location     Type
  4719 ;;                  1    wreg      enum E39
  4720 ;; Registers used:
  4721 ;;		wreg, fsr2l, fsr2h, status,2, cstack
  4722 ;; Tracked objects:
  4723 ;;		On entry : 0/0
  4724 ;;		On exit  : 0/0
  4725 ;;		Unchanged: 0/0
  4726 ;; Data sizes:     COMRAM   BANK0   BANK1   BANK2   BANK3   BANK4   BANK5
  4727 ;;      Params:         3       0       0       0       0       0       0
  4728 ;;      Locals:         2       0       0       0       0       0       0
  4729 ;;      Temps:          0       0       0       0       0       0       0
  4730 ;;      Totals:         5       0       0       0       0       0       0
  4731 ;;Total ram usage:        5 bytes
  4732 ;; Hardware stack levels used:    1
  4733 ;; Hardware stack levels required when called:    2
  4734 ;; This function calls:
  4735 ;;		_i2c_send_ack
  4736 ;; This function is called by:
  4737 ;;		_tmp75_read_temp
  4738 ;;		_ds1621_read_temp
  4739 ;;		_i2c_read_reg
  4740 ;;		_i2c_dump
  4741 ;;		_pcf8574_read_port
  4742 ;; This function uses a non-reentrant model
  4743 ;;
  4744                           
  4745                           	psect	text10
  4746  0027E2                     __ptext10:
  4747                           	opt callstack 0
  4748  0027E2                     _i2c_read:
  4749                           	opt callstack 0
  4750  0027E2  FFFF               	dw	65535	; assembler added errata NOP
  4751                           
  4752                           ;incstack = 0
  4753                           ;i2c_read@bus_id stored from wreg
  4754  0027E4  6E08               	movwf	i2c_read@bus_id^0,c
  4755  0027E6                     
  4756                           ;../../libraries/lib_pic/i2c.c: 322:         SSPCON2bits.RCEN = 1;
  4757  0027E6  86C5               	bsf	197,3,c	;volatile
  4758  0027E8                     l378:
  4759  0027E8  FFFF               	dw	65535	; assembler added errata NOP
  4760  0027EA  A69E               	btfss	158,3,c	;volatile
  4761  0027EC  EFFA  F013         	goto	u7161
  4762  0027F0  EFFD  F013         	goto	u7160
  4763  0027F4                     u7161:
  4764  0027F4  FFFF               	dw	65535	; assembler added errata NOP
  4765  0027F6  EFF4  F013         	goto	l378
  4766  0027FA                     u7160:
  4767  0027FA  FFFF               	dw	65535	; assembler added errata NOP
  4768  0027FC                     
  4769                           ;../../libraries/lib_pic/i2c.c: 324:         PIR1bits.SSPIF = 0;
  4770  0027FC  969E               	bcf	158,3,c	;volatile
  4771  0027FE                     
  4772                           ;../../libraries/lib_pic/i2c.c: 325:         i2c_send_ack(bus_id, ack);
  4773  0027FE  C004  F002         	movff	i2c_read@ack,i2c_send_ack@Ack
  4774  002802  5008               	movf	i2c_read@bus_id^0,w,c
  4775  002804  EC29  F014         	call	_i2c_send_ack
  4776  002808                     
  4777                           ;../../libraries/lib_pic/i2c.c: 326:         *data = SSPBUF;
  4778  002808  C005  FFD9         	movff	i2c_read@data,fsr2l
  4779  00280C  C006  FFDA         	movff	i2c_read@data+1,fsr2h
  4780  002810  CFC9 FFDF          	movff	4041,indf2	;volatile
  4781  002814                     
  4782                           ;../../libraries/lib_pic/i2c.c: 358:     return ERROR;
  4783  002814  0E01               	movlw	1
  4784  002816  0012               	return		;funcret
  4785  002818  FFFF               	dw	65535	; errata NOP
  4786  00281A                     __end_of_i2c_read:
  4787                           	opt callstack 0
  4788                           
  4789 ;; *************** function _i2c_send_ack *****************
  4790 ;; Defined at:
  4791 ;;		line 219 in file "../../libraries/lib_pic/i2c.c"
  4792 ;; Parameters:    Size  Location     Type
  4793 ;;  bus_id          1    wreg     enum E1909
  4794 ;;  Ack             1    1[COMRAM] unsigned char 
  4795 ;; Auto vars:     Size  Location     Type
  4796 ;;  bus_id          1    0[COMRAM] enum E1909
  4797 ;;  result          1    0        enum E1898
  4798 ;; Return value:  Size  Location     Type
  4799 ;;                  1    wreg      enum E1898
  4800 ;; Registers used:
  4801 ;;		wreg, status,2
  4802 ;; Tracked objects:
  4803 ;;		On entry : 0/0
  4804 ;;		On exit  : 0/0
  4805 ;;		Unchanged: 0/0
  4806 ;; Data sizes:     COMRAM   BANK0   BANK1   BANK2   BANK3   BANK4   BANK5
  4807 ;;      Params:         1       0       0       0       0       0       0
  4808 ;;      Locals:         1       0       0       0       0       0       0
  4809 ;;      Temps:          0       0       0       0       0       0       0
  4810 ;;      Totals:         2       0       0       0       0       0       0
  4811 ;;Total ram usage:        2 bytes
  4812 ;; Hardware stack levels used:    1
  4813 ;; Hardware stack levels required when called:    1
  4814 ;; This function calls:
  4815 ;;		Nothing
  4816 ;; This function is called by:
  4817 ;;		_i2c_read
  4818 ;; This function uses a non-reentrant model
  4819 ;;
  4820                           
  4821                           	psect	text11
  4822  002852                     __ptext11:
  4823                           	opt callstack 0
  4824  002852                     _i2c_send_ack:
  4825                           	opt callstack 0
  4826  002852  FFFF               	dw	65535	; assembler added errata NOP
  4827  002854                     
  4828                           ;../../libraries/lib_pic/i2c.c: 225:         SSPCON2bits.ACKDT = Ack;
  4829  002854  B002               	btfsc	i2c_send_ack@Ack^0,0,c
  4830  002856  D002               	bra	u7005
  4831  002858  9AC5               	bcf	197,5,c	;volatile
  4832  00285A  D001               	bra	u7006
  4833  00285C                     u7005:
  4834  00285C  8AC5               	bsf	197,5,c	;volatile
  4835  00285E                     u7006:
  4836  00285E                     
  4837                           ;../../libraries/lib_pic/i2c.c: 226:         SSPCON2bits.ACKEN = 1;
  4838  00285E  88C5               	bsf	197,4,c	;volatile
  4839  002860                     l363:
  4840  002860  FFFF               	dw	65535	; assembler added errata NOP
  4841  002862  B8C5               	btfsc	197,4,c	;volatile
  4842  002864  EF36  F014         	goto	u7011
  4843  002868  EF39  F014         	goto	u7010
  4844  00286C                     u7011:
  4845  00286C  FFFF               	dw	65535	; assembler added errata NOP
  4846  00286E  EF30  F014         	goto	l363
  4847  002872                     u7010:
  4848  002872  FFFF               	dw	65535	; assembler added errata NOP
  4849  002874  0012               	return		;funcret
  4850  002876  FFFF               	dw	65535	; errata NOP
  4851  002878                     __end_of_i2c_send_ack:
  4852                           	opt callstack 0
  4853                           
  4854 ;; *************** function _tmp75_configure *****************
  4855 ;; Defined at:
  4856 ;;		line 8 in file "../../libraries/lib_comp/tmp75.c"
  4857 ;; Parameters:    Size  Location     Type
  4858 ;;  bus_id          1    wreg     enum E1909
  4859 ;;  dev_addr        1    9[COMRAM] unsigned char 
  4860 ;; Auto vars:     Size  Location     Type
  4861 ;;  bus_id          1   10[COMRAM] enum E1909
  4862 ;; Return value:  Size  Location     Type
  4863 ;;                  1    wreg      enum E1898
  4864 ;; Registers used:
  4865 ;;		wreg, status,2, status,0, cstack
  4866 ;; Tracked objects:
  4867 ;;		On entry : 0/0
  4868 ;;		On exit  : 0/0
  4869 ;;		Unchanged: 0/0
  4870 ;; Data sizes:     COMRAM   BANK0   BANK1   BANK2   BANK3   BANK4   BANK5
  4871 ;;      Params:         1       0       0       0       0       0       0
  4872 ;;      Locals:         1       0       0       0       0       0       0
  4873 ;;      Temps:          0       0       0       0       0       0       0
  4874 ;;      Totals:         2       0       0       0       0       0       0
  4875 ;;Total ram usage:        2 bytes
  4876 ;; Hardware stack levels used:    1
  4877 ;; Hardware stack levels required when called:    4
  4878 ;; This function calls:
  4879 ;;		_i2c_write_reg
  4880 ;; This function is called by:
  4881 ;;		_main
  4882 ;; This function uses a non-reentrant model
  4883 ;;
  4884                           
  4885                           	psect	text12
  4886  002150                     __ptext12:
  4887                           	opt callstack 0
  4888  002150                     _tmp75_configure:
  4889                           	opt callstack 0
  4890  002150  FFFF               	dw	65535	; assembler added errata NOP
  4891                           
  4892                           ;incstack = 0
  4893                           ;tmp75_configure@bus_id stored from wreg
  4894  002152  6E0B               	movwf	tmp75_configure@bus_id^0,c
  4895  002154                     
  4896                           ;../../libraries/lib_comp/tmp75.c: 8: result_t tmp75_configure(I2C_BUS bus_id, u8 dev_ad
      +                          dr);../../libraries/lib_comp/tmp75.c: 9: {;../../libraries/lib_comp/tmp75.c: 11:     if 
      +                          (i2c_write_reg(bus_id, dev_addr, 0x01, 0x60) != SUCCESS)
  4897  002154  C00A  F006         	movff	tmp75_configure@dev_addr,i2c_write_reg@adr_chip
  4898  002158  0E01               	movlw	1
  4899  00215A  6E07               	movwf	i2c_write_reg@adr_reg^0,c
  4900  00215C  0E60               	movlw	96
  4901  00215E  6E08               	movwf	i2c_write_reg@data^0,c
  4902  002160  500B               	movf	tmp75_configure@bus_id^0,w,c
  4903  002162  EC3F  F00F         	call	_i2c_write_reg
  4904  002166  0900               	iorlw	0
  4905  002168  B4D8               	btfsc	status,2,c
  4906  00216A  EFB9  F010         	goto	u8391
  4907  00216E  EFBC  F010         	goto	u8390
  4908  002172                     u8391:
  4909  002172  FFFF               	dw	65535	; assembler added errata NOP
  4910  002174  EFC1  F010         	goto	l7780
  4911  002178                     u8390:
  4912  002178  FFFF               	dw	65535	; assembler added errata NOP
  4913  00217A                     l7776:
  4914  00217A  FFFF               	dw	65535	; assembler added errata NOP
  4915                           
  4916                           ;../../libraries/lib_comp/tmp75.c: 12:         return ERROR;
  4917  00217C  0E01               	movlw	1
  4918  00217E  EFEF  F010         	goto	l708
  4919  002182                     l7780:
  4920  002182  FFFF               	dw	65535	; assembler added errata NOP
  4921                           
  4922                           ;../../libraries/lib_comp/tmp75.c: 15:     if (i2c_write_reg(bus_id, dev_addr, 0x02, 0x0
      +                          0) != SUCCESS)
  4923  002184  C00A  F006         	movff	tmp75_configure@dev_addr,i2c_write_reg@adr_chip
  4924  002188  0E02               	movlw	2
  4925  00218A  6E07               	movwf	i2c_write_reg@adr_reg^0,c
  4926  00218C  0E00               	movlw	0
  4927  00218E  6E08               	movwf	i2c_write_reg@data^0,c
  4928  002190  500B               	movf	tmp75_configure@bus_id^0,w,c
  4929  002192  EC3F  F00F         	call	_i2c_write_reg
  4930  002196  0900               	iorlw	0
  4931  002198  B4D8               	btfsc	status,2,c
  4932  00219A  EFD1  F010         	goto	u8401
  4933  00219E  EFD4  F010         	goto	u8400
  4934  0021A2                     u8401:
  4935  0021A2  FFFF               	dw	65535	; assembler added errata NOP
  4936  0021A4  EFD7  F010         	goto	l7786
  4937  0021A8                     u8400:
  4938  0021A8  FFFF               	dw	65535	; assembler added errata NOP
  4939  0021AA  EFBD  F010         	goto	l7776
  4940  0021AE                     l7786:
  4941  0021AE  FFFF               	dw	65535	; assembler added errata NOP
  4942                           
  4943                           ;../../libraries/lib_comp/tmp75.c: 19:     if (i2c_write_reg(bus_id, dev_addr, 0x03, 0x3
      +                          0) != SUCCESS)
  4944  0021B0  C00A  F006         	movff	tmp75_configure@dev_addr,i2c_write_reg@adr_chip
  4945  0021B4  0E03               	movlw	3
  4946  0021B6  6E07               	movwf	i2c_write_reg@adr_reg^0,c
  4947  0021B8  0E30               	movlw	48
  4948  0021BA  6E08               	movwf	i2c_write_reg@data^0,c
  4949  0021BC  500B               	movf	tmp75_configure@bus_id^0,w,c
  4950  0021BE  EC3F  F00F         	call	_i2c_write_reg
  4951  0021C2  0900               	iorlw	0
  4952  0021C4  B4D8               	btfsc	status,2,c
  4953  0021C6  EFE7  F010         	goto	u8411
  4954  0021CA  EFEA  F010         	goto	u8410
  4955  0021CE                     u8411:
  4956  0021CE  FFFF               	dw	65535	; assembler added errata NOP
  4957  0021D0  EFED  F010         	goto	l7792
  4958  0021D4                     u8410:
  4959  0021D4  FFFF               	dw	65535	; assembler added errata NOP
  4960  0021D6  EFBD  F010         	goto	l7776
  4961  0021DA                     l7792:
  4962  0021DA  FFFF               	dw	65535	; assembler added errata NOP
  4963                           
  4964                           ;../../libraries/lib_comp/tmp75.c: 22:     return SUCCESS;
  4965  0021DC  0E00               	movlw	0
  4966  0021DE                     l708:
  4967  0021DE  FFFF               	dw	65535	; assembler added errata NOP
  4968  0021E0  0012               	return		;funcret
  4969  0021E2  FFFF               	dw	65535	; errata NOP
  4970  0021E4                     __end_of_tmp75_configure:
  4971                           	opt callstack 0
  4972                           
  4973 ;; *************** function _i2c_write_reg *****************
  4974 ;; Defined at:
  4975 ;;		line 551 in file "../../libraries/lib_pic/i2c.c"
  4976 ;; Parameters:    Size  Location     Type
  4977 ;;  bus_id          1    wreg     enum E1909
  4978 ;;  adr_chip        1    5[COMRAM] unsigned char 
  4979 ;;  adr_reg         1    6[COMRAM] unsigned char 
  4980 ;;  data            1    7[COMRAM] unsigned char 
  4981 ;; Auto vars:     Size  Location     Type
  4982 ;;  bus_id          1    8[COMRAM] enum E1909
  4983 ;; Return value:  Size  Location     Type
  4984 ;;                  1    wreg      enum E39
  4985 ;; Registers used:
  4986 ;;		wreg, status,2, status,0, cstack
  4987 ;; Tracked objects:
  4988 ;;		On entry : 0/0
  4989 ;;		On exit  : 0/0
  4990 ;;		Unchanged: 0/0
  4991 ;; Data sizes:     COMRAM   BANK0   BANK1   BANK2   BANK3   BANK4   BANK5
  4992 ;;      Params:         3       0       0       0       0       0       0
  4993 ;;      Locals:         1       0       0       0       0       0       0
  4994 ;;      Temps:          0       0       0       0       0       0       0
  4995 ;;      Totals:         4       0       0       0       0       0       0
  4996 ;;Total ram usage:        4 bytes
  4997 ;; Hardware stack levels used:    1
  4998 ;; Hardware stack levels required when called:    3
  4999 ;; This function calls:
  5000 ;;		_i2c_start
  5001 ;;		_i2c_stop
  5002 ;;		_i2c_write
  5003 ;; This function is called by:
  5004 ;;		_tmp75_configure
  5005 ;;		_command_line_interpreter
  5006 ;; This function uses a non-reentrant model
  5007 ;;
  5008                           
  5009                           	psect	text13
  5010  001E7E                     __ptext13:
  5011                           	opt callstack 0
  5012  001E7E                     _i2c_write_reg:
  5013                           	opt callstack 0
  5014  001E7E  FFFF               	dw	65535	; assembler added errata NOP
  5015                           
  5016                           ;incstack = 0
  5017                           ;i2c_write_reg@bus_id stored from wreg
  5018  001E80  6E09               	movwf	i2c_write_reg@bus_id^0,c
  5019  001E82                     
  5020                           ;../../libraries/lib_pic/i2c.c: 551: result_t i2c_write_reg(I2C_BUS bus_id, u8 adr_chip,
      +                           u8 adr_reg, u8 data);../../libraries/lib_pic/i2c.c: 552: {;../../libraries/lib_pic/i2c.
      +                          c: 554:     if (i2c_start(bus_id) != SUCCESS)
  5021  001E82  5009               	movf	i2c_write_reg@bus_id^0,w,c
  5022  001E84  EC5A  F014         	call	_i2c_start
  5023  001E88  0900               	iorlw	0
  5024  001E8A  B4D8               	btfsc	status,2,c
  5025  001E8C  EF4A  F00F         	goto	u7071
  5026  001E90  EF4D  F00F         	goto	u7070
  5027  001E94                     u7071:
  5028  001E94  FFFF               	dw	65535	; assembler added errata NOP
  5029  001E96  EF52  F00F         	goto	l6916
  5030  001E9A                     u7070:
  5031  001E9A  FFFF               	dw	65535	; assembler added errata NOP
  5032  001E9C                     l6912:
  5033  001E9C  FFFF               	dw	65535	; assembler added errata NOP
  5034                           
  5035                           ;../../libraries/lib_pic/i2c.c: 555:         return ERROR;
  5036  001E9E  0E01               	movlw	1
  5037  001EA0  EF9C  F00F         	goto	l411
  5038  001EA4                     l6916:
  5039  001EA4  FFFF               	dw	65535	; assembler added errata NOP
  5040                           
  5041                           ;../../libraries/lib_pic/i2c.c: 558:     if (i2c_write(bus_id, (adr_chip<<1) & 0xFE) != 
      +                          SUCCESS)
  5042  001EA6  5006               	movf	i2c_write_reg@adr_chip^0,w,c
  5043  001EA8  2406               	addwf	i2c_write_reg@adr_chip^0,w,c
  5044  001EAA  0BFE               	andlw	254
  5045  001EAC  6E03               	movwf	i2c_write@data^0,c
  5046  001EAE  5009               	movf	i2c_write_reg@bus_id^0,w,c
  5047  001EB0  EC69  F014         	call	_i2c_write
  5048  001EB4  0900               	iorlw	0
  5049  001EB6  B4D8               	btfsc	status,2,c
  5050  001EB8  EF60  F00F         	goto	u7081
  5051  001EBC  EF63  F00F         	goto	u7080
  5052  001EC0                     u7081:
  5053  001EC0  FFFF               	dw	65535	; assembler added errata NOP
  5054  001EC2  EF66  F00F         	goto	l6922
  5055  001EC6                     u7080:
  5056  001EC6  FFFF               	dw	65535	; assembler added errata NOP
  5057  001EC8  EF4E  F00F         	goto	l6912
  5058  001ECC                     l6922:
  5059  001ECC  FFFF               	dw	65535	; assembler added errata NOP
  5060                           
  5061                           ;../../libraries/lib_pic/i2c.c: 562:     if (i2c_write(bus_id, adr_reg) != SUCCESS)
  5062  001ECE  C007  F003         	movff	i2c_write_reg@adr_reg,i2c_write@data
  5063  001ED2  5009               	movf	i2c_write_reg@bus_id^0,w,c
  5064  001ED4  EC69  F014         	call	_i2c_write
  5065  001ED8  0900               	iorlw	0
  5066  001EDA  B4D8               	btfsc	status,2,c
  5067  001EDC  EF72  F00F         	goto	u7091
  5068  001EE0  EF75  F00F         	goto	u7090
  5069  001EE4                     u7091:
  5070  001EE4  FFFF               	dw	65535	; assembler added errata NOP
  5071  001EE6  EF78  F00F         	goto	l6928
  5072  001EEA                     u7090:
  5073  001EEA  FFFF               	dw	65535	; assembler added errata NOP
  5074  001EEC  EF4E  F00F         	goto	l6912
  5075  001EF0                     l6928:
  5076  001EF0  FFFF               	dw	65535	; assembler added errata NOP
  5077                           
  5078                           ;../../libraries/lib_pic/i2c.c: 566:     if (i2c_write(bus_id, data) != SUCCESS)
  5079  001EF2  C008  F003         	movff	i2c_write_reg@data,i2c_write@data
  5080  001EF6  5009               	movf	i2c_write_reg@bus_id^0,w,c
  5081  001EF8  EC69  F014         	call	_i2c_write
  5082  001EFC  0900               	iorlw	0
  5083  001EFE  B4D8               	btfsc	status,2,c
  5084  001F00  EF84  F00F         	goto	u7101
  5085  001F04  EF87  F00F         	goto	u7100
  5086  001F08                     u7101:
  5087  001F08  FFFF               	dw	65535	; assembler added errata NOP
  5088  001F0A  EF8A  F00F         	goto	l6934
  5089  001F0E                     u7100:
  5090  001F0E  FFFF               	dw	65535	; assembler added errata NOP
  5091  001F10  EF4E  F00F         	goto	l6912
  5092  001F14                     l6934:
  5093  001F14  FFFF               	dw	65535	; assembler added errata NOP
  5094                           
  5095                           ;../../libraries/lib_pic/i2c.c: 570:     if (i2c_stop(bus_id) != SUCCESS)
  5096  001F16  5009               	movf	i2c_write_reg@bus_id^0,w,c
  5097  001F18  EC4B  F014         	call	_i2c_stop
  5098  001F1C  0900               	iorlw	0
  5099  001F1E  B4D8               	btfsc	status,2,c
  5100  001F20  EF94  F00F         	goto	u7111
  5101  001F24  EF97  F00F         	goto	u7110
  5102  001F28                     u7111:
  5103  001F28  FFFF               	dw	65535	; assembler added errata NOP
  5104  001F2A  EF9A  F00F         	goto	l6940
  5105  001F2E                     u7110:
  5106  001F2E  FFFF               	dw	65535	; assembler added errata NOP
  5107  001F30  EF4E  F00F         	goto	l6912
  5108  001F34                     l6940:
  5109  001F34  FFFF               	dw	65535	; assembler added errata NOP
  5110                           
  5111                           ;../../libraries/lib_pic/i2c.c: 573:     return SUCCESS;
  5112  001F36  0E00               	movlw	0
  5113  001F38                     l411:
  5114  001F38  FFFF               	dw	65535	; assembler added errata NOP
  5115  001F3A  0012               	return		;funcret
  5116  001F3C  FFFF               	dw	65535	; errata NOP
  5117  001F3E                     __end_of_i2c_write_reg:
  5118                           	opt callstack 0
  5119                           
  5120 ;; *************** function _timer_init *****************
  5121 ;; Defined at:
  5122 ;;		line 11 in file "../../libraries/lib_pic/timer.c"
  5123 ;; Parameters:    Size  Location     Type
  5124 ;;  id              1    wreg     enum E2390
  5125 ;;  prescaler       1    1[COMRAM] enum E2398
  5126 ;;  postscaler      1    2[COMRAM] enum E2404
  5127 ;;  timer           1    3[COMRAM] unsigned char 
  5128 ;; Auto vars:     Size  Location     Type
  5129 ;;  id              1    5[COMRAM] enum E2390
  5130 ;; Return value:  Size  Location     Type
  5131 ;;                  1    wreg      enum E1898
  5132 ;; Registers used:
  5133 ;;		wreg, status,2, status,0
  5134 ;; Tracked objects:
  5135 ;;		On entry : 0/0
  5136 ;;		On exit  : 0/0
  5137 ;;		Unchanged: 0/0
  5138 ;; Data sizes:     COMRAM   BANK0   BANK1   BANK2   BANK3   BANK4   BANK5
  5139 ;;      Params:         3       0       0       0       0       0       0
  5140 ;;      Locals:         1       0       0       0       0       0       0
  5141 ;;      Temps:          1       0       0       0       0       0       0
  5142 ;;      Totals:         5       0       0       0       0       0       0
  5143 ;;Total ram usage:        5 bytes
  5144 ;; Hardware stack levels used:    1
  5145 ;; Hardware stack levels required when called:    1
  5146 ;; This function calls:
  5147 ;;		Nothing
  5148 ;; This function is called by:
  5149 ;;		_main
  5150 ;; This function uses a non-reentrant model
  5151 ;;
  5152                           
  5153                           	psect	text14
  5154  0021E4                     __ptext14:
  5155                           	opt callstack 0
  5156  0021E4                     _timer_init:
  5157                           	opt callstack 0
  5158  0021E4  FFFF               	dw	65535	; assembler added errata NOP
  5159                           
  5160                           ;incstack = 0
  5161                           ;timer_init@id stored from wreg
  5162  0021E6  6E06               	movwf	timer_init@id^0,c
  5163  0021E8                     
  5164                           ;../../libraries/lib_pic/timer.c: 11: result_t timer_init(TIMER_ID id,;../../libraries/l
      +                          ib_pic/timer.c: 12:                     TMR_PRESCALER prescaler,;../../libraries/lib_pic
      +                          /timer.c: 13:                     TMR_POSTSCALER postscaler,;../../libraries/lib_pic/tim
      +                          er.c: 14:                     u8 timer);../../libraries/lib_pic/timer.c: 15: {;../../lib
      +                          raries/lib_pic/timer.c: 16:     if (id == TIMER_ID_0){
  5165  0021E8  5006               	movf	timer_init@id^0,w,c
  5166  0021EA  A4D8               	btfss	status,2,c
  5167  0021EC  EFFA  F010         	goto	u8341
  5168  0021F0  EFFD  F010         	goto	u8340
  5169  0021F4                     u8341:
  5170  0021F4  FFFF               	dw	65535	; assembler added errata NOP
  5171  0021F6  EF02  F011         	goto	l7716
  5172  0021FA                     u8340:
  5173  0021FA  FFFF               	dw	65535	; assembler added errata NOP
  5174  0021FC                     l7710:
  5175  0021FC  FFFF               	dw	65535	; assembler added errata NOP
  5176                           
  5177                           ;../../libraries/lib_pic/timer.c: 17:         return ERROR;
  5178  0021FE  0E01               	movlw	1
  5179  002200  EF38  F011         	goto	l673
  5180  002204                     l7716:
  5181  002204  FFFF               	dw	65535	; assembler added errata NOP
  5182  002206  0406               	decf	timer_init@id^0,w,c
  5183  002208  A4D8               	btfss	status,2,c
  5184  00220A  EF09  F011         	goto	u8351
  5185  00220E  EF0C  F011         	goto	u8350
  5186  002212                     u8351:
  5187  002212  FFFF               	dw	65535	; assembler added errata NOP
  5188  002214  EF0F  F011         	goto	l7724
  5189  002218                     u8350:
  5190  002218  FFFF               	dw	65535	; assembler added errata NOP
  5191  00221A  EFFE  F010         	goto	l7710
  5192  00221E                     l7724:
  5193  00221E  FFFF               	dw	65535	; assembler added errata NOP
  5194  002220  0E02               	movlw	2
  5195  002222  1806               	xorwf	timer_init@id^0,w,c
  5196  002224  A4D8               	btfss	status,2,c
  5197  002226  EF17  F011         	goto	u8361
  5198  00222A  EF1A  F011         	goto	u8360
  5199  00222E                     u8361:
  5200  00222E  FFFF               	dw	65535	; assembler added errata NOP
  5201  002230  EF33  F011         	goto	l7734
  5202  002234                     u8360:
  5203  002234  FFFF               	dw	65535	; assembler added errata NOP
  5204  002236                     
  5205                           ;../../libraries/lib_pic/timer.c: 24:         PIE1bits.TMR2IE = 1;
  5206  002236  829D               	bsf	157,1,c	;volatile
  5207                           
  5208                           ;../../libraries/lib_pic/timer.c: 27:         INTCONbits.GIE = 1;
  5209  002238  8EF2               	bsf	242,7,c	;volatile
  5210                           
  5211                           ;../../libraries/lib_pic/timer.c: 30:         INTCONbits.PEIE = 1;
  5212  00223A  8CF2               	bsf	242,6,c	;volatile
  5213                           
  5214                           ;../../libraries/lib_pic/timer.c: 33:         PR2 = timer;
  5215  00223C  C004  FFCB         	movff	timer_init@timer,4043	;volatile
  5216  002240                     
  5217                           ;../../libraries/lib_pic/timer.c: 36:         T2CONbits.T2CKPS = prescaler;
  5218  002240  50CA               	movf	202,w,c	;volatile
  5219  002242  1802               	xorwf	timer_init@prescaler^0,w,c
  5220  002244  0BFC               	andlw	-4
  5221  002246  1802               	xorwf	timer_init@prescaler^0,w,c
  5222  002248  6ECA               	movwf	202,c	;volatile
  5223                           
  5224                           ;../../libraries/lib_pic/timer.c: 39:         T2CONbits.TOUTPS = postscaler;
  5225  00224A  C003  F005         	movff	timer_init@postscaler,??_timer_init
  5226  00224E  4605               	rlncf	??_timer_init^0,f,c
  5227  002250  4605               	rlncf	??_timer_init^0,f,c
  5228  002252  4605               	rlncf	??_timer_init^0,f,c
  5229  002254  50CA               	movf	202,w,c	;volatile
  5230  002256  1805               	xorwf	??_timer_init^0,w,c
  5231  002258  0B87               	andlw	-121
  5232  00225A  1805               	xorwf	??_timer_init^0,w,c
  5233  00225C  6ECA               	movwf	202,c	;volatile
  5234  00225E                     
  5235                           ;../../libraries/lib_pic/timer.c: 42:         T2CONbits.TMR2ON = 1;
  5236  00225E  84CA               	bsf	202,2,c	;volatile
  5237  002260                     
  5238                           ;../../libraries/lib_pic/timer.c: 45:         RCONbits.IPEN = 1;
  5239  002260  8ED0               	bsf	208,7,c	;volatile
  5240                           
  5241                           ;../../libraries/lib_pic/timer.c: 46:     }
  5242  002262  EF36  F011         	goto	l7746
  5243  002266                     l7734:
  5244  002266  FFFF               	dw	65535	; assembler added errata NOP
  5245  002268  EFFE  F010         	goto	l7710
  5246  00226C                     l7746:
  5247  00226C  FFFF               	dw	65535	; assembler added errata NOP
  5248                           
  5249                           ;../../libraries/lib_pic/timer.c: 54:     return SUCCESS;
  5250  00226E  0E00               	movlw	0
  5251  002270                     l673:
  5252  002270  FFFF               	dw	65535	; assembler added errata NOP
  5253  002272  0012               	return		;funcret
  5254  002274  FFFF               	dw	65535	; errata NOP
  5255  002276                     __end_of_timer_init:
  5256                           	opt callstack 0
  5257                           
  5258 ;; *************** function _pwm_init *****************
  5259 ;; Defined at:
  5260 ;;		line 8 in file "../../libraries/lib_pic/pwm.c"
  5261 ;; Parameters:    Size  Location     Type
  5262 ;;  pwm_id          1    wreg     enum E2390
  5263 ;;  freq            2    1[COMRAM] unsigned short 
  5264 ;;  duty            2    3[COMRAM] unsigned short 
  5265 ;; Auto vars:     Size  Location     Type
  5266 ;;  pwm_id          1    5[COMRAM] enum E2390
  5267 ;; Return value:  Size  Location     Type
  5268 ;;                  1    wreg      enum E1898
  5269 ;; Registers used:
  5270 ;;		wreg, status,2, status,0
  5271 ;; Tracked objects:
  5272 ;;		On entry : 0/0
  5273 ;;		On exit  : 0/0
  5274 ;;		Unchanged: 0/0
  5275 ;; Data sizes:     COMRAM   BANK0   BANK1   BANK2   BANK3   BANK4   BANK5
  5276 ;;      Params:         4       0       0       0       0       0       0
  5277 ;;      Locals:         1       0       0       0       0       0       0
  5278 ;;      Temps:          0       0       0       0       0       0       0
  5279 ;;      Totals:         5       0       0       0       0       0       0
  5280 ;;Total ram usage:        5 bytes
  5281 ;; Hardware stack levels used:    1
  5282 ;; Hardware stack levels required when called:    1
  5283 ;; This function calls:
  5284 ;;		Nothing
  5285 ;; This function is called by:
  5286 ;;		_main
  5287 ;; This function uses a non-reentrant model
  5288 ;;
  5289                           
  5290                           	psect	text15
  5291  0025A8                     __ptext15:
  5292                           	opt callstack 0
  5293  0025A8                     _pwm_init:
  5294                           	opt callstack 0
  5295  0025A8  FFFF               	dw	65535	; assembler added errata NOP
  5296                           
  5297                           ;incstack = 0
  5298                           ;pwm_init@pwm_id stored from wreg
  5299  0025AA  6E06               	movwf	pwm_init@pwm_id^0,c
  5300  0025AC                     
  5301                           ;../../libraries/lib_pic/pwm.c: 14:     if (pwm_id == PWM_ID_1){
  5302  0025AC  5006               	movf	pwm_init@pwm_id^0,w,c
  5303  0025AE  A4D8               	btfss	status,2,c
  5304  0025B0  EFDC  F012         	goto	u8371
  5305  0025B4  EFDF  F012         	goto	u8370
  5306  0025B8                     u8371:
  5307  0025B8  FFFF               	dw	65535	; assembler added errata NOP
  5308  0025BA  EFE4  F012         	goto	l7754
  5309  0025BE                     u8370:
  5310  0025BE  FFFF               	dw	65535	; assembler added errata NOP
  5311  0025C0                     
  5312                           ;../../libraries/lib_pic/pwm.c: 15:         CCP1CONbits.CCP1M = 15;
  5313  0025C0  0E0F               	movlw	15
  5314  0025C2  12BD               	iorwf	189,f,c	;volatile
  5315                           
  5316                           ;../../libraries/lib_pic/pwm.c: 16:     }
  5317  0025C4  EFF7  F012         	goto	l7762
  5318  0025C8                     l7754:
  5319  0025C8  FFFF               	dw	65535	; assembler added errata NOP
  5320  0025CA  0406               	decf	pwm_init@pwm_id^0,w,c
  5321  0025CC  A4D8               	btfss	status,2,c
  5322  0025CE  EFEB  F012         	goto	u8381
  5323  0025D2  EFEE  F012         	goto	u8380
  5324  0025D6                     u8381:
  5325  0025D6  FFFF               	dw	65535	; assembler added errata NOP
  5326  0025D8  EFF3  F012         	goto	l7758
  5327  0025DC                     u8380:
  5328  0025DC  FFFF               	dw	65535	; assembler added errata NOP
  5329  0025DE                     
  5330                           ;../../libraries/lib_pic/pwm.c: 18:         CCP2CONbits.CCP2M = 15;
  5331  0025DE  0E0F               	movlw	15
  5332  0025E0  12BA               	iorwf	186,f,c	;volatile
  5333                           
  5334                           ;../../libraries/lib_pic/pwm.c: 19:     }
  5335  0025E2  EFF7  F012         	goto	l7762
  5336  0025E6                     l7758:
  5337  0025E6  FFFF               	dw	65535	; assembler added errata NOP
  5338                           
  5339                           ;../../libraries/lib_pic/pwm.c: 21:         return ERROR;
  5340  0025E8  0E01               	movlw	1
  5341  0025EA  EFF9  F012         	goto	l645
  5342  0025EE                     l7762:
  5343  0025EE  FFFF               	dw	65535	; assembler added errata NOP
  5344                           
  5345                           ;../../libraries/lib_pic/pwm.c: 54:     return SUCCESS;
  5346  0025F0  0E00               	movlw	0
  5347  0025F2                     l645:
  5348  0025F2  FFFF               	dw	65535	; assembler added errata NOP
  5349  0025F4  0012               	return		;funcret
  5350  0025F6  FFFF               	dw	65535	; errata NOP
  5351  0025F8                     __end_of_pwm_init:
  5352                           	opt callstack 0
  5353                           
  5354 ;; *************** function _pcf8574_write_port *****************
  5355 ;; Defined at:
  5356 ;;		line 8 in file "../../libraries/lib_comp/pcf8574.c"
  5357 ;; Parameters:    Size  Location     Type
  5358 ;;  i2c_bus_id      1    wreg     enum E1909
  5359 ;;  adr_chip        1    5[COMRAM] unsigned char 
  5360 ;;  data            1    6[COMRAM] unsigned char 
  5361 ;; Auto vars:     Size  Location     Type
  5362 ;;  i2c_bus_id      1    7[COMRAM] enum E1909
  5363 ;; Return value:  Size  Location     Type
  5364 ;;                  1    wreg      enum E1898
  5365 ;; Registers used:
  5366 ;;		wreg, status,2, status,0, cstack
  5367 ;; Tracked objects:
  5368 ;;		On entry : 0/0
  5369 ;;		On exit  : 0/0
  5370 ;;		Unchanged: 0/0
  5371 ;; Data sizes:     COMRAM   BANK0   BANK1   BANK2   BANK3   BANK4   BANK5
  5372 ;;      Params:         2       0       0       0       0       0       0
  5373 ;;      Locals:         1       0       0       0       0       0       0
  5374 ;;      Temps:          0       0       0       0       0       0       0
  5375 ;;      Totals:         3       0       0       0       0       0       0
  5376 ;;Total ram usage:        3 bytes
  5377 ;; Hardware stack levels used:    1
  5378 ;; Hardware stack levels required when called:    3
  5379 ;; This function calls:
  5380 ;;		_i2c_start
  5381 ;;		_i2c_stop
  5382 ;;		_i2c_write
  5383 ;; This function is called by:
  5384 ;;		_main
  5385 ;; This function uses a non-reentrant model
  5386 ;;
  5387                           
  5388                           	psect	text16
  5389  0022F4                     __ptext16:
  5390                           	opt callstack 0
  5391  0022F4                     _pcf8574_write_port:
  5392                           	opt callstack 0
  5393  0022F4  FFFF               	dw	65535	; assembler added errata NOP
  5394                           
  5395                           ;incstack = 0
  5396                           ;pcf8574_write_port@i2c_bus_id stored from wreg
  5397  0022F6  6E08               	movwf	pcf8574_write_port@i2c_bus_id^0,c
  5398  0022F8                     
  5399                           ;../../libraries/lib_comp/pcf8574.c: 8: result_t pcf8574_write_port (I2C_BUS i2c_bus_id,
      +                           u8 adr_chip, u8 data);../../libraries/lib_comp/pcf8574.c: 9: {;../../libraries/lib_comp
      +                          /pcf8574.c: 10:     if (i2c_start(i2c_bus_id) != SUCCESS)
  5400  0022F8  5008               	movf	pcf8574_write_port@i2c_bus_id^0,w,c
  5401  0022FA  EC5A  F014         	call	_i2c_start
  5402  0022FE  0900               	iorlw	0
  5403  002300  B4D8               	btfsc	status,2,c
  5404  002302  EF85  F011         	goto	u8421
  5405  002306  EF88  F011         	goto	u8420
  5406  00230A                     u8421:
  5407  00230A  FFFF               	dw	65535	; assembler added errata NOP
  5408  00230C  EF8B  F011         	goto	l7800
  5409  002310                     u8420:
  5410  002310  FFFF               	dw	65535	; assembler added errata NOP
  5411  002312  EFB5  F011         	goto	l620
  5412  002316                     l7800:
  5413  002316  FFFF               	dw	65535	; assembler added errata NOP
  5414                           
  5415                           ;../../libraries/lib_comp/pcf8574.c: 13:     if (i2c_write(i2c_bus_id, (adr_chip<<1) & 0
      +                          xFE) != SUCCESS)
  5416  002318  5006               	movf	pcf8574_write_port@adr_chip^0,w,c
  5417  00231A  2406               	addwf	pcf8574_write_port@adr_chip^0,w,c
  5418  00231C  0BFE               	andlw	254
  5419  00231E  6E03               	movwf	i2c_write@data^0,c
  5420  002320  5008               	movf	pcf8574_write_port@i2c_bus_id^0,w,c
  5421  002322  EC69  F014         	call	_i2c_write
  5422  002326  0900               	iorlw	0
  5423  002328  B4D8               	btfsc	status,2,c
  5424  00232A  EF99  F011         	goto	u8431
  5425  00232E  EF9C  F011         	goto	u8430
  5426  002332                     u8431:
  5427  002332  FFFF               	dw	65535	; assembler added errata NOP
  5428  002334  EF9F  F011         	goto	l7804
  5429  002338                     u8430:
  5430  002338  FFFF               	dw	65535	; assembler added errata NOP
  5431  00233A  EFB5  F011         	goto	l620
  5432  00233E                     l7804:
  5433  00233E  FFFF               	dw	65535	; assembler added errata NOP
  5434                           
  5435                           ;../../libraries/lib_comp/pcf8574.c: 16:     if (i2c_write(i2c_bus_id, data) != SUCCESS)
  5436  002340  C007  F003         	movff	pcf8574_write_port@data,i2c_write@data
  5437  002344  5008               	movf	pcf8574_write_port@i2c_bus_id^0,w,c
  5438  002346  EC69  F014         	call	_i2c_write
  5439  00234A  0900               	iorlw	0
  5440  00234C  B4D8               	btfsc	status,2,c
  5441  00234E  EFAB  F011         	goto	u8441
  5442  002352  EFAE  F011         	goto	u8440
  5443  002356                     u8441:
  5444  002356  FFFF               	dw	65535	; assembler added errata NOP
  5445  002358  EFB1  F011         	goto	l7808
  5446  00235C                     u8440:
  5447  00235C  FFFF               	dw	65535	; assembler added errata NOP
  5448  00235E  EFB5  F011         	goto	l620
  5449  002362                     l7808:
  5450  002362  FFFF               	dw	65535	; assembler added errata NOP
  5451                           
  5452                           ;../../libraries/lib_comp/pcf8574.c: 19:     if (i2c_stop(i2c_bus_id) != SUCCESS)
  5453  002364  5008               	movf	pcf8574_write_port@i2c_bus_id^0,w,c
  5454  002366  EC4B  F014         	call	_i2c_stop
  5455  00236A                     l620:
  5456  00236A  FFFF               	dw	65535	; assembler added errata NOP
  5457  00236C  0012               	return		;funcret
  5458  00236E  FFFF               	dw	65535	; errata NOP
  5459  002370                     __end_of_pcf8574_write_port:
  5460                           	opt callstack 0
  5461                           
  5462 ;; *************** function _i2c_write *****************
  5463 ;; Defined at:
  5464 ;;		line 364 in file "../../libraries/lib_pic/i2c.c"
  5465 ;; Parameters:    Size  Location     Type
  5466 ;;  bus_id          1    wreg     enum E1909
  5467 ;;  data            1    2[COMRAM] unsigned char 
  5468 ;; Auto vars:     Size  Location     Type
  5469 ;;  bus_id          1    3[COMRAM] enum E1909
  5470 ;;  result          1    4[COMRAM] enum E1898
  5471 ;; Return value:  Size  Location     Type
  5472 ;;                  1    wreg      enum E39
  5473 ;; Registers used:
  5474 ;;		wreg, status,2, status,0, cstack
  5475 ;; Tracked objects:
  5476 ;;		On entry : 0/0
  5477 ;;		On exit  : 0/0
  5478 ;;		Unchanged: 0/0
  5479 ;; Data sizes:     COMRAM   BANK0   BANK1   BANK2   BANK3   BANK4   BANK5
  5480 ;;      Params:         1       0       0       0       0       0       0
  5481 ;;      Locals:         2       0       0       0       0       0       0
  5482 ;;      Temps:          0       0       0       0       0       0       0
  5483 ;;      Totals:         3       0       0       0       0       0       0
  5484 ;;Total ram usage:        3 bytes
  5485 ;; Hardware stack levels used:    1
  5486 ;; Hardware stack levels required when called:    2
  5487 ;; This function calls:
  5488 ;;		_i2c_wait_ack
  5489 ;; This function is called by:
  5490 ;;		_i2c_write_reg
  5491 ;;		_pcf8574_write_port
  5492 ;;		_tmp75_read_temp
  5493 ;;		_ds1621_read_temp
  5494 ;;		_i2c_read_reg
  5495 ;;		_i2c_detect
  5496 ;;		_i2c_dump
  5497 ;;		_pcf8574_read_port
  5498 ;;		_ds1307_init
  5499 ;;		_ds1307_set_time
  5500 ;; This function uses a non-reentrant model
  5501 ;;
  5502                           
  5503                           	psect	text17
  5504  0028D2                     __ptext17:
  5505                           	opt callstack 0
  5506  0028D2                     _i2c_write:
  5507                           	opt callstack 0
  5508  0028D2  FFFF               	dw	65535	; assembler added errata NOP
  5509                           
  5510                           ;incstack = 0
  5511                           ;i2c_write@bus_id stored from wreg
  5512  0028D4  6E04               	movwf	i2c_write@bus_id^0,c
  5513  0028D6                     
  5514                           ;../../libraries/lib_pic/i2c.c: 370:         SSPBUF = data;
  5515  0028D6  C003  FFC9         	movff	i2c_write@data,4041	;volatile
  5516  0028DA                     
  5517                           ;../../libraries/lib_pic/i2c.c: 371:         PIR1bits.SSPIF = 0;
  5518  0028DA  969E               	bcf	158,3,c	;volatile
  5519  0028DC                     
  5520                           ;../../libraries/lib_pic/i2c.c: 374:         result = i2c_wait_ack(bus_id);
  5521  0028DC  5004               	movf	i2c_write@bus_id^0,w,c
  5522  0028DE  EC23  F012         	call	_i2c_wait_ack
  5523  0028E2  6E05               	movwf	i2c_write@result^0,c
  5524  0028E4                     
  5525                           ;../../libraries/lib_pic/i2c.c: 406:     return result;
  5526  0028E4  5005               	movf	i2c_write@result^0,w,c
  5527  0028E6  0012               	return		;funcret
  5528  0028E8  FFFF               	dw	65535	; errata NOP
  5529  0028EA                     __end_of_i2c_write:
  5530                           	opt callstack 0
  5531                           
  5532 ;; *************** function _i2c_wait_ack *****************
  5533 ;; Defined at:
  5534 ;;		line 259 in file "../../libraries/lib_pic/i2c.c"
  5535 ;; Parameters:    Size  Location     Type
  5536 ;;  bus_id          1    wreg     enum E1909
  5537 ;; Auto vars:     Size  Location     Type
  5538 ;;  bus_id          1    0[COMRAM] enum E1909
  5539 ;;  i               1    1[COMRAM] unsigned char 
  5540 ;; Return value:  Size  Location     Type
  5541 ;;                  1    wreg      enum E1898
  5542 ;; Registers used:
  5543 ;;		wreg, status,2, status,0
  5544 ;; Tracked objects:
  5545 ;;		On entry : 0/0
  5546 ;;		On exit  : 0/0
  5547 ;;		Unchanged: 0/0
  5548 ;; Data sizes:     COMRAM   BANK0   BANK1   BANK2   BANK3   BANK4   BANK5
  5549 ;;      Params:         0       0       0       0       0       0       0
  5550 ;;      Locals:         1       0       0       0       0       0       0
  5551 ;;      Temps:          0       0       0       0       0       0       0
  5552 ;;      Totals:         1       0       0       0       0       0       0
  5553 ;;Total ram usage:        1 bytes
  5554 ;; Hardware stack levels used:    1
  5555 ;; Hardware stack levels required when called:    1
  5556 ;; This function calls:
  5557 ;;		Nothing
  5558 ;; This function is called by:
  5559 ;;		_i2c_write
  5560 ;;		_i2c_detect
  5561 ;; This function uses a non-reentrant model
  5562 ;;
  5563                           
  5564                           	psect	text18
  5565  002446                     __ptext18:
  5566                           	opt callstack 0
  5567  002446                     _i2c_wait_ack:
  5568                           	opt callstack 0
  5569  002446  FFFF               	dw	65535	; assembler added errata NOP
  5570  002448                     l369:
  5571  002448  FFFF               	dw	65535	; assembler added errata NOP
  5572  00244A  B4C7               	btfsc	199,2,c	;volatile
  5573  00244C  EF2A  F012         	goto	u6901
  5574  002450  EF2D  F012         	goto	u6900
  5575  002454                     u6901:
  5576  002454  FFFF               	dw	65535	; assembler added errata NOP
  5577  002456  EF24  F012         	goto	l369
  5578  00245A                     u6900:
  5579  00245A  FFFF               	dw	65535	; assembler added errata NOP
  5580  00245C                     
  5581                           ;../../libraries/lib_pic/i2c.c: 266:         for (i=0; i<100; i++)
  5582  00245C  0E00               	movlw	0
  5583  00245E  6E02               	movwf	i2c_wait_ack@i^0,c
  5584  002460                     l372:
  5585  002460  FFFF               	dw	65535	; assembler added errata NOP
  5586                           
  5587                           ;../../libraries/lib_pic/i2c.c: 267:         {;../../libraries/lib_pic/i2c.c: 268:      
      +                                 if (!SSPCON2bits.ACKSTAT)
  5588  002462  BCC5               	btfsc	197,6,c	;volatile
  5589  002464  EF36  F012         	goto	u6911
  5590  002468  EF39  F012         	goto	u6910
  5591  00246C                     u6911:
  5592  00246C  FFFF               	dw	65535	; assembler added errata NOP
  5593  00246E  EF3E  F012         	goto	l6796
  5594  002472                     u6910:
  5595  002472  FFFF               	dw	65535	; assembler added errata NOP
  5596  002474                     l6792:
  5597  002474  FFFF               	dw	65535	; assembler added errata NOP
  5598                           
  5599                           ;../../libraries/lib_pic/i2c.c: 269:             {;../../libraries/lib_pic/i2c.c: 270:  
      +                                         return SUCCESS;
  5600  002476  0E00               	movlw	0
  5601  002478  EF4D  F012         	goto	l375
  5602  00247C                     l6796:
  5603  00247C  FFFF               	dw	65535	; assembler added errata NOP
  5604                           
  5605                           ;../../libraries/lib_pic/i2c.c: 272:         }
  5606  00247E  2A02               	incf	i2c_wait_ack@i^0,f,c
  5607  002480  0E63               	movlw	99
  5608  002482  6402               	cpfsgt	i2c_wait_ack@i^0,c
  5609  002484  EF46  F012         	goto	u6921
  5610  002488  EF49  F012         	goto	u6920
  5611  00248C                     u6921:
  5612  00248C  FFFF               	dw	65535	; assembler added errata NOP
  5613  00248E  EF30  F012         	goto	l372
  5614  002492                     u6920:
  5615  002492  FFFF               	dw	65535	; assembler added errata NOP
  5616  002494                     
  5617                           ;../../libraries/lib_pic/i2c.c: 273:         PIR1bits.SSPIF = 0;
  5618  002494  969E               	bcf	158,3,c	;volatile
  5619  002496  EF3A  F012         	goto	l6792
  5620  00249A                     l375:
  5621  00249A  FFFF               	dw	65535	; assembler added errata NOP
  5622  00249C  0012               	return		;funcret
  5623  00249E  FFFF               	dw	65535	; errata NOP
  5624  0024A0                     __end_of_i2c_wait_ack:
  5625                           	opt callstack 0
  5626                           
  5627 ;; *************** function _i2c_stop *****************
  5628 ;; Defined at:
  5629 ;;		line 412 in file "../../libraries/lib_pic/i2c.c"
  5630 ;; Parameters:    Size  Location     Type
  5631 ;;  bus_id          1    wreg     enum E1909
  5632 ;; Auto vars:     Size  Location     Type
  5633 ;;  bus_id          1    0[COMRAM] enum E1909
  5634 ;; Return value:  Size  Location     Type
  5635 ;;                  1    wreg      enum E39
  5636 ;; Registers used:
  5637 ;;		wreg
  5638 ;; Tracked objects:
  5639 ;;		On entry : 0/0
  5640 ;;		On exit  : 0/0
  5641 ;;		Unchanged: 0/0
  5642 ;; Data sizes:     COMRAM   BANK0   BANK1   BANK2   BANK3   BANK4   BANK5
  5643 ;;      Params:         0       0       0       0       0       0       0
  5644 ;;      Locals:         0       0       0       0       0       0       0
  5645 ;;      Temps:          0       0       0       0       0       0       0
  5646 ;;      Totals:         0       0       0       0       0       0       0
  5647 ;;Total ram usage:        0 bytes
  5648 ;; Hardware stack levels used:    1
  5649 ;; Hardware stack levels required when called:    1
  5650 ;; This function calls:
  5651 ;;		Nothing
  5652 ;; This function is called by:
  5653 ;;		_i2c_write_reg
  5654 ;;		_pcf8574_write_port
  5655 ;;		_tmp75_read_temp
  5656 ;;		_ds1621_read_temp
  5657 ;;		_i2c_read_reg
  5658 ;;		_i2c_detect
  5659 ;;		_i2c_dump
  5660 ;;		_pcf8574_read_port
  5661 ;;		_ds1307_init
  5662 ;;		_ds1307_set_time
  5663 ;; This function uses a non-reentrant model
  5664 ;;
  5665                           
  5666                           	psect	text19
  5667  002896                     __ptext19:
  5668                           	opt callstack 0
  5669  002896                     _i2c_stop:
  5670                           	opt callstack 0
  5671  002896  FFFF               	dw	65535	; assembler added errata NOP
  5672  002898                     
  5673                           ;../../libraries/lib_pic/i2c.c: 412: result_t i2c_stop(I2C_BUS bus_id);../../libraries/l
      +                          ib_pic/i2c.c: 413: {;../../libraries/lib_pic/i2c.c: 416:         SSPCON2bits.PEN = 1;
  5674  002898  84C5               	bsf	197,2,c	;volatile
  5675  00289A                     l387:
  5676  00289A  FFFF               	dw	65535	; assembler added errata NOP
  5677  00289C  B4C5               	btfsc	197,2,c	;volatile
  5678  00289E  EF53  F014         	goto	u6991
  5679  0028A2  EF56  F014         	goto	u6990
  5680  0028A6                     u6991:
  5681  0028A6  FFFF               	dw	65535	; assembler added errata NOP
  5682  0028A8  EF4D  F014         	goto	l387
  5683  0028AC                     u6990:
  5684  0028AC  FFFF               	dw	65535	; assembler added errata NOP
  5685  0028AE                     
  5686                           ;../../libraries/lib_pic/i2c.c: 444:     return SUCCESS;
  5687  0028AE  0E00               	movlw	0
  5688  0028B0  0012               	return		;funcret
  5689  0028B2  FFFF               	dw	65535	; errata NOP
  5690  0028B4                     __end_of_i2c_stop:
  5691                           	opt callstack 0
  5692                           
  5693 ;; *************** function _i2c_start *****************
  5694 ;; Defined at:
  5695 ;;		line 137 in file "../../libraries/lib_pic/i2c.c"
  5696 ;; Parameters:    Size  Location     Type
  5697 ;;  bus_id          1    wreg     enum E1909
  5698 ;; Auto vars:     Size  Location     Type
  5699 ;;  bus_id          1    0[COMRAM] enum E1909
  5700 ;;  result          1    0        enum E1898
  5701 ;; Return value:  Size  Location     Type
  5702 ;;                  1    wreg      enum E39
  5703 ;; Registers used:
  5704 ;;		wreg, status,2
  5705 ;; Tracked objects:
  5706 ;;		On entry : 0/0
  5707 ;;		On exit  : 0/0
  5708 ;;		Unchanged: 0/0
  5709 ;; Data sizes:     COMRAM   BANK0   BANK1   BANK2   BANK3   BANK4   BANK5
  5710 ;;      Params:         0       0       0       0       0       0       0
  5711 ;;      Locals:         1       0       0       0       0       0       0
  5712 ;;      Temps:          0       0       0       0       0       0       0
  5713 ;;      Totals:         1       0       0       0       0       0       0
  5714 ;;Total ram usage:        1 bytes
  5715 ;; Hardware stack levels used:    1
  5716 ;; Hardware stack levels required when called:    1
  5717 ;; This function calls:
  5718 ;;		Nothing
  5719 ;; This function is called by:
  5720 ;;		_i2c_write_reg
  5721 ;;		_pcf8574_write_port
  5722 ;;		_tmp75_read_temp
  5723 ;;		_ds1621_read_temp
  5724 ;;		_i2c_read_reg
  5725 ;;		_i2c_detect
  5726 ;;		_i2c_dump
  5727 ;;		_pcf8574_read_port
  5728 ;;		_ds1307_init
  5729 ;;		_ds1307_set_time
  5730 ;; This function uses a non-reentrant model
  5731 ;;
  5732                           
  5733                           	psect	text20
  5734  0028B4                     __ptext20:
  5735                           	opt callstack 0
  5736  0028B4                     _i2c_start:
  5737                           	opt callstack 0
  5738  0028B4  FFFF               	dw	65535	; assembler added errata NOP
  5739  0028B6                     
  5740                           ;../../libraries/lib_pic/i2c.c: 143:         SSPCON2bits.SEN = 1;
  5741  0028B6  80C5               	bsf	197,0,c	;volatile
  5742  0028B8                     l351:
  5743  0028B8  FFFF               	dw	65535	; assembler added errata NOP
  5744  0028BA  B0C5               	btfsc	197,0,c	;volatile
  5745  0028BC  EF62  F014         	goto	u6981
  5746  0028C0  EF65  F014         	goto	u6980
  5747  0028C4                     u6981:
  5748  0028C4  FFFF               	dw	65535	; assembler added errata NOP
  5749  0028C6  EF5C  F014         	goto	l351
  5750  0028CA                     u6980:
  5751  0028CA  FFFF               	dw	65535	; assembler added errata NOP
  5752  0028CC                     
  5753                           ;../../libraries/lib_pic/i2c.c: 173:     return result;
  5754  0028CC  0E00               	movlw	0
  5755  0028CE  0012               	return		;funcret
  5756  0028D0  FFFF               	dw	65535	; errata NOP
  5757  0028D2                     __end_of_i2c_start:
  5758                           	opt callstack 0
  5759                           
  5760 ;; *************** function _lcd_write_time *****************
  5761 ;; Defined at:
  5762 ;;		line 474 in file "../../libraries/lib_lcd/lcd_2x16.c"
  5763 ;; Parameters:    Size  Location     Type
  5764 ;;  t               7   20[COMRAM] struct .
  5765 ;;  ligne           1   27[COMRAM] enum E2015
  5766 ;;  pos             1   28[COMRAM] unsigned char 
  5767 ;; Auto vars:     Size  Location     Type
  5768 ;;		None
  5769 ;; Return value:  Size  Location     Type
  5770 ;;                  1    wreg      void 
  5771 ;; Registers used:
  5772 ;;		wreg, fsr2l, fsr2h, status,2, status,0, tblptrl, tblptrh, tblptru, cstack
  5773 ;; Tracked objects:
  5774 ;;		On entry : 0/0
  5775 ;;		On exit  : 0/0
  5776 ;;		Unchanged: 0/0
  5777 ;; Data sizes:     COMRAM   BANK0   BANK1   BANK2   BANK3   BANK4   BANK5
  5778 ;;      Params:         9       0       0       0       0       0       0
  5779 ;;      Locals:         0       0       0       0       0       0       0
  5780 ;;      Temps:          0       0       0       0       0       0       0
  5781 ;;      Totals:         9       0       0       0       0       0       0
  5782 ;;Total ram usage:        9 bytes
  5783 ;; Hardware stack levels used:    1
  5784 ;; Hardware stack levels required when called:    4
  5785 ;; This function calls:
  5786 ;;		_lcd_2x16_position
  5787 ;;		_lcd_2x16_write_2bcd
  5788 ;;		_lcd_2x16_write_string
  5789 ;; This function is called by:
  5790 ;;		_main
  5791 ;; This function uses a non-reentrant model
  5792 ;;
  5793                           
  5794                           	psect	text21
  5795  0026DE                     __ptext21:
  5796                           	opt callstack 0
  5797  0026DE                     _lcd_write_time:
  5798                           	opt callstack 0
  5799  0026DE  FFFF               	dw	65535	; assembler added errata NOP
  5800  0026E0                     
  5801                           ;../../libraries/lib_lcd/lcd_2x16.c: 474: void lcd_write_time (date_time_t t, LCD_LINE l
      +                          igne, u8 pos);../../libraries/lib_lcd/lcd_2x16.c: 475: {;../../libraries/lib_lcd/lcd_2x1
      +                          6.c: 476:     lcd_2x16_position (ligne, pos);
  5802  0026E0  C01D  F00E         	movff	lcd_write_time@pos,lcd_2x16_position@pos
  5803  0026E4  501C               	movf	lcd_write_time@ligne^0,w,c
  5804  0026E6  ECFE  F00F         	call	_lcd_2x16_position
  5805  0026EA                     
  5806                           ;../../libraries/lib_lcd/lcd_2x16.c: 478:     lcd_2x16_write_2bcd (t.hrs);
  5807  0026EA  C015  F00E         	movff	lcd_write_time@t,lcd_2x16_write_2bcd@data
  5808  0026EE  6A0F               	clrf	(lcd_2x16_write_2bcd@data+1)^0,c
  5809  0026F0  EC92  F013         	call	_lcd_2x16_write_2bcd	;wreg free
  5810  0026F4                     
  5811                           ;../../libraries/lib_lcd/lcd_2x16.c: 479:     lcd_2x16_write_string (":");
  5812  0026F4  0EFC               	movlw	low STR_71
  5813  0026F6  6E0E               	movwf	lcd_2x16_write_string@string^0,c
  5814  0026F8  0E7F               	movlw	high STR_71
  5815  0026FA  6E0F               	movwf	(lcd_2x16_write_string@string+1)^0,c
  5816  0026FC  ECFC  F012         	call	_lcd_2x16_write_string	;wreg free
  5817  002700                     
  5818                           ;../../libraries/lib_lcd/lcd_2x16.c: 480:     lcd_2x16_write_2bcd (t.min);
  5819  002700  C016  F00E         	movff	lcd_write_time@t+1,lcd_2x16_write_2bcd@data
  5820  002704  6A0F               	clrf	(lcd_2x16_write_2bcd@data+1)^0,c
  5821  002706  EC92  F013         	call	_lcd_2x16_write_2bcd	;wreg free
  5822  00270A                     
  5823                           ;../../libraries/lib_lcd/lcd_2x16.c: 481:     lcd_2x16_write_string (":");
  5824  00270A  0EFC               	movlw	low STR_71
  5825  00270C  6E0E               	movwf	lcd_2x16_write_string@string^0,c
  5826  00270E  0E7F               	movlw	high STR_71
  5827  002710  6E0F               	movwf	(lcd_2x16_write_string@string+1)^0,c
  5828  002712  ECFC  F012         	call	_lcd_2x16_write_string	;wreg free
  5829  002716                     
  5830                           ;../../libraries/lib_lcd/lcd_2x16.c: 482:     lcd_2x16_write_2bcd (t.sec);
  5831  002716  C017  F00E         	movff	lcd_write_time@t+2,lcd_2x16_write_2bcd@data
  5832  00271A  6A0F               	clrf	(lcd_2x16_write_2bcd@data+1)^0,c
  5833  00271C  EC92  F013         	call	_lcd_2x16_write_2bcd	;wreg free
  5834  002720  0012               	return		;funcret
  5835  002722  FFFF               	dw	65535	; errata NOP
  5836  002724                     __end_of_lcd_write_time:
  5837                           	opt callstack 0
  5838                           
  5839 ;; *************** function _lcd_write_temperature *****************
  5840 ;; Defined at:
  5841 ;;		line 414 in file "../../libraries/lib_lcd/lcd_2x16.c"
  5842 ;; Parameters:    Size  Location     Type
  5843 ;;  temp            1    wreg     unsigned char 
  5844 ;;  ligne           1   20[COMRAM] enum E2015
  5845 ;;  pos             1   21[COMRAM] unsigned char 
  5846 ;; Auto vars:     Size  Location     Type
  5847 ;;  temp            1   22[COMRAM] unsigned char 
  5848 ;; Return value:  Size  Location     Type
  5849 ;;                  1    wreg      void 
  5850 ;; Registers used:
  5851 ;;		wreg, fsr2l, fsr2h, status,2, status,0, cstack
  5852 ;; Tracked objects:
  5853 ;;		On entry : 0/0
  5854 ;;		On exit  : 0/0
  5855 ;;		Unchanged: 0/0
  5856 ;; Data sizes:     COMRAM   BANK0   BANK1   BANK2   BANK3   BANK4   BANK5
  5857 ;;      Params:         2       0       0       0       0       0       0
  5858 ;;      Locals:         1       0       0       0       0       0       0
  5859 ;;      Temps:          0       0       0       0       0       0       0
  5860 ;;      Totals:         3       0       0       0       0       0       0
  5861 ;;Total ram usage:        3 bytes
  5862 ;; Hardware stack levels used:    1
  5863 ;; Hardware stack levels required when called:    4
  5864 ;; This function calls:
  5865 ;;		_lcd_2x16_position
  5866 ;;		_lcd_2x16_write
  5867 ;;		_lcd_2x16_write_2bcd
  5868 ;; This function is called by:
  5869 ;;		_main
  5870 ;; This function uses a non-reentrant model
  5871 ;;
  5872                           
  5873                           	psect	text22
  5874  0027A6                     __ptext22:
  5875                           	opt callstack 0
  5876  0027A6                     _lcd_write_temperature:
  5877                           	opt callstack 0
  5878  0027A6  FFFF               	dw	65535	; assembler added errata NOP
  5879                           
  5880                           ;incstack = 0
  5881                           ;lcd_write_temperature@temp stored from wreg
  5882  0027A8  6E17               	movwf	lcd_write_temperature@temp^0,c
  5883  0027AA                     
  5884                           ;../../libraries/lib_lcd/lcd_2x16.c: 414: void lcd_write_temperature (u8 temp, LCD_LINE 
      +                          ligne, u8 pos);../../libraries/lib_lcd/lcd_2x16.c: 415: {;../../libraries/lib_lcd/lcd_2x
      +                          16.c: 417:     lcd_2x16_position (ligne, pos);
  5885  0027AA  C016  F00E         	movff	lcd_write_temperature@pos,lcd_2x16_position@pos
  5886  0027AE  5015               	movf	lcd_write_temperature@ligne^0,w,c
  5887  0027B0  ECFE  F00F         	call	_lcd_2x16_position
  5888  0027B4                     
  5889                           ;../../libraries/lib_lcd/lcd_2x16.c: 420:     lcd_2x16_write_2bcd (temp);
  5890  0027B4  C017  F00E         	movff	lcd_write_temperature@temp,lcd_2x16_write_2bcd@data
  5891  0027B8  6A0F               	clrf	(lcd_2x16_write_2bcd@data+1)^0,c
  5892  0027BA  EC92  F013         	call	_lcd_2x16_write_2bcd	;wreg free
  5893  0027BE                     
  5894                           ;../../libraries/lib_lcd/lcd_2x16.c: 428:     lcd_2x16_write (0xdf, 1);
  5895  0027BE  0E00               	movlw	0
  5896  0027C0  6E09               	movwf	(lcd_2x16_write@data+1)^0,c
  5897  0027C2  0EDF               	movlw	223
  5898  0027C4  6E08               	movwf	lcd_2x16_write@data^0,c
  5899  0027C6  0E01               	movlw	1
  5900  0027C8  6E0A               	movwf	lcd_2x16_write@rs^0,c
  5901  0027CA  EC6A  F00C         	call	_lcd_2x16_write	;wreg free
  5902  0027CE                     
  5903                           ;../../libraries/lib_lcd/lcd_2x16.c: 431:     lcd_2x16_write ('C', 1);
  5904  0027CE  0E00               	movlw	0
  5905  0027D0  6E09               	movwf	(lcd_2x16_write@data+1)^0,c
  5906  0027D2  0E43               	movlw	67
  5907  0027D4  6E08               	movwf	lcd_2x16_write@data^0,c
  5908  0027D6  0E01               	movlw	1
  5909  0027D8  6E0A               	movwf	lcd_2x16_write@rs^0,c
  5910  0027DA  EC6A  F00C         	call	_lcd_2x16_write	;wreg free
  5911  0027DE  0012               	return		;funcret
  5912  0027E0  FFFF               	dw	65535	; errata NOP
  5913  0027E2                     __end_of_lcd_write_temperature:
  5914                           	opt callstack 0
  5915                           
  5916 ;; *************** function _lcd_write_date *****************
  5917 ;; Defined at:
  5918 ;;		line 438 in file "../../libraries/lib_lcd/lcd_2x16.c"
  5919 ;; Parameters:    Size  Location     Type
  5920 ;;  t               7   20[COMRAM] struct .
  5921 ;;  ligne           1   27[COMRAM] enum E2015
  5922 ;;  pos             1   28[COMRAM] unsigned char 
  5923 ;;  format          1   29[COMRAM] enum E1993
  5924 ;; Auto vars:     Size  Location     Type
  5925 ;;  month          24   34[COMRAM] PTR const unsigned char 
  5926 ;;		 -> STR_65(4), STR_64(4), STR_63(4), STR_62(4), 
  5927 ;;		 -> STR_61(4), STR_60(4), STR_59(4), STR_58(4), 
  5928 ;;		 -> STR_57(4), STR_56(4), STR_55(4), STR_54(4), 
  5929 ;;  day_of_week    14   58[COMRAM] PTR const unsigned char 
  5930 ;;		 -> STR_53(4), STR_52(4), STR_51(4), STR_50(4), 
  5931 ;;		 -> STR_49(4), STR_48(4), STR_47(4), 
  5932 ;;  bcd             5   72[COMRAM] unsigned char [5]
  5933 ;; Return value:  Size  Location     Type
  5934 ;;                  1    wreg      void 
  5935 ;; Registers used:
  5936 ;;		wreg, fsr1l, fsr1h, fsr2l, fsr2h, status,2, status,0, tblptrl, tblptrh, tblptru, cstack
  5937 ;; Tracked objects:
  5938 ;;		On entry : 0/0
  5939 ;;		On exit  : 0/0
  5940 ;;		Unchanged: 0/0
  5941 ;; Data sizes:     COMRAM   BANK0   BANK1   BANK2   BANK3   BANK4   BANK5
  5942 ;;      Params:        10       0       0       0       0       0       0
  5943 ;;      Locals:        43       0       0       0       0       0       0
  5944 ;;      Temps:          4       0       0       0       0       0       0
  5945 ;;      Totals:        57       0       0       0       0       0       0
  5946 ;;Total ram usage:       57 bytes
  5947 ;; Hardware stack levels used:    1
  5948 ;; Hardware stack levels required when called:    4
  5949 ;; This function calls:
  5950 ;;		_dec_2_bcd
  5951 ;;		_lcd_2x16_position
  5952 ;;		_lcd_2x16_write_2bcd
  5953 ;;		_lcd_2x16_write_string
  5954 ;; This function is called by:
  5955 ;;		_main
  5956 ;; This function uses a non-reentrant model
  5957 ;;
  5958                           
  5959                           	psect	text23
  5960  00175C                     __ptext23:
  5961                           	opt callstack 0
  5962  00175C                     _lcd_write_date:
  5963                           	opt callstack 0
  5964  00175C  FFFF               	dw	65535	; assembler added errata NOP
  5965  00175E                     
  5966                           ;../../libraries/lib_lcd/lcd_2x16.c: 438: void lcd_write_date (date_time_t t, LCD_LINE l
      +                          igne, u8 pos, lcd_date_format_t format);../../libraries/lib_lcd/lcd_2x16.c: 439: {;../..
      +                          /libraries/lib_lcd/lcd_2x16.c: 440:     u8 bcd[5];;../../libraries/lib_lcd/lcd_2x16.c: 4
      +                          42:     const char *day_of_week[] = {"Mon", "Tue", "Wed", "Thu", "Fri", "Sat", "Sun" };
  5967  00175E  EE20  F098         	lfsr	2,lcd_write_date@F2589
  5968  001762  EE10  F03B         	lfsr	1,lcd_write_date@day_of_week
  5969  001766  0E0D               	movlw	13
  5970  001768                     u8451:
  5971  001768  CFDB FFE3          	movff	plusw2,plusw1
  5972  00176C  06E8               	decf	wreg,f,c
  5973  00176E  E2FC               	bc	u8451
  5974                           
  5975                           ;../../libraries/lib_lcd/lcd_2x16.c: 443:     const char *month[] = {"Jan", "Feb", "Mar"
      +                          , "Apr", "May", "Jun",
  5976  001770  EE20  F080         	lfsr	2,lcd_write_date@F2591
  5977  001774  EE10  F023         	lfsr	1,lcd_write_date@month
  5978  001778  0E17               	movlw	23
  5979  00177A                     u8461:
  5980  00177A  CFDB FFE3          	movff	plusw2,plusw1
  5981  00177E  06E8               	decf	wreg,f,c
  5982  001780  E2FC               	bc	u8461
  5983  001782                     
  5984                           ;../../libraries/lib_lcd/lcd_2x16.c: 446:     if (format == LCD_DATE_LETTERS){
  5985  001782  501E               	movf	lcd_write_date@format^0,w,c
  5986  001784  A4D8               	btfss	status,2,c
  5987  001786  EFC7  F00B         	goto	u8471
  5988  00178A  EFCA  F00B         	goto	u8470
  5989  00178E                     u8471:
  5990  00178E  FFFF               	dw	65535	; assembler added errata NOP
  5991  001790  EF40  F00C         	goto	l7850
  5992  001794                     u8470:
  5993  001794  FFFF               	dw	65535	; assembler added errata NOP
  5994  001796                     
  5995                           ;../../libraries/lib_lcd/lcd_2x16.c: 447:         lcd_2x16_position (ligne, pos);
  5996  001796  C01D  F00E         	movff	lcd_write_date@pos,lcd_2x16_position@pos
  5997  00179A  501C               	movf	lcd_write_date@ligne^0,w,c
  5998  00179C  ECFE  F00F         	call	_lcd_2x16_position
  5999  0017A0                     
  6000                           ;../../libraries/lib_lcd/lcd_2x16.c: 448:         dec_2_bcd (t.dow, bcd);
  6001  0017A0  C018  F002         	movff	lcd_write_date@t+3,dec_2_bcd@dec
  6002  0017A4  6A03               	clrf	(dec_2_bcd@dec+1)^0,c
  6003  0017A6  0E49               	movlw	low lcd_write_date@bcd
  6004  0017A8  6E04               	movwf	dec_2_bcd@bcd^0,c
  6005  0017AA  0E00               	movlw	high lcd_write_date@bcd
  6006  0017AC  6E05               	movwf	(dec_2_bcd@bcd+1)^0,c
  6007  0017AE  EC1F  F00D         	call	_dec_2_bcd	;wreg free
  6008  0017B2                     
  6009                           ;../../libraries/lib_lcd/lcd_2x16.c: 449:         if (bcd[0] > 7 || bcd[0] < 1){
  6010  0017B2  0E08               	movlw	8
  6011  0017B4  6049               	cpfslt	lcd_write_date@bcd^0,c
  6012  0017B6  EFDF  F00B         	goto	u8481
  6013  0017BA  EFE2  F00B         	goto	u8480
  6014  0017BE                     u8481:
  6015  0017BE  FFFF               	dw	65535	; assembler added errata NOP
  6016  0017C0  EFEC  F00B         	goto	l7836
  6017  0017C4                     u8480:
  6018  0017C4  FFFF               	dw	65535	; assembler added errata NOP
  6019  0017C6  5049               	movf	lcd_write_date@bcd^0,w,c
  6020  0017C8  A4D8               	btfss	status,2,c
  6021  0017CA  EFE9  F00B         	goto	u8491
  6022  0017CE  EFEC  F00B         	goto	u8490
  6023  0017D2                     u8491:
  6024  0017D2  FFFF               	dw	65535	; assembler added errata NOP
  6025  0017D4  EFEF  F00B         	goto	l7838
  6026  0017D8                     u8490:
  6027  0017D8                     l7836:
  6028  0017D8  FFFF               	dw	65535	; assembler added errata NOP
  6029                           
  6030                           ;../../libraries/lib_lcd/lcd_2x16.c: 450:             bcd[0] = 1;
  6031  0017DA  0E01               	movlw	1
  6032  0017DC  6E49               	movwf	lcd_write_date@bcd^0,c
  6033  0017DE                     l7838:
  6034  0017DE  FFFF               	dw	65535	; assembler added errata NOP
  6035                           
  6036                           ;../../libraries/lib_lcd/lcd_2x16.c: 452:         lcd_2x16_write_string(day_of_week[bcd[
      +                          0]-1]);
  6037  0017E0  0EFE               	movlw	254
  6038  0017E2  6E1F               	movwf	??_lcd_write_date^0,c
  6039  0017E4  0EFF               	movlw	255
  6040  0017E6  6E20               	movwf	(??_lcd_write_date+1)^0,c
  6041  0017E8  5049               	movf	lcd_write_date@bcd^0,w,c
  6042  0017EA  6E21               	movwf	(??_lcd_write_date+2)^0,c
  6043  0017EC  6A22               	clrf	(??_lcd_write_date+3)^0,c
  6044  0017EE  90D8               	bcf	status,0,c
  6045  0017F0  3621               	rlcf	(??_lcd_write_date+2)^0,f,c
  6046  0017F2  3622               	rlcf	(??_lcd_write_date+3)^0,f,c
  6047  0017F4  501F               	movf	??_lcd_write_date^0,w,c
  6048  0017F6  2621               	addwf	(??_lcd_write_date+2)^0,f,c
  6049  0017F8  5020               	movf	(??_lcd_write_date+1)^0,w,c
  6050  0017FA  2222               	addwfc	(??_lcd_write_date+3)^0,f,c
  6051  0017FC  0E3B               	movlw	low lcd_write_date@day_of_week
  6052  0017FE  2421               	addwf	(??_lcd_write_date+2)^0,w,c
  6053  001800  6ED9               	movwf	fsr2l,c
  6054  001802  0E00               	movlw	high lcd_write_date@day_of_week
  6055  001804  2022               	addwfc	(??_lcd_write_date+3)^0,w,c
  6056  001806  6EDA               	movwf	fsr2h,c
  6057  001808  CFDE F00E          	movff	postinc2,lcd_2x16_write_string@string
  6058  00180C  CFDD F00F          	movff	postdec2,lcd_2x16_write_string@string+1
  6059  001810  ECFC  F012         	call	_lcd_2x16_write_string	;wreg free
  6060  001814                     
  6061                           ;../../libraries/lib_lcd/lcd_2x16.c: 453:         lcd_2x16_write_string (" ");
  6062  001814  0E6F               	movlw	low (STR_19+36)
  6063  001816  6E0E               	movwf	lcd_2x16_write_string@string^0,c
  6064  001818  0E7E               	movlw	high (STR_19+36)
  6065  00181A  6E0F               	movwf	(lcd_2x16_write_string@string+1)^0,c
  6066  00181C  ECFC  F012         	call	_lcd_2x16_write_string	;wreg free
  6067  001820                     
  6068                           ;../../libraries/lib_lcd/lcd_2x16.c: 454:         lcd_2x16_write_2bcd (t.day);
  6069  001820  C019  F00E         	movff	lcd_write_date@t+4,lcd_2x16_write_2bcd@data
  6070  001824  6A0F               	clrf	(lcd_2x16_write_2bcd@data+1)^0,c
  6071  001826  EC92  F013         	call	_lcd_2x16_write_2bcd	;wreg free
  6072  00182A                     
  6073                           ;../../libraries/lib_lcd/lcd_2x16.c: 455:         lcd_2x16_write_string (" ");
  6074  00182A  0E6F               	movlw	low (STR_19+36)
  6075  00182C  6E0E               	movwf	lcd_2x16_write_string@string^0,c
  6076  00182E  0E7E               	movlw	high (STR_19+36)
  6077  001830  6E0F               	movwf	(lcd_2x16_write_string@string+1)^0,c
  6078  001832  ECFC  F012         	call	_lcd_2x16_write_string	;wreg free
  6079  001836                     
  6080                           ;../../libraries/lib_lcd/lcd_2x16.c: 456:         dec_2_bcd (t.mth, bcd);
  6081  001836  C01A  F002         	movff	lcd_write_date@t+5,dec_2_bcd@dec
  6082  00183A  6A03               	clrf	(dec_2_bcd@dec+1)^0,c
  6083  00183C  0E49               	movlw	low lcd_write_date@bcd
  6084  00183E  6E04               	movwf	dec_2_bcd@bcd^0,c
  6085  001840  0E00               	movlw	high lcd_write_date@bcd
  6086  001842  6E05               	movwf	(dec_2_bcd@bcd+1)^0,c
  6087  001844  EC1F  F00D         	call	_dec_2_bcd	;wreg free
  6088  001848                     
  6089                           ;../../libraries/lib_lcd/lcd_2x16.c: 457:         lcd_2x16_write_string(month[bcd[0]-1])
      +                          ;
  6090  001848  0EFE               	movlw	254
  6091  00184A  6E1F               	movwf	??_lcd_write_date^0,c
  6092  00184C  0EFF               	movlw	255
  6093  00184E  6E20               	movwf	(??_lcd_write_date+1)^0,c
  6094  001850  5049               	movf	lcd_write_date@bcd^0,w,c
  6095  001852  6E21               	movwf	(??_lcd_write_date+2)^0,c
  6096  001854  6A22               	clrf	(??_lcd_write_date+3)^0,c
  6097  001856  90D8               	bcf	status,0,c
  6098  001858  3621               	rlcf	(??_lcd_write_date+2)^0,f,c
  6099  00185A  3622               	rlcf	(??_lcd_write_date+3)^0,f,c
  6100  00185C  501F               	movf	??_lcd_write_date^0,w,c
  6101  00185E  2621               	addwf	(??_lcd_write_date+2)^0,f,c
  6102  001860  5020               	movf	(??_lcd_write_date+1)^0,w,c
  6103  001862  2222               	addwfc	(??_lcd_write_date+3)^0,f,c
  6104  001864  0E23               	movlw	low lcd_write_date@month
  6105  001866  2421               	addwf	(??_lcd_write_date+2)^0,w,c
  6106  001868  6ED9               	movwf	fsr2l,c
  6107  00186A  0E00               	movlw	high lcd_write_date@month
  6108  00186C  2022               	addwfc	(??_lcd_write_date+3)^0,w,c
  6109  00186E  6EDA               	movwf	fsr2h,c
  6110  001870  CFDE F00E          	movff	postinc2,lcd_2x16_write_string@string
  6111  001874  CFDD F00F          	movff	postdec2,lcd_2x16_write_string@string+1
  6112  001878  ECFC  F012         	call	_lcd_2x16_write_string	;wreg free
  6113                           
  6114                           ;../../libraries/lib_lcd/lcd_2x16.c: 458:     }
  6115  00187C  EF67  F00C         	goto	l1031
  6116  001880                     l7850:
  6117  001880  FFFF               	dw	65535	; assembler added errata NOP
  6118                           
  6119                           ;../../libraries/lib_lcd/lcd_2x16.c: 460:         lcd_2x16_position (ligne, pos);
  6120  001882  C01D  F00E         	movff	lcd_write_date@pos,lcd_2x16_position@pos
  6121  001886  501C               	movf	lcd_write_date@ligne^0,w,c
  6122  001888  ECFE  F00F         	call	_lcd_2x16_position
  6123  00188C                     
  6124                           ;../../libraries/lib_lcd/lcd_2x16.c: 461:         lcd_2x16_write_2bcd (t.day);
  6125  00188C  C019  F00E         	movff	lcd_write_date@t+4,lcd_2x16_write_2bcd@data
  6126  001890  6A0F               	clrf	(lcd_2x16_write_2bcd@data+1)^0,c
  6127  001892  EC92  F013         	call	_lcd_2x16_write_2bcd	;wreg free
  6128  001896                     
  6129                           ;../../libraries/lib_lcd/lcd_2x16.c: 462:         lcd_2x16_write_string ("/");
  6130  001896  0EFA               	movlw	low STR_68
  6131  001898  6E0E               	movwf	lcd_2x16_write_string@string^0,c
  6132  00189A  0E7F               	movlw	high STR_68
  6133  00189C  6E0F               	movwf	(lcd_2x16_write_string@string+1)^0,c
  6134  00189E  ECFC  F012         	call	_lcd_2x16_write_string	;wreg free
  6135  0018A2                     
  6136                           ;../../libraries/lib_lcd/lcd_2x16.c: 463:         lcd_2x16_write_2bcd (t.mth);
  6137  0018A2  C01A  F00E         	movff	lcd_write_date@t+5,lcd_2x16_write_2bcd@data
  6138  0018A6  6A0F               	clrf	(lcd_2x16_write_2bcd@data+1)^0,c
  6139  0018A8  EC92  F013         	call	_lcd_2x16_write_2bcd	;wreg free
  6140  0018AC                     
  6141                           ;../../libraries/lib_lcd/lcd_2x16.c: 464:         lcd_2x16_write_string ("/");
  6142  0018AC  0EFA               	movlw	low STR_68
  6143  0018AE  6E0E               	movwf	lcd_2x16_write_string@string^0,c
  6144  0018B0  0E7F               	movlw	high STR_68
  6145  0018B2  6E0F               	movwf	(lcd_2x16_write_string@string+1)^0,c
  6146  0018B4  ECFC  F012         	call	_lcd_2x16_write_string	;wreg free
  6147  0018B8                     
  6148                           ;../../libraries/lib_lcd/lcd_2x16.c: 465:         lcd_2x16_write_2bcd (t.yrs);
  6149  0018B8  C01B  F00E         	movff	lcd_write_date@t+6,lcd_2x16_write_2bcd@data
  6150  0018BC  6A0F               	clrf	(lcd_2x16_write_2bcd@data+1)^0,c
  6151  0018BE  EC92  F013         	call	_lcd_2x16_write_2bcd	;wreg free
  6152  0018C2                     
  6153                           ;../../libraries/lib_lcd/lcd_2x16.c: 466:         lcd_2x16_write_string (" ");
  6154  0018C2  0E6F               	movlw	low (STR_19+36)
  6155  0018C4  6E0E               	movwf	lcd_2x16_write_string@string^0,c
  6156  0018C6  0E7E               	movlw	high (STR_19+36)
  6157  0018C8  6E0F               	movwf	(lcd_2x16_write_string@string+1)^0,c
  6158  0018CA  ECFC  F012         	call	_lcd_2x16_write_string	;wreg free
  6159  0018CE                     l1031:
  6160  0018CE  FFFF               	dw	65535	; assembler added errata NOP
  6161  0018D0  0012               	return		;funcret
  6162  0018D2  FFFF               	dw	65535	; errata NOP
  6163  0018D4                     __end_of_lcd_write_date:
  6164                           	opt callstack 0
  6165                           
  6166 ;; *************** function _lcd_2x16_write_string *****************
  6167 ;; Defined at:
  6168 ;;		line 193 in file "../../libraries/lib_lcd/lcd_2x16.c"
  6169 ;; Parameters:    Size  Location     Type
  6170 ;;  string          2   13[COMRAM] PTR const unsigned char 
  6171 ;;		 -> STR_72(2), STR_71(2), STR_70(2), STR_69(2), 
  6172 ;;		 -> STR_68(2), STR_67(2), STR_66(2), STR_65(4), 
  6173 ;;		 -> STR_64(4), STR_63(4), STR_62(4), STR_61(4), 
  6174 ;;		 -> STR_60(4), STR_59(4), STR_58(4), STR_57(4), 
  6175 ;;		 -> STR_56(4), STR_55(4), STR_54(4), STR_53(4), 
  6176 ;;		 -> STR_52(4), STR_51(4), STR_50(4), STR_49(4), 
  6177 ;;		 -> STR_48(4), STR_47(4), 
  6178 ;; Auto vars:     Size  Location     Type
  6179 ;;		None
  6180 ;; Return value:  Size  Location     Type
  6181 ;;                  1    wreg      void 
  6182 ;; Registers used:
  6183 ;;		wreg, status,2, status,0, tblptrl, tblptrh, tblptru, cstack
  6184 ;; Tracked objects:
  6185 ;;		On entry : 0/0
  6186 ;;		On exit  : 0/0
  6187 ;;		Unchanged: 0/0
  6188 ;; Data sizes:     COMRAM   BANK0   BANK1   BANK2   BANK3   BANK4   BANK5
  6189 ;;      Params:         2       0       0       0       0       0       0
  6190 ;;      Locals:         0       0       0       0       0       0       0
  6191 ;;      Temps:          0       0       0       0       0       0       0
  6192 ;;      Totals:         2       0       0       0       0       0       0
  6193 ;;Total ram usage:        2 bytes
  6194 ;; Hardware stack levels used:    1
  6195 ;; Hardware stack levels required when called:    3
  6196 ;; This function calls:
  6197 ;;		_lcd_2x16_write
  6198 ;; This function is called by:
  6199 ;;		_lcd_write_date
  6200 ;;		_lcd_write_time
  6201 ;; This function uses a non-reentrant model
  6202 ;;
  6203                           
  6204                           	psect	text24
  6205  0025F8                     __ptext24:
  6206                           	opt callstack 0
  6207  0025F8                     _lcd_2x16_write_string:
  6208                           	opt callstack 0
  6209  0025F8  FFFF               	dw	65535	; assembler added errata NOP
  6210  0025FA                     
  6211                           ;../../libraries/lib_lcd/lcd_2x16.c: 193: void lcd_2x16_write_string(const char *string)
      +                          ;../../libraries/lib_lcd/lcd_2x16.c: 194: {;../../libraries/lib_lcd/lcd_2x16.c: 195:    
      +                           while (*string)
  6212  0025FA  EF0F  F013         	goto	l7024
  6213  0025FE                     l7020:
  6214  0025FE  FFFF               	dw	65535	; assembler added errata NOP
  6215                           
  6216                           ;../../libraries/lib_lcd/lcd_2x16.c: 196:     {;../../libraries/lib_lcd/lcd_2x16.c: 197:
      +                                   lcd_2x16_write (*string++, 1);
  6217  002600  C00E  FFF6         	movff	lcd_2x16_write_string@string,tblptrl
  6218  002604  C00F  FFF7         	movff	lcd_2x16_write_string@string+1,tblptrh
  6219  002608                     	if	0	;tblptru may be non-zero
  6220  002608                     	endif
  6221  002608                     	if	0	;tblptru may be non-zero
  6222  002608                     	endif
  6223  002608  0008               	tblrd		*
  6224  00260A  FFFF               	dw	65535	; errata NOP
  6225  00260C  50F5               	movf	tablat,w,c
  6226  00260E  6E08               	movwf	lcd_2x16_write@data^0,c
  6227  002610  6A09               	clrf	(lcd_2x16_write@data+1)^0,c
  6228  002612  0E01               	movlw	1
  6229  002614  6E0A               	movwf	lcd_2x16_write@rs^0,c
  6230  002616  EC6A  F00C         	call	_lcd_2x16_write	;wreg free
  6231  00261A  4A0E               	infsnz	lcd_2x16_write_string@string^0,f,c
  6232  00261C  2A0F               	incf	(lcd_2x16_write_string@string+1)^0,f,c
  6233  00261E                     l7024:
  6234  00261E  FFFF               	dw	65535	; assembler added errata NOP
  6235                           
  6236                           ;../../libraries/lib_lcd/lcd_2x16.c: 195:     while (*string)
  6237  002620  C00E  FFF6         	movff	lcd_2x16_write_string@string,tblptrl
  6238  002624  C00F  FFF7         	movff	lcd_2x16_write_string@string+1,tblptrh
  6239  002628                     	if	0	;tblptru may be non-zero
  6240  002628                     	endif
  6241  002628                     	if	0	;tblptru may be non-zero
  6242  002628                     	endif
  6243  002628  0008               	tblrd		*
  6244  00262A  FFFF               	dw	65535	; errata NOP
  6245  00262C  50F5               	movf	tablat,w,c
  6246  00262E  0900               	iorlw	0
  6247  002630  A4D8               	btfss	status,2,c
  6248  002632  EF1D  F013         	goto	u7181
  6249  002636  EF20  F013         	goto	u7180
  6250  00263A                     u7181:
  6251  00263A  FFFF               	dw	65535	; assembler added errata NOP
  6252  00263C  EFFF  F012         	goto	l7020
  6253  002640                     u7180:
  6254  002640  FFFF               	dw	65535	; assembler added errata NOP
  6255  002642  0012               	return		;funcret
  6256  002644  FFFF               	dw	65535	; errata NOP
  6257  002646                     __end_of_lcd_2x16_write_string:
  6258                           	opt callstack 0
  6259                           
  6260 ;; *************** function _lcd_2x16_write_2bcd *****************
  6261 ;; Defined at:
  6262 ;;		line 205 in file "../../libraries/lib_lcd/lcd_2x16.c"
  6263 ;; Parameters:    Size  Location     Type
  6264 ;;  data            2   13[COMRAM] unsigned short 
  6265 ;; Auto vars:     Size  Location     Type
  6266 ;;  bcd             5   15[COMRAM] unsigned char [5]
  6267 ;; Return value:  Size  Location     Type
  6268 ;;                  1    wreg      void 
  6269 ;; Registers used:
  6270 ;;		wreg, fsr2l, fsr2h, status,2, status,0, cstack
  6271 ;; Tracked objects:
  6272 ;;		On entry : 0/0
  6273 ;;		On exit  : 0/0
  6274 ;;		Unchanged: 0/0
  6275 ;; Data sizes:     COMRAM   BANK0   BANK1   BANK2   BANK3   BANK4   BANK5
  6276 ;;      Params:         2       0       0       0       0       0       0
  6277 ;;      Locals:         5       0       0       0       0       0       0
  6278 ;;      Temps:          0       0       0       0       0       0       0
  6279 ;;      Totals:         7       0       0       0       0       0       0
  6280 ;;Total ram usage:        7 bytes
  6281 ;; Hardware stack levels used:    1
  6282 ;; Hardware stack levels required when called:    3
  6283 ;; This function calls:
  6284 ;;		_dec_2_bcd
  6285 ;;		_lcd_2x16_write
  6286 ;; This function is called by:
  6287 ;;		_lcd_write_temperature
  6288 ;;		_lcd_write_date
  6289 ;;		_lcd_write_time
  6290 ;; This function uses a non-reentrant model
  6291 ;;
  6292                           
  6293                           	psect	text25
  6294  002724                     __ptext25:
  6295                           	opt callstack 0
  6296  002724                     _lcd_2x16_write_2bcd:
  6297                           	opt callstack 0
  6298  002724  FFFF               	dw	65535	; assembler added errata NOP
  6299  002726                     
  6300                           ;../../libraries/lib_lcd/lcd_2x16.c: 205: void lcd_2x16_write_2bcd (u16 data);../../libr
      +                          aries/lib_lcd/lcd_2x16.c: 206: {;../../libraries/lib_lcd/lcd_2x16.c: 207:     u8 bcd[5];
      +                          ;../../libraries/lib_lcd/lcd_2x16.c: 208:     dec_2_bcd (data, bcd);
  6301  002726  C00E  F002         	movff	lcd_2x16_write_2bcd@data,dec_2_bcd@dec
  6302  00272A  C00F  F003         	movff	lcd_2x16_write_2bcd@data+1,dec_2_bcd@dec+1
  6303  00272E  0E10               	movlw	low lcd_2x16_write_2bcd@bcd
  6304  002730  6E04               	movwf	dec_2_bcd@bcd^0,c
  6305  002732  0E00               	movlw	high lcd_2x16_write_2bcd@bcd
  6306  002734  6E05               	movwf	(dec_2_bcd@bcd+1)^0,c
  6307  002736  EC1F  F00D         	call	_dec_2_bcd	;wreg free
  6308  00273A                     
  6309                           ;../../libraries/lib_lcd/lcd_2x16.c: 209:     lcd_2x16_write (bcd[1] + 0x30, 1);
  6310  00273A  0E30               	movlw	48
  6311  00273C  2411               	addwf	(lcd_2x16_write_2bcd@bcd+1)^0,w,c
  6312  00273E  6E08               	movwf	lcd_2x16_write@data^0,c
  6313  002740  6A09               	clrf	(lcd_2x16_write@data+1)^0,c
  6314  002742  0E00               	movlw	0
  6315  002744  2209               	addwfc	(lcd_2x16_write@data+1)^0,f,c
  6316  002746  0E01               	movlw	1
  6317  002748  6E0A               	movwf	lcd_2x16_write@rs^0,c
  6318  00274A  EC6A  F00C         	call	_lcd_2x16_write	;wreg free
  6319  00274E                     
  6320                           ;../../libraries/lib_lcd/lcd_2x16.c: 210:     lcd_2x16_write (bcd[0] + 0x30, 1);
  6321  00274E  0E30               	movlw	48
  6322  002750  2410               	addwf	lcd_2x16_write_2bcd@bcd^0,w,c
  6323  002752  6E08               	movwf	lcd_2x16_write@data^0,c
  6324  002754  6A09               	clrf	(lcd_2x16_write@data+1)^0,c
  6325  002756  0E00               	movlw	0
  6326  002758  2209               	addwfc	(lcd_2x16_write@data+1)^0,f,c
  6327  00275A  0E01               	movlw	1
  6328  00275C  6E0A               	movwf	lcd_2x16_write@rs^0,c
  6329  00275E  EC6A  F00C         	call	_lcd_2x16_write	;wreg free
  6330  002762  0012               	return		;funcret
  6331  002764  FFFF               	dw	65535	; errata NOP
  6332  002766                     __end_of_lcd_2x16_write_2bcd:
  6333                           	opt callstack 0
  6334                           
  6335 ;; *************** function _dec_2_bcd *****************
  6336 ;; Defined at:
  6337 ;;		line 8 in file "../../libraries/lib_misc/bcd.c"
  6338 ;; Parameters:    Size  Location     Type
  6339 ;;  dec             2    1[COMRAM] unsigned short 
  6340 ;;  bcd             2    3[COMRAM] PTR unsigned char 
  6341 ;;		 -> lcd_write_date@bcd(5), lcd_2x16_write_u16@bcd(5), lcd_2x16_write_u8@bcd(5), lcd_2x16_write_s16@bcd(5), 
  6342 ;;		 -> lcd_2x16_write_s8@bcd(5), lcd_2x16_write_2bcd@bcd(5), uart_write_temperature@bcd(5), uart_write_date@bcd(5), 
  6343 ;;		 -> uart_write_u16@bcd(5), uart_write_u8@bcd(5), uart_write_char@bcd(5), 
  6344 ;; Auto vars:     Size  Location     Type
  6345 ;;		None
  6346 ;; Return value:  Size  Location     Type
  6347 ;;                  1    wreg      void 
  6348 ;; Registers used:
  6349 ;;		wreg, fsr2l, fsr2h, status,2, status,0
  6350 ;; Tracked objects:
  6351 ;;		On entry : 0/0
  6352 ;;		On exit  : 0/0
  6353 ;;		Unchanged: 0/0
  6354 ;; Data sizes:     COMRAM   BANK0   BANK1   BANK2   BANK3   BANK4   BANK5
  6355 ;;      Params:         4       0       0       0       0       0       0
  6356 ;;      Locals:         0       0       0       0       0       0       0
  6357 ;;      Temps:          0       0       0       0       0       0       0
  6358 ;;      Totals:         4       0       0       0       0       0       0
  6359 ;;Total ram usage:        4 bytes
  6360 ;; Hardware stack levels used:    1
  6361 ;; Hardware stack levels required when called:    1
  6362 ;; This function calls:
  6363 ;;		Nothing
  6364 ;; This function is called by:
  6365 ;;		_lcd_2x16_write_2bcd
  6366 ;;		_lcd_write_date
  6367 ;;		_uart_write_char
  6368 ;;		_uart_write_u8
  6369 ;;		_uart_write_u16
  6370 ;;		_uart_write_date
  6371 ;;		_uart_write_temperature
  6372 ;;		_lcd_2x16_write_s8
  6373 ;;		_lcd_2x16_write_s16
  6374 ;;		_lcd_2x16_write_u8
  6375 ;;		_lcd_2x16_write_u16
  6376 ;; This function uses a non-reentrant model
  6377 ;;
  6378                           
  6379                           	psect	text26
  6380  001A3E                     __ptext26:
  6381                           	opt callstack 0
  6382  001A3E                     _dec_2_bcd:
  6383                           	opt callstack 0
  6384  001A3E  FFFF               	dw	65535	; assembler added errata NOP
  6385  001A40                     
  6386                           ;../../libraries/lib_misc/bcd.c: 8: void dec_2_bcd(u16 dec, u8 bcd[]);../../libraries/li
      +                          b_misc/bcd.c: 9: {;../../libraries/lib_misc/bcd.c: 10:     bcd[0]=0, bcd[1]=0, bcd[2]=0,
      +                           bcd[3]=0, bcd[4]=0;
  6387  001A40  C004  FFD9         	movff	dec_2_bcd@bcd,fsr2l
  6388  001A44  C005  FFDA         	movff	dec_2_bcd@bcd+1,fsr2h
  6389  001A48  0E00               	movlw	0
  6390  001A4A  6EDF               	movwf	indf2,c
  6391  001A4C  EE20 F001          	lfsr	2,1
  6392  001A50  5004               	movf	dec_2_bcd@bcd^0,w,c
  6393  001A52  26D9               	addwf	fsr2l,f,c
  6394  001A54  5005               	movf	(dec_2_bcd@bcd+1)^0,w,c
  6395  001A56  22DA               	addwfc	fsr2h,f,c
  6396  001A58  0E00               	movlw	0
  6397  001A5A  6EDF               	movwf	indf2,c
  6398  001A5C  EE20 F002          	lfsr	2,2
  6399  001A60  5004               	movf	dec_2_bcd@bcd^0,w,c
  6400  001A62  26D9               	addwf	fsr2l,f,c
  6401  001A64  5005               	movf	(dec_2_bcd@bcd+1)^0,w,c
  6402  001A66  22DA               	addwfc	fsr2h,f,c
  6403  001A68  0E00               	movlw	0
  6404  001A6A  6EDF               	movwf	indf2,c
  6405  001A6C  EE20 F003          	lfsr	2,3
  6406  001A70  5004               	movf	dec_2_bcd@bcd^0,w,c
  6407  001A72  26D9               	addwf	fsr2l,f,c
  6408  001A74  5005               	movf	(dec_2_bcd@bcd+1)^0,w,c
  6409  001A76  22DA               	addwfc	fsr2h,f,c
  6410  001A78  0E00               	movlw	0
  6411  001A7A  6EDF               	movwf	indf2,c
  6412  001A7C  EE20 F004          	lfsr	2,4
  6413  001A80  5004               	movf	dec_2_bcd@bcd^0,w,c
  6414  001A82  26D9               	addwf	fsr2l,f,c
  6415  001A84  5005               	movf	(dec_2_bcd@bcd+1)^0,w,c
  6416  001A86  22DA               	addwfc	fsr2h,f,c
  6417  001A88  0E00               	movlw	0
  6418  001A8A  6EDF               	movwf	indf2,c
  6419                           
  6420                           ;../../libraries/lib_misc/bcd.c: 12:     while (dec>=10000) {bcd[4]++; dec -= 10000;}
  6421  001A8C  EF54  F00D         	goto	l6822
  6422  001A90                     l6818:
  6423  001A90  FFFF               	dw	65535	; assembler added errata NOP
  6424  001A92  EE20 F004          	lfsr	2,4
  6425  001A96  5004               	movf	dec_2_bcd@bcd^0,w,c
  6426  001A98  26D9               	addwf	fsr2l,f,c
  6427  001A9A  5005               	movf	(dec_2_bcd@bcd+1)^0,w,c
  6428  001A9C  22DA               	addwfc	fsr2h,f,c
  6429  001A9E  2ADF               	incf	indf2,f,c
  6430  001AA0  0E10               	movlw	16
  6431  001AA2  5E02               	subwf	dec_2_bcd@dec^0,f,c
  6432  001AA4  0E27               	movlw	39
  6433  001AA6  5A03               	subwfb	(dec_2_bcd@dec+1)^0,f,c
  6434  001AA8                     l6822:
  6435  001AA8  FFFF               	dw	65535	; assembler added errata NOP
  6436  001AAA  0E10               	movlw	16
  6437  001AAC  5C02               	subwf	dec_2_bcd@dec^0,w,c
  6438  001AAE  0E27               	movlw	39
  6439  001AB0  5803               	subwfb	(dec_2_bcd@dec+1)^0,w,c
  6440  001AB2  B0D8               	btfsc	status,0,c
  6441  001AB4  EF5E  F00D         	goto	u6931
  6442  001AB8  EF61  F00D         	goto	u6930
  6443  001ABC                     u6931:
  6444  001ABC  FFFF               	dw	65535	; assembler added errata NOP
  6445  001ABE  EF48  F00D         	goto	l6818
  6446  001AC2                     u6930:
  6447  001AC2  FFFF               	dw	65535	; assembler added errata NOP
  6448  001AC4  EF70  F00D         	goto	l6828
  6449  001AC8                     l6824:
  6450  001AC8  FFFF               	dw	65535	; assembler added errata NOP
  6451  001ACA  EE20 F003          	lfsr	2,3
  6452  001ACE  5004               	movf	dec_2_bcd@bcd^0,w,c
  6453  001AD0  26D9               	addwf	fsr2l,f,c
  6454  001AD2  5005               	movf	(dec_2_bcd@bcd+1)^0,w,c
  6455  001AD4  22DA               	addwfc	fsr2h,f,c
  6456  001AD6  2ADF               	incf	indf2,f,c
  6457  001AD8  0EE8               	movlw	232
  6458  001ADA  5E02               	subwf	dec_2_bcd@dec^0,f,c
  6459  001ADC  0E03               	movlw	3
  6460  001ADE  5A03               	subwfb	(dec_2_bcd@dec+1)^0,f,c
  6461  001AE0                     l6828:
  6462  001AE0  FFFF               	dw	65535	; assembler added errata NOP
  6463  001AE2  0EE8               	movlw	232
  6464  001AE4  5C02               	subwf	dec_2_bcd@dec^0,w,c
  6465  001AE6  0E03               	movlw	3
  6466  001AE8  5803               	subwfb	(dec_2_bcd@dec+1)^0,w,c
  6467  001AEA  B0D8               	btfsc	status,0,c
  6468  001AEC  EF7A  F00D         	goto	u6941
  6469  001AF0  EF7D  F00D         	goto	u6940
  6470  001AF4                     u6941:
  6471  001AF4  FFFF               	dw	65535	; assembler added errata NOP
  6472  001AF6  EF64  F00D         	goto	l6824
  6473  001AFA                     u6940:
  6474  001AFA  FFFF               	dw	65535	; assembler added errata NOP
  6475  001AFC  EF8C  F00D         	goto	l6834
  6476  001B00                     l6830:
  6477  001B00  FFFF               	dw	65535	; assembler added errata NOP
  6478  001B02  EE20 F002          	lfsr	2,2
  6479  001B06  5004               	movf	dec_2_bcd@bcd^0,w,c
  6480  001B08  26D9               	addwf	fsr2l,f,c
  6481  001B0A  5005               	movf	(dec_2_bcd@bcd+1)^0,w,c
  6482  001B0C  22DA               	addwfc	fsr2h,f,c
  6483  001B0E  2ADF               	incf	indf2,f,c
  6484  001B10  0E64               	movlw	100
  6485  001B12  5E02               	subwf	dec_2_bcd@dec^0,f,c
  6486  001B14  0E00               	movlw	0
  6487  001B16  5A03               	subwfb	(dec_2_bcd@dec+1)^0,f,c
  6488  001B18                     l6834:
  6489  001B18  FFFF               	dw	65535	; assembler added errata NOP
  6490  001B1A  5003               	movf	(dec_2_bcd@dec+1)^0,w,c
  6491  001B1C  E107               	bnz	u6951
  6492  001B1E  0E64               	movlw	100
  6493  001B20  5C02               	subwf	dec_2_bcd@dec^0,w,c
  6494  001B22  B0D8               	btfsc	status,0,c
  6495  001B24  EF96  F00D         	goto	u6951
  6496  001B28  EF99  F00D         	goto	u6950
  6497  001B2C                     u6951:
  6498  001B2C  FFFF               	dw	65535	; assembler added errata NOP
  6499  001B2E  EF80  F00D         	goto	l6830
  6500  001B32                     u6950:
  6501  001B32  FFFF               	dw	65535	; assembler added errata NOP
  6502  001B34  EFA8  F00D         	goto	l6840
  6503  001B38                     l6836:
  6504  001B38  FFFF               	dw	65535	; assembler added errata NOP
  6505  001B3A  EE20 F001          	lfsr	2,1
  6506  001B3E  5004               	movf	dec_2_bcd@bcd^0,w,c
  6507  001B40  26D9               	addwf	fsr2l,f,c
  6508  001B42  5005               	movf	(dec_2_bcd@bcd+1)^0,w,c
  6509  001B44  22DA               	addwfc	fsr2h,f,c
  6510  001B46  2ADF               	incf	indf2,f,c
  6511  001B48  0E0A               	movlw	10
  6512  001B4A  5E02               	subwf	dec_2_bcd@dec^0,f,c
  6513  001B4C  0E00               	movlw	0
  6514  001B4E  5A03               	subwfb	(dec_2_bcd@dec+1)^0,f,c
  6515  001B50                     l6840:
  6516  001B50  FFFF               	dw	65535	; assembler added errata NOP
  6517  001B52  5003               	movf	(dec_2_bcd@dec+1)^0,w,c
  6518  001B54  E107               	bnz	u6961
  6519  001B56  0E0A               	movlw	10
  6520  001B58  5C02               	subwf	dec_2_bcd@dec^0,w,c
  6521  001B5A  B0D8               	btfsc	status,0,c
  6522  001B5C  EFB2  F00D         	goto	u6961
  6523  001B60  EFB5  F00D         	goto	u6960
  6524  001B64                     u6961:
  6525  001B64  FFFF               	dw	65535	; assembler added errata NOP
  6526  001B66  EF9C  F00D         	goto	l6836
  6527  001B6A                     u6960:
  6528  001B6A  FFFF               	dw	65535	; assembler added errata NOP
  6529  001B6C                     
  6530                           ;../../libraries/lib_misc/bcd.c: 16:     bcd[0] = dec;
  6531  001B6C  C004  FFD9         	movff	dec_2_bcd@bcd,fsr2l
  6532  001B70  C005  FFDA         	movff	dec_2_bcd@bcd+1,fsr2h
  6533  001B74  C002  FFDF         	movff	dec_2_bcd@dec,indf2
  6534  001B78  0012               	return		;funcret
  6535  001B7A  FFFF               	dw	65535	; errata NOP
  6536  001B7C                     __end_of_dec_2_bcd:
  6537                           	opt callstack 0
  6538                           
  6539 ;; *************** function _lcd_2x16_position *****************
  6540 ;; Defined at:
  6541 ;;		line 170 in file "../../libraries/lib_lcd/lcd_2x16.c"
  6542 ;; Parameters:    Size  Location     Type
  6543 ;;  ligne           1    wreg     enum E2015
  6544 ;;  pos             1   13[COMRAM] unsigned char 
  6545 ;; Auto vars:     Size  Location     Type
  6546 ;;  ligne           1   16[COMRAM] enum E2015
  6547 ;; Return value:  Size  Location     Type
  6548 ;;                  1    wreg      void 
  6549 ;; Registers used:
  6550 ;;		wreg, status,2, status,0, cstack
  6551 ;; Tracked objects:
  6552 ;;		On entry : 0/0
  6553 ;;		On exit  : 0/0
  6554 ;;		Unchanged: 0/0
  6555 ;; Data sizes:     COMRAM   BANK0   BANK1   BANK2   BANK3   BANK4   BANK5
  6556 ;;      Params:         1       0       0       0       0       0       0
  6557 ;;      Locals:         1       0       0       0       0       0       0
  6558 ;;      Temps:          2       0       0       0       0       0       0
  6559 ;;      Totals:         4       0       0       0       0       0       0
  6560 ;;Total ram usage:        4 bytes
  6561 ;; Hardware stack levels used:    1
  6562 ;; Hardware stack levels required when called:    3
  6563 ;; This function calls:
  6564 ;;		_lcd_2x16_write
  6565 ;; This function is called by:
  6566 ;;		_lcd_write_temperature
  6567 ;;		_lcd_write_date
  6568 ;;		_lcd_write_time
  6569 ;; This function uses a non-reentrant model
  6570 ;;
  6571                           
  6572                           	psect	text27
  6573  001FFC                     __ptext27:
  6574                           	opt callstack 0
  6575  001FFC                     _lcd_2x16_position:
  6576                           	opt callstack 0
  6577  001FFC  FFFF               	dw	65535	; assembler added errata NOP
  6578                           
  6579                           ;incstack = 0
  6580                           ;lcd_2x16_position@ligne stored from wreg
  6581  001FFE  6E11               	movwf	lcd_2x16_position@ligne^0,c
  6582  002000                     
  6583                           ;../../libraries/lib_lcd/lcd_2x16.c: 170: void lcd_2x16_position(LCD_LINE ligne, u8 pos)
      +                          ;../../libraries/lib_lcd/lcd_2x16.c: 171: {;../../libraries/lib_lcd/lcd_2x16.c: 172:    
      +                           switch (ligne)
  6584  002000  EF36  F010         	goto	l7012
  6585  002004                     l7002:
  6586  002004  FFFF               	dw	65535	; assembler added errata NOP
  6587  002006  0E7F               	movlw	127
  6588  002008  240E               	addwf	lcd_2x16_position@pos^0,w,c
  6589  00200A  6E08               	movwf	lcd_2x16_write@data^0,c
  6590  00200C  6A09               	clrf	(lcd_2x16_write@data+1)^0,c
  6591  00200E  0E00               	movlw	0
  6592  002010  2209               	addwfc	(lcd_2x16_write@data+1)^0,f,c
  6593  002012  0E00               	movlw	0
  6594  002014  6E0A               	movwf	lcd_2x16_write@rs^0,c
  6595  002016  EC6A  F00C         	call	_lcd_2x16_write	;wreg free
  6596  00201A  EF55  F010         	goto	l946
  6597  00201E                     l7004:
  6598  00201E  FFFF               	dw	65535	; assembler added errata NOP
  6599  002020  0EBF               	movlw	191
  6600  002022  240E               	addwf	lcd_2x16_position@pos^0,w,c
  6601  002024  6E08               	movwf	lcd_2x16_write@data^0,c
  6602  002026  6A09               	clrf	(lcd_2x16_write@data+1)^0,c
  6603  002028  0E00               	movlw	0
  6604  00202A  2209               	addwfc	(lcd_2x16_write@data+1)^0,f,c
  6605  00202C  0E00               	movlw	0
  6606  00202E  6E0A               	movwf	lcd_2x16_write@rs^0,c
  6607  002030  EC6A  F00C         	call	_lcd_2x16_write	;wreg free
  6608  002034  EF55  F010         	goto	l946
  6609  002038                     l7006:
  6610  002038  FFFF               	dw	65535	; assembler added errata NOP
  6611  00203A  0E93               	movlw	147
  6612  00203C  240E               	addwf	lcd_2x16_position@pos^0,w,c
  6613  00203E  6E08               	movwf	lcd_2x16_write@data^0,c
  6614  002040  6A09               	clrf	(lcd_2x16_write@data+1)^0,c
  6615  002042  0E00               	movlw	0
  6616  002044  2209               	addwfc	(lcd_2x16_write@data+1)^0,f,c
  6617  002046  0E00               	movlw	0
  6618  002048  6E0A               	movwf	lcd_2x16_write@rs^0,c
  6619  00204A  EC6A  F00C         	call	_lcd_2x16_write	;wreg free
  6620  00204E  EF55  F010         	goto	l946
  6621  002052                     l7008:
  6622  002052  FFFF               	dw	65535	; assembler added errata NOP
  6623  002054  0ED3               	movlw	211
  6624  002056  240E               	addwf	lcd_2x16_position@pos^0,w,c
  6625  002058  6E08               	movwf	lcd_2x16_write@data^0,c
  6626  00205A  6A09               	clrf	(lcd_2x16_write@data+1)^0,c
  6627  00205C  0E00               	movlw	0
  6628  00205E  2209               	addwfc	(lcd_2x16_write@data+1)^0,f,c
  6629  002060  0E00               	movlw	0
  6630  002062  6E0A               	movwf	lcd_2x16_write@rs^0,c
  6631  002064  EC6A  F00C         	call	_lcd_2x16_write	;wreg free
  6632  002068  EF55  F010         	goto	l946
  6633  00206C                     l7012:
  6634  00206C  FFFF               	dw	65535	; assembler added errata NOP
  6635  00206E  5011               	movf	lcd_2x16_position@ligne^0,w,c
  6636  002070  6E0F               	movwf	??_lcd_2x16_position^0,c
  6637  002072  6A10               	clrf	(??_lcd_2x16_position+1)^0,c
  6638                           
  6639                           ; Switch on 2 bytes has been partitioned into a top level switch of size 1, and 1 sub-sw
      +                          itches
  6640                           ; Switch size 1, requested type "simple"
  6641                           ; Number of cases is 1, Range of values is 0 to 0
  6642                           ; switch strategies available:
  6643                           ; Name         Instructions Cycles
  6644                           ; simple_byte            4     3 (average)
  6645                           ;	Chosen strategy is simple_byte
  6646  002074  5010               	movf	(??_lcd_2x16_position+1)^0,w,c
  6647  002076  0A00               	xorlw	0	; case 0
  6648  002078  B4D8               	btfsc	status,2,c
  6649  00207A  EF41  F010         	goto	l8828
  6650  00207E  EF55  F010         	goto	l946
  6651  002082                     l8828:
  6652  002082  FFFF               	dw	65535	; assembler added errata NOP
  6653                           
  6654                           ; Switch size 1, requested type "simple"
  6655                           ; Number of cases is 4, Range of values is 1 to 4
  6656                           ; switch strategies available:
  6657                           ; Name         Instructions Cycles
  6658                           ; simple_byte           13     7 (average)
  6659                           ;	Chosen strategy is simple_byte
  6660  002084  500F               	movf	??_lcd_2x16_position^0,w,c
  6661  002086  0A01               	xorlw	1	; case 1
  6662  002088  B4D8               	btfsc	status,2,c
  6663  00208A  EF02  F010         	goto	l7002
  6664  00208E  0A03               	xorlw	3	; case 2
  6665  002090  B4D8               	btfsc	status,2,c
  6666  002092  EF0F  F010         	goto	l7004
  6667  002096  0A01               	xorlw	1	; case 3
  6668  002098  B4D8               	btfsc	status,2,c
  6669  00209A  EF1C  F010         	goto	l7006
  6670  00209E  0A07               	xorlw	7	; case 4
  6671  0020A0  B4D8               	btfsc	status,2,c
  6672  0020A2  EF29  F010         	goto	l7008
  6673  0020A6  EF55  F010         	goto	l946
  6674  0020AA                     l946:
  6675  0020AA  FFFF               	dw	65535	; assembler added errata NOP
  6676  0020AC  0012               	return		;funcret
  6677  0020AE  FFFF               	dw	65535	; errata NOP
  6678  0020B0                     __end_of_lcd_2x16_position:
  6679                           	opt callstack 0
  6680                           
  6681 ;; *************** function _lcd_2x16_init *****************
  6682 ;; Defined at:
  6683 ;;		line 11 in file "../../libraries/lib_lcd/lcd_2x16.c"
  6684 ;; Parameters:    Size  Location     Type
  6685 ;;  config          2   13[COMRAM] struct .
  6686 ;; Auto vars:     Size  Location     Type
  6687 ;;		None
  6688 ;; Return value:  Size  Location     Type
  6689 ;;                  1    wreg      enum E1898
  6690 ;; Registers used:
  6691 ;;		wreg, status,2, status,0, cstack
  6692 ;; Tracked objects:
  6693 ;;		On entry : 0/0
  6694 ;;		On exit  : 0/0
  6695 ;;		Unchanged: 0/0
  6696 ;; Data sizes:     COMRAM   BANK0   BANK1   BANK2   BANK3   BANK4   BANK5
  6697 ;;      Params:         2       0       0       0       0       0       0
  6698 ;;      Locals:         0       0       0       0       0       0       0
  6699 ;;      Temps:          2       0       0       0       0       0       0
  6700 ;;      Totals:         4       0       0       0       0       0       0
  6701 ;;Total ram usage:        4 bytes
  6702 ;; Hardware stack levels used:    1
  6703 ;; Hardware stack levels required when called:    3
  6704 ;; This function calls:
  6705 ;;		_delay_ms
  6706 ;;		_lcd_2x16_write
  6707 ;;		_lcd_2x16_write_4b
  6708 ;; This function is called by:
  6709 ;;		_main
  6710 ;; This function uses a non-reentrant model
  6711 ;;
  6712                           
  6713                           	psect	text28
  6714  001CB2                     __ptext28:
  6715                           	opt callstack 0
  6716  001CB2                     _lcd_2x16_init:
  6717                           	opt callstack 0
  6718  001CB2  FFFF               	dw	65535	; assembler added errata NOP
  6719  001CB4                     
  6720                           ;../../libraries/lib_lcd/lcd_2x16.c: 11: result_t lcd_2x16_init(lcd_config_t config);../
      +                          ../libraries/lib_lcd/lcd_2x16.c: 12: {;../../libraries/lib_lcd/lcd_2x16.c: 16:     TRISB
      +                          bits.TRISB5 = 0;
  6721  001CB4  9A93               	bcf	147,5,c	;volatile
  6722                           
  6723                           ;../../libraries/lib_lcd/lcd_2x16.c: 17:     TRISBbits.TRISB4 = 0;
  6724  001CB6  9893               	bcf	147,4,c	;volatile
  6725                           
  6726                           ;../../libraries/lib_lcd/lcd_2x16.c: 18:     TRISBbits.TRISB0 = 0;
  6727  001CB8  9093               	bcf	147,0,c	;volatile
  6728                           
  6729                           ;../../libraries/lib_lcd/lcd_2x16.c: 19:     TRISBbits.TRISB1 = 0;
  6730  001CBA  9293               	bcf	147,1,c	;volatile
  6731                           
  6732                           ;../../libraries/lib_lcd/lcd_2x16.c: 20:     TRISBbits.TRISB2 = 0;
  6733  001CBC  9493               	bcf	147,2,c	;volatile
  6734                           
  6735                           ;../../libraries/lib_lcd/lcd_2x16.c: 21:     TRISBbits.TRISB3 = 0;
  6736  001CBE  9693               	bcf	147,3,c	;volatile
  6737  001CC0                     
  6738                           ;../../libraries/lib_lcd/lcd_2x16.c: 24:     delay_ms(60);
  6739  001CC0  0E00               	movlw	0
  6740  001CC2  6E03               	movwf	(delay_ms@loop+1)^0,c
  6741  001CC4  0E3C               	movlw	60
  6742  001CC6  6E02               	movwf	delay_ms@loop^0,c
  6743  001CC8  ECF4  F011         	call	_delay_ms	;wreg free
  6744                           
  6745                           ;../../libraries/lib_lcd/lcd_2x16.c: 27:     lcd_2x16_write_4b(0x3, 0);
  6746  001CCC  0E00               	movlw	0
  6747  001CCE  6E09               	movwf	(lcd_2x16_write_4b@data+1)^0,c
  6748  001CD0  0E03               	movlw	3
  6749  001CD2  6E08               	movwf	lcd_2x16_write_4b@data^0,c
  6750  001CD4  0E00               	movlw	0
  6751  001CD6  6E0A               	movwf	lcd_2x16_write_4b@rs^0,c
  6752  001CD8  EC58  F010         	call	_lcd_2x16_write_4b	;wreg free
  6753                           
  6754                           ;../../libraries/lib_lcd/lcd_2x16.c: 30:     delay_ms(20);
  6755  001CDC  0E00               	movlw	0
  6756  001CDE  6E03               	movwf	(delay_ms@loop+1)^0,c
  6757  001CE0  0E14               	movlw	20
  6758  001CE2  6E02               	movwf	delay_ms@loop^0,c
  6759  001CE4  ECF4  F011         	call	_delay_ms	;wreg free
  6760                           
  6761                           ;../../libraries/lib_lcd/lcd_2x16.c: 33:     lcd_2x16_write_4b(0x3, 0);
  6762  001CE8  0E00               	movlw	0
  6763  001CEA  6E09               	movwf	(lcd_2x16_write_4b@data+1)^0,c
  6764  001CEC  0E03               	movlw	3
  6765  001CEE  6E08               	movwf	lcd_2x16_write_4b@data^0,c
  6766  001CF0  0E00               	movlw	0
  6767  001CF2  6E0A               	movwf	lcd_2x16_write_4b@rs^0,c
  6768  001CF4  EC58  F010         	call	_lcd_2x16_write_4b	;wreg free
  6769                           
  6770                           ;../../libraries/lib_lcd/lcd_2x16.c: 36:     delay_ms(1);
  6771  001CF8  0E00               	movlw	0
  6772  001CFA  6E03               	movwf	(delay_ms@loop+1)^0,c
  6773  001CFC  0E01               	movlw	1
  6774  001CFE  6E02               	movwf	delay_ms@loop^0,c
  6775  001D00  ECF4  F011         	call	_delay_ms	;wreg free
  6776                           
  6777                           ;../../libraries/lib_lcd/lcd_2x16.c: 39:     lcd_2x16_write_4b(0x3, 0);
  6778  001D04  0E00               	movlw	0
  6779  001D06  6E09               	movwf	(lcd_2x16_write_4b@data+1)^0,c
  6780  001D08  0E03               	movlw	3
  6781  001D0A  6E08               	movwf	lcd_2x16_write_4b@data^0,c
  6782  001D0C  0E00               	movlw	0
  6783  001D0E  6E0A               	movwf	lcd_2x16_write_4b@rs^0,c
  6784  001D10  EC58  F010         	call	_lcd_2x16_write_4b	;wreg free
  6785                           
  6786                           ;../../libraries/lib_lcd/lcd_2x16.c: 42:     lcd_2x16_write_4b(0x2, 0);
  6787  001D14  0E00               	movlw	0
  6788  001D16  6E09               	movwf	(lcd_2x16_write_4b@data+1)^0,c
  6789  001D18  0E02               	movlw	2
  6790  001D1A  6E08               	movwf	lcd_2x16_write_4b@data^0,c
  6791  001D1C  0E00               	movlw	0
  6792  001D1E  6E0A               	movwf	lcd_2x16_write_4b@rs^0,c
  6793  001D20  EC58  F010         	call	_lcd_2x16_write_4b	;wreg free
  6794                           
  6795                           ;../../libraries/lib_lcd/lcd_2x16.c: 45:     lcd_2x16_write(0x20 | config.nb_lines | con
      +                          fig.nb_bits, 0);
  6796  001D24  500F               	movf	(lcd_2x16_init@config+1)^0,w,c
  6797  001D26  100E               	iorwf	lcd_2x16_init@config^0,w,c
  6798  001D28  6E10               	movwf	??_lcd_2x16_init^0,c
  6799  001D2A  6A11               	clrf	(??_lcd_2x16_init+1)^0,c
  6800  001D2C  0E20               	movlw	32
  6801  001D2E  1010               	iorwf	??_lcd_2x16_init^0,w,c
  6802  001D30  6E08               	movwf	lcd_2x16_write@data^0,c
  6803  001D32  5011               	movf	(??_lcd_2x16_init+1)^0,w,c
  6804  001D34  6E09               	movwf	(lcd_2x16_write@data+1)^0,c
  6805  001D36  0E00               	movlw	0
  6806  001D38  6E0A               	movwf	lcd_2x16_write@rs^0,c
  6807  001D3A  EC6A  F00C         	call	_lcd_2x16_write	;wreg free
  6808                           
  6809                           ;../../libraries/lib_lcd/lcd_2x16.c: 48:     lcd_2x16_write(0x14, 0);
  6810  001D3E  0E00               	movlw	0
  6811  001D40  6E09               	movwf	(lcd_2x16_write@data+1)^0,c
  6812  001D42  0E14               	movlw	20
  6813  001D44  6E08               	movwf	lcd_2x16_write@data^0,c
  6814  001D46  0E00               	movlw	0
  6815  001D48  6E0A               	movwf	lcd_2x16_write@rs^0,c
  6816  001D4A  EC6A  F00C         	call	_lcd_2x16_write	;wreg free
  6817                           
  6818                           ;../../libraries/lib_lcd/lcd_2x16.c: 51:     lcd_2x16_write(0x0C, 0);
  6819  001D4E  0E00               	movlw	0
  6820  001D50  6E09               	movwf	(lcd_2x16_write@data+1)^0,c
  6821  001D52  0E0C               	movlw	12
  6822  001D54  6E08               	movwf	lcd_2x16_write@data^0,c
  6823  001D56  0E00               	movlw	0
  6824  001D58  6E0A               	movwf	lcd_2x16_write@rs^0,c
  6825  001D5A  EC6A  F00C         	call	_lcd_2x16_write	;wreg free
  6826                           
  6827                           ;../../libraries/lib_lcd/lcd_2x16.c: 54:     lcd_2x16_write(0x06, 0);
  6828  001D5E  0E00               	movlw	0
  6829  001D60  6E09               	movwf	(lcd_2x16_write@data+1)^0,c
  6830  001D62  0E06               	movlw	6
  6831  001D64  6E08               	movwf	lcd_2x16_write@data^0,c
  6832  001D66  0E00               	movlw	0
  6833  001D68  6E0A               	movwf	lcd_2x16_write@rs^0,c
  6834  001D6A  EC6A  F00C         	call	_lcd_2x16_write	;wreg free
  6835                           
  6836                           ;../../libraries/lib_lcd/lcd_2x16.c: 56:     delay_ms(1);
  6837  001D6E  0E00               	movlw	0
  6838  001D70  6E03               	movwf	(delay_ms@loop+1)^0,c
  6839  001D72  0E01               	movlw	1
  6840  001D74  6E02               	movwf	delay_ms@loop^0,c
  6841  001D76  ECF4  F011         	call	_delay_ms	;wreg free
  6842                           
  6843                           ;../../libraries/lib_lcd/lcd_2x16.c: 59:     lcd_2x16_write(0x01, 0);
  6844  001D7A  0E00               	movlw	0
  6845  001D7C  6E09               	movwf	(lcd_2x16_write@data+1)^0,c
  6846  001D7E  0E01               	movlw	1
  6847  001D80  6E08               	movwf	lcd_2x16_write@data^0,c
  6848  001D82  0E00               	movlw	0
  6849  001D84  6E0A               	movwf	lcd_2x16_write@rs^0,c
  6850  001D86  EC6A  F00C         	call	_lcd_2x16_write	;wreg free
  6851                           
  6852                           ;../../libraries/lib_lcd/lcd_2x16.c: 62:     lcd_2x16_write(0x80, 0);
  6853  001D8A  0E00               	movlw	0
  6854  001D8C  6E09               	movwf	(lcd_2x16_write@data+1)^0,c
  6855  001D8E  0E80               	movlw	128
  6856  001D90  6E08               	movwf	lcd_2x16_write@data^0,c
  6857  001D92  0E00               	movlw	0
  6858  001D94  6E0A               	movwf	lcd_2x16_write@rs^0,c
  6859  001D96  EC6A  F00C         	call	_lcd_2x16_write	;wreg free
  6860                           
  6861                           ;../../libraries/lib_lcd/lcd_2x16.c: 64:     delay_ms(1);
  6862  001D9A  0E00               	movlw	0
  6863  001D9C  6E03               	movwf	(delay_ms@loop+1)^0,c
  6864  001D9E  0E01               	movlw	1
  6865  001DA0  6E02               	movwf	delay_ms@loop^0,c
  6866  001DA2  ECF4  F011         	call	_delay_ms	;wreg free
  6867  001DA6                     
  6868                           ;../../libraries/lib_lcd/lcd_2x16.c: 103:     return SUCCESS;
  6869  001DA6  0E00               	movlw	0
  6870  001DA8  0012               	return		;funcret
  6871  001DAA  FFFF               	dw	65535	; errata NOP
  6872  001DAC                     __end_of_lcd_2x16_init:
  6873                           	opt callstack 0
  6874                           
  6875 ;; *************** function _lcd_2x16_write_4b *****************
  6876 ;; Defined at:
  6877 ;;		line 110 in file "../../libraries/lib_lcd/lcd_2x16.c"
  6878 ;; Parameters:    Size  Location     Type
  6879 ;;  data            2    7[COMRAM] unsigned short 
  6880 ;;  rs              1    9[COMRAM] unsigned char 
  6881 ;; Auto vars:     Size  Location     Type
  6882 ;;		None
  6883 ;; Return value:  Size  Location     Type
  6884 ;;                  1    wreg      enum E39
  6885 ;; Registers used:
  6886 ;;		wreg, status,2, status,0, cstack
  6887 ;; Tracked objects:
  6888 ;;		On entry : 0/0
  6889 ;;		On exit  : 0/0
  6890 ;;		Unchanged: 0/0
  6891 ;; Data sizes:     COMRAM   BANK0   BANK1   BANK2   BANK3   BANK4   BANK5
  6892 ;;      Params:         3       0       0       0       0       0       0
  6893 ;;      Locals:         0       0       0       0       0       0       0
  6894 ;;      Temps:          2       0       0       0       0       0       0
  6895 ;;      Totals:         5       0       0       0       0       0       0
  6896 ;;Total ram usage:        5 bytes
  6897 ;; Hardware stack levels used:    1
  6898 ;; Hardware stack levels required when called:    2
  6899 ;; This function calls:
  6900 ;;		_delay_us
  6901 ;; This function is called by:
  6902 ;;		_lcd_2x16_init
  6903 ;; This function uses a non-reentrant model
  6904 ;;
  6905                           
  6906                           	psect	text29
  6907  0020B0                     __ptext29:
  6908                           	opt callstack 0
  6909  0020B0                     _lcd_2x16_write_4b:
  6910                           	opt callstack 0
  6911  0020B0  FFFF               	dw	65535	; assembler added errata NOP
  6912  0020B2                     
  6913                           ;../../libraries/lib_lcd/lcd_2x16.c: 110: result_t lcd_2x16_write_4b(u16 data, u8 rs);..
      +                          /../libraries/lib_lcd/lcd_2x16.c: 111: {;../../libraries/lib_lcd/lcd_2x16.c: 112:     LA
      +                          TBbits.LATB5 = rs;
  6914  0020B2  B00A               	btfsc	lcd_2x16_write_4b@rs^0,0,c
  6915  0020B4  D002               	bra	u7175
  6916  0020B6  9A8A               	bcf	138,5,c	;volatile
  6917  0020B8  D001               	bra	u7176
  6918  0020BA                     u7175:
  6919  0020BA  8A8A               	bsf	138,5,c	;volatile
  6920  0020BC                     u7176:
  6921  0020BC                     
  6922                           ;../../libraries/lib_lcd/lcd_2x16.c: 113:     LATBbits.LATB3 = (data >> 3) & 0x01;
  6923  0020BC  C008  F00B         	movff	lcd_2x16_write_4b@data,??_lcd_2x16_write_4b
  6924  0020C0  C009  F00C         	movff	lcd_2x16_write_4b@data+1,??_lcd_2x16_write_4b+1
  6925  0020C4  90D8               	bcf	status,0,c
  6926  0020C6  320C               	rrcf	(??_lcd_2x16_write_4b+1)^0,f,c
  6927  0020C8  320B               	rrcf	??_lcd_2x16_write_4b^0,f,c
  6928  0020CA  90D8               	bcf	status,0,c
  6929  0020CC  320C               	rrcf	(??_lcd_2x16_write_4b+1)^0,f,c
  6930  0020CE  320B               	rrcf	??_lcd_2x16_write_4b^0,f,c
  6931  0020D0  90D8               	bcf	status,0,c
  6932  0020D2  320C               	rrcf	(??_lcd_2x16_write_4b+1)^0,f,c
  6933  0020D4  320B               	rrcf	??_lcd_2x16_write_4b^0,f,c
  6934  0020D6  0E01               	movlw	1
  6935  0020D8  160B               	andwf	??_lcd_2x16_write_4b^0,f,c
  6936  0020DA  460B               	rlncf	??_lcd_2x16_write_4b^0,f,c
  6937  0020DC  460B               	rlncf	??_lcd_2x16_write_4b^0,f,c
  6938  0020DE  460B               	rlncf	??_lcd_2x16_write_4b^0,f,c
  6939  0020E0  508A               	movf	138,w,c	;volatile
  6940  0020E2  180B               	xorwf	??_lcd_2x16_write_4b^0,w,c
  6941  0020E4  0BF7               	andlw	-9
  6942  0020E6  180B               	xorwf	??_lcd_2x16_write_4b^0,w,c
  6943  0020E8  6E8A               	movwf	138,c	;volatile
  6944                           
  6945                           ;../../libraries/lib_lcd/lcd_2x16.c: 114:     LATBbits.LATB2 = (data >> 2) & 0x01;
  6946  0020EA  C008  F00B         	movff	lcd_2x16_write_4b@data,??_lcd_2x16_write_4b
  6947  0020EE  C009  F00C         	movff	lcd_2x16_write_4b@data+1,??_lcd_2x16_write_4b+1
  6948  0020F2  90D8               	bcf	status,0,c
  6949  0020F4  320C               	rrcf	(??_lcd_2x16_write_4b+1)^0,f,c
  6950  0020F6  320B               	rrcf	??_lcd_2x16_write_4b^0,f,c
  6951  0020F8  90D8               	bcf	status,0,c
  6952  0020FA  320C               	rrcf	(??_lcd_2x16_write_4b+1)^0,f,c
  6953  0020FC  320B               	rrcf	??_lcd_2x16_write_4b^0,f,c
  6954  0020FE  0E01               	movlw	1
  6955  002100  160B               	andwf	??_lcd_2x16_write_4b^0,f,c
  6956  002102  460B               	rlncf	??_lcd_2x16_write_4b^0,f,c
  6957  002104  460B               	rlncf	??_lcd_2x16_write_4b^0,f,c
  6958  002106  508A               	movf	138,w,c	;volatile
  6959  002108  180B               	xorwf	??_lcd_2x16_write_4b^0,w,c
  6960  00210A  0BFB               	andlw	-5
  6961  00210C  180B               	xorwf	??_lcd_2x16_write_4b^0,w,c
  6962  00210E  6E8A               	movwf	138,c	;volatile
  6963                           
  6964                           ;../../libraries/lib_lcd/lcd_2x16.c: 115:     LATBbits.LATB1 = (data >> 1) & 0x01;
  6965  002110  90D8               	bcf	status,0,c
  6966  002112  3009               	rrcf	(lcd_2x16_write_4b@data+1)^0,w,c
  6967  002114  6E0C               	movwf	(??_lcd_2x16_write_4b+1)^0,c
  6968  002116  3008               	rrcf	lcd_2x16_write_4b@data^0,w,c
  6969  002118  6E0B               	movwf	??_lcd_2x16_write_4b^0,c
  6970  00211A  0E01               	movlw	1
  6971  00211C  160B               	andwf	??_lcd_2x16_write_4b^0,f,c
  6972  00211E  460B               	rlncf	??_lcd_2x16_write_4b^0,f,c
  6973  002120  508A               	movf	138,w,c	;volatile
  6974  002122  180B               	xorwf	??_lcd_2x16_write_4b^0,w,c
  6975  002124  0BFD               	andlw	-3
  6976  002126  180B               	xorwf	??_lcd_2x16_write_4b^0,w,c
  6977  002128  6E8A               	movwf	138,c	;volatile
  6978                           
  6979                           ;../../libraries/lib_lcd/lcd_2x16.c: 116:     LATBbits.LATB0 = (data >> 0) & 0x01;
  6980  00212A  C008  F00B         	movff	lcd_2x16_write_4b@data,??_lcd_2x16_write_4b
  6981  00212E  0E01               	movlw	1
  6982  002130  160B               	andwf	??_lcd_2x16_write_4b^0,f,c
  6983  002132  508A               	movf	138,w,c	;volatile
  6984  002134  180B               	xorwf	??_lcd_2x16_write_4b^0,w,c
  6985  002136  0BFE               	andlw	-2
  6986  002138  180B               	xorwf	??_lcd_2x16_write_4b^0,w,c
  6987  00213A  6E8A               	movwf	138,c	;volatile
  6988  00213C                     
  6989                           ;../../libraries/lib_lcd/lcd_2x16.c: 117:     LATBbits.LATB4 = 1; delay_us (1); LATBbits
      +                          .LATB4 = 0;;
  6990  00213C  888A               	bsf	138,4,c	;volatile
  6991  00213E  0E00               	movlw	0
  6992  002140  6E03               	movwf	(delay_us@loop+1)^0,c
  6993  002142  0E01               	movlw	1
  6994  002144  6E02               	movwf	delay_us@loop^0,c
  6995  002146  EC0D  F014         	call	_delay_us	;wreg free
  6996  00214A  988A               	bcf	138,4,c	;volatile
  6997  00214C  0012               	return		;funcret
  6998  00214E  FFFF               	dw	65535	; errata NOP
  6999  002150                     __end_of_lcd_2x16_write_4b:
  7000                           	opt callstack 0
  7001                           
  7002 ;; *************** function _lcd_2x16_write *****************
  7003 ;; Defined at:
  7004 ;;		line 122 in file "../../libraries/lib_lcd/lcd_2x16.c"
  7005 ;; Parameters:    Size  Location     Type
  7006 ;;  data            2    7[COMRAM] unsigned short 
  7007 ;;  rs              1    9[COMRAM] unsigned char 
  7008 ;; Auto vars:     Size  Location     Type
  7009 ;;		None
  7010 ;; Return value:  Size  Location     Type
  7011 ;;                  1    wreg      enum E39
  7012 ;; Registers used:
  7013 ;;		wreg, status,2, status,0, cstack
  7014 ;; Tracked objects:
  7015 ;;		On entry : 0/0
  7016 ;;		On exit  : 0/0
  7017 ;;		Unchanged: 0/0
  7018 ;; Data sizes:     COMRAM   BANK0   BANK1   BANK2   BANK3   BANK4   BANK5
  7019 ;;      Params:         3       0       0       0       0       0       0
  7020 ;;      Locals:         0       0       0       0       0       0       0
  7021 ;;      Temps:          3       0       0       0       0       0       0
  7022 ;;      Totals:         6       0       0       0       0       0       0
  7023 ;;Total ram usage:        6 bytes
  7024 ;; Hardware stack levels used:    1
  7025 ;; Hardware stack levels required when called:    2
  7026 ;; This function calls:
  7027 ;;		_delay_us
  7028 ;; This function is called by:
  7029 ;;		_lcd_2x16_init
  7030 ;;		_lcd_2x16_position
  7031 ;;		_lcd_2x16_write_string
  7032 ;;		_lcd_2x16_write_2bcd
  7033 ;;		_lcd_write_temperature
  7034 ;;		_lcd_2x16_clear
  7035 ;;		_lcd_2x16_write_2hex
  7036 ;;		_lcd_2x16_write_binary
  7037 ;;		_lcd_2x16_write_s8
  7038 ;;		_lcd_2x16_write_s16
  7039 ;;		_lcd_2x16_write_s32
  7040 ;;		_lcd_2x16_write_float
  7041 ;;		_lcd_2x16_write_double
  7042 ;;		_lcd_2x16_write_u8
  7043 ;;		_lcd_2x16_write_u16
  7044 ;;		_lcd_2x16_write_u32
  7045 ;; This function uses a non-reentrant model
  7046 ;;
  7047                           
  7048                           	psect	text30
  7049  0018D4                     __ptext30:
  7050                           	opt callstack 0
  7051  0018D4                     _lcd_2x16_write:
  7052                           	opt callstack 0
  7053  0018D4  FFFF               	dw	65535	; assembler added errata NOP
  7054  0018D6                     
  7055                           ;../../libraries/lib_lcd/lcd_2x16.c: 122: result_t lcd_2x16_write (u16 data, u8 rs);../.
      +                          ./libraries/lib_lcd/lcd_2x16.c: 123: {;../../libraries/lib_lcd/lcd_2x16.c: 126:     LATB
      +                          bits.LATB5 = rs;
  7056  0018D6  B00A               	btfsc	lcd_2x16_write@rs^0,0,c
  7057  0018D8  D002               	bra	u7025
  7058  0018DA  9A8A               	bcf	138,5,c	;volatile
  7059  0018DC  D001               	bra	u7026
  7060  0018DE                     u7025:
  7061  0018DE  8A8A               	bsf	138,5,c	;volatile
  7062  0018E0                     u7026:
  7063  0018E0                     
  7064                           ;../../libraries/lib_lcd/lcd_2x16.c: 128:     LATBbits.LATB3 = (data >> 7) & 0x01;
  7065  0018E0  C008  F00B         	movff	lcd_2x16_write@data,??_lcd_2x16_write
  7066  0018E4  C009  F00C         	movff	lcd_2x16_write@data+1,??_lcd_2x16_write+1
  7067  0018E8  0E07               	movlw	7
  7068  0018EA  6E0D               	movwf	(??_lcd_2x16_write+2)^0,c
  7069  0018EC                     u7035:
  7070  0018EC  FFFF               	dw	65535	; assembler added errata NOP
  7071  0018EE  90D8               	bcf	status,0,c
  7072  0018F0  320C               	rrcf	(??_lcd_2x16_write+1)^0,f,c
  7073  0018F2  320B               	rrcf	??_lcd_2x16_write^0,f,c
  7074  0018F4  2E0D               	decfsz	(??_lcd_2x16_write+2)^0,f,c
  7075  0018F6  EF76  F00C         	goto	u7035
  7076  0018FA  0E01               	movlw	1
  7077  0018FC  160B               	andwf	??_lcd_2x16_write^0,f,c
  7078  0018FE  460B               	rlncf	??_lcd_2x16_write^0,f,c
  7079  001900  460B               	rlncf	??_lcd_2x16_write^0,f,c
  7080  001902  460B               	rlncf	??_lcd_2x16_write^0,f,c
  7081  001904  508A               	movf	138,w,c	;volatile
  7082  001906  180B               	xorwf	??_lcd_2x16_write^0,w,c
  7083  001908  0BF7               	andlw	-9
  7084  00190A  180B               	xorwf	??_lcd_2x16_write^0,w,c
  7085  00190C  6E8A               	movwf	138,c	;volatile
  7086                           
  7087                           ;../../libraries/lib_lcd/lcd_2x16.c: 129:     LATBbits.LATB2 = (data >> 6) & 0x01;
  7088  00190E  C008  F00B         	movff	lcd_2x16_write@data,??_lcd_2x16_write
  7089  001912  C009  F00C         	movff	lcd_2x16_write@data+1,??_lcd_2x16_write+1
  7090  001916  0E06               	movlw	6
  7091  001918  6E0D               	movwf	(??_lcd_2x16_write+2)^0,c
  7092  00191A                     u7045:
  7093  00191A  FFFF               	dw	65535	; assembler added errata NOP
  7094  00191C  90D8               	bcf	status,0,c
  7095  00191E  320C               	rrcf	(??_lcd_2x16_write+1)^0,f,c
  7096  001920  320B               	rrcf	??_lcd_2x16_write^0,f,c
  7097  001922  2E0D               	decfsz	(??_lcd_2x16_write+2)^0,f,c
  7098  001924  EF8D  F00C         	goto	u7045
  7099  001928  0E01               	movlw	1
  7100  00192A  160B               	andwf	??_lcd_2x16_write^0,f,c
  7101  00192C  460B               	rlncf	??_lcd_2x16_write^0,f,c
  7102  00192E  460B               	rlncf	??_lcd_2x16_write^0,f,c
  7103  001930  508A               	movf	138,w,c	;volatile
  7104  001932  180B               	xorwf	??_lcd_2x16_write^0,w,c
  7105  001934  0BFB               	andlw	-5
  7106  001936  180B               	xorwf	??_lcd_2x16_write^0,w,c
  7107  001938  6E8A               	movwf	138,c	;volatile
  7108                           
  7109                           ;../../libraries/lib_lcd/lcd_2x16.c: 130:     LATBbits.LATB1 = (data >> 5) & 0x01;
  7110  00193A  C008  F00B         	movff	lcd_2x16_write@data,??_lcd_2x16_write
  7111  00193E  C009  F00C         	movff	lcd_2x16_write@data+1,??_lcd_2x16_write+1
  7112  001942  0E05               	movlw	5
  7113  001944  6E0D               	movwf	(??_lcd_2x16_write+2)^0,c
  7114  001946                     u7055:
  7115  001946  FFFF               	dw	65535	; assembler added errata NOP
  7116  001948  90D8               	bcf	status,0,c
  7117  00194A  320C               	rrcf	(??_lcd_2x16_write+1)^0,f,c
  7118  00194C  320B               	rrcf	??_lcd_2x16_write^0,f,c
  7119  00194E  2E0D               	decfsz	(??_lcd_2x16_write+2)^0,f,c
  7120  001950  EFA3  F00C         	goto	u7055
  7121  001954  0E01               	movlw	1
  7122  001956  160B               	andwf	??_lcd_2x16_write^0,f,c
  7123  001958  460B               	rlncf	??_lcd_2x16_write^0,f,c
  7124  00195A  508A               	movf	138,w,c	;volatile
  7125  00195C  180B               	xorwf	??_lcd_2x16_write^0,w,c
  7126  00195E  0BFD               	andlw	-3
  7127  001960  180B               	xorwf	??_lcd_2x16_write^0,w,c
  7128  001962  6E8A               	movwf	138,c	;volatile
  7129                           
  7130                           ;../../libraries/lib_lcd/lcd_2x16.c: 131:     LATBbits.LATB0 = (data >> 4) & 0x01;
  7131  001964  C008  F00B         	movff	lcd_2x16_write@data,??_lcd_2x16_write
  7132  001968  C009  F00C         	movff	lcd_2x16_write@data+1,??_lcd_2x16_write+1
  7133  00196C  0E04               	movlw	4
  7134  00196E  6E0D               	movwf	(??_lcd_2x16_write+2)^0,c
  7135  001970                     u7065:
  7136  001970  FFFF               	dw	65535	; assembler added errata NOP
  7137  001972  90D8               	bcf	status,0,c
  7138  001974  320C               	rrcf	(??_lcd_2x16_write+1)^0,f,c
  7139  001976  320B               	rrcf	??_lcd_2x16_write^0,f,c
  7140  001978  2E0D               	decfsz	(??_lcd_2x16_write+2)^0,f,c
  7141  00197A  EFB8  F00C         	goto	u7065
  7142  00197E  0E01               	movlw	1
  7143  001980  160B               	andwf	??_lcd_2x16_write^0,f,c
  7144  001982  508A               	movf	138,w,c	;volatile
  7145  001984  180B               	xorwf	??_lcd_2x16_write^0,w,c
  7146  001986  0BFE               	andlw	-2
  7147  001988  180B               	xorwf	??_lcd_2x16_write^0,w,c
  7148  00198A  6E8A               	movwf	138,c	;volatile
  7149  00198C                     
  7150                           ;../../libraries/lib_lcd/lcd_2x16.c: 132:     LATBbits.LATB4 = 1; delay_us (1); LATBbits
      +                          .LATB4 = 0;;
  7151  00198C  888A               	bsf	138,4,c	;volatile
  7152  00198E  0E00               	movlw	0
  7153  001990  6E03               	movwf	(delay_us@loop+1)^0,c
  7154  001992  0E01               	movlw	1
  7155  001994  6E02               	movwf	delay_us@loop^0,c
  7156  001996  EC0D  F014         	call	_delay_us	;wreg free
  7157  00199A  988A               	bcf	138,4,c	;volatile
  7158  00199C                     
  7159                           ;../../libraries/lib_lcd/lcd_2x16.c: 134:     LATBbits.LATB3 = (data >> 3) & 0x01;
  7160  00199C  C008  F00B         	movff	lcd_2x16_write@data,??_lcd_2x16_write
  7161  0019A0  C009  F00C         	movff	lcd_2x16_write@data+1,??_lcd_2x16_write+1
  7162  0019A4  90D8               	bcf	status,0,c
  7163  0019A6  320C               	rrcf	(??_lcd_2x16_write+1)^0,f,c
  7164  0019A8  320B               	rrcf	??_lcd_2x16_write^0,f,c
  7165  0019AA  90D8               	bcf	status,0,c
  7166  0019AC  320C               	rrcf	(??_lcd_2x16_write+1)^0,f,c
  7167  0019AE  320B               	rrcf	??_lcd_2x16_write^0,f,c
  7168  0019B0  90D8               	bcf	status,0,c
  7169  0019B2  320C               	rrcf	(??_lcd_2x16_write+1)^0,f,c
  7170  0019B4  320B               	rrcf	??_lcd_2x16_write^0,f,c
  7171  0019B6  0E01               	movlw	1
  7172  0019B8  160B               	andwf	??_lcd_2x16_write^0,f,c
  7173  0019BA  460B               	rlncf	??_lcd_2x16_write^0,f,c
  7174  0019BC  460B               	rlncf	??_lcd_2x16_write^0,f,c
  7175  0019BE  460B               	rlncf	??_lcd_2x16_write^0,f,c
  7176  0019C0  508A               	movf	138,w,c	;volatile
  7177  0019C2  180B               	xorwf	??_lcd_2x16_write^0,w,c
  7178  0019C4  0BF7               	andlw	-9
  7179  0019C6  180B               	xorwf	??_lcd_2x16_write^0,w,c
  7180  0019C8  6E8A               	movwf	138,c	;volatile
  7181  0019CA                     
  7182                           ;../../libraries/lib_lcd/lcd_2x16.c: 135:     LATBbits.LATB2 = (data >> 2) & 0x01;
  7183  0019CA  C008  F00B         	movff	lcd_2x16_write@data,??_lcd_2x16_write
  7184  0019CE  C009  F00C         	movff	lcd_2x16_write@data+1,??_lcd_2x16_write+1
  7185  0019D2  90D8               	bcf	status,0,c
  7186  0019D4  320C               	rrcf	(??_lcd_2x16_write+1)^0,f,c
  7187  0019D6  320B               	rrcf	??_lcd_2x16_write^0,f,c
  7188  0019D8  90D8               	bcf	status,0,c
  7189  0019DA  320C               	rrcf	(??_lcd_2x16_write+1)^0,f,c
  7190  0019DC  320B               	rrcf	??_lcd_2x16_write^0,f,c
  7191  0019DE  0E01               	movlw	1
  7192  0019E0  160B               	andwf	??_lcd_2x16_write^0,f,c
  7193  0019E2  460B               	rlncf	??_lcd_2x16_write^0,f,c
  7194  0019E4  460B               	rlncf	??_lcd_2x16_write^0,f,c
  7195  0019E6  508A               	movf	138,w,c	;volatile
  7196  0019E8  180B               	xorwf	??_lcd_2x16_write^0,w,c
  7197  0019EA  0BFB               	andlw	-5
  7198  0019EC  180B               	xorwf	??_lcd_2x16_write^0,w,c
  7199  0019EE  6E8A               	movwf	138,c	;volatile
  7200  0019F0                     
  7201                           ;../../libraries/lib_lcd/lcd_2x16.c: 136:     LATBbits.LATB1 = (data >> 1) & 0x01;
  7202  0019F0  90D8               	bcf	status,0,c
  7203  0019F2  3009               	rrcf	(lcd_2x16_write@data+1)^0,w,c
  7204  0019F4  6E0C               	movwf	(??_lcd_2x16_write+1)^0,c
  7205  0019F6  3008               	rrcf	lcd_2x16_write@data^0,w,c
  7206  0019F8  6E0B               	movwf	??_lcd_2x16_write^0,c
  7207  0019FA  0E01               	movlw	1
  7208  0019FC  160B               	andwf	??_lcd_2x16_write^0,f,c
  7209  0019FE  460B               	rlncf	??_lcd_2x16_write^0,f,c
  7210  001A00  508A               	movf	138,w,c	;volatile
  7211  001A02  180B               	xorwf	??_lcd_2x16_write^0,w,c
  7212  001A04  0BFD               	andlw	-3
  7213  001A06  180B               	xorwf	??_lcd_2x16_write^0,w,c
  7214  001A08  6E8A               	movwf	138,c	;volatile
  7215  001A0A                     
  7216                           ;../../libraries/lib_lcd/lcd_2x16.c: 137:     LATBbits.LATB0 = (data >> 0) & 0x01;
  7217  001A0A  C008  F00B         	movff	lcd_2x16_write@data,??_lcd_2x16_write
  7218  001A0E  0E01               	movlw	1
  7219  001A10  160B               	andwf	??_lcd_2x16_write^0,f,c
  7220  001A12  508A               	movf	138,w,c	;volatile
  7221  001A14  180B               	xorwf	??_lcd_2x16_write^0,w,c
  7222  001A16  0BFE               	andlw	-2
  7223  001A18  180B               	xorwf	??_lcd_2x16_write^0,w,c
  7224  001A1A  6E8A               	movwf	138,c	;volatile
  7225  001A1C                     
  7226                           ;../../libraries/lib_lcd/lcd_2x16.c: 138:     LATBbits.LATB4 = 1; delay_us (1); LATBbits
      +                          .LATB4 = 0;;
  7227  001A1C  888A               	bsf	138,4,c	;volatile
  7228  001A1E  0E00               	movlw	0
  7229  001A20  6E03               	movwf	(delay_us@loop+1)^0,c
  7230  001A22  0E01               	movlw	1
  7231  001A24  6E02               	movwf	delay_us@loop^0,c
  7232  001A26  EC0D  F014         	call	_delay_us	;wreg free
  7233  001A2A  988A               	bcf	138,4,c	;volatile
  7234  001A2C                     
  7235                           ;../../libraries/lib_lcd/lcd_2x16.c: 139:     delay_us (50);
  7236  001A2C  0E00               	movlw	0
  7237  001A2E  6E03               	movwf	(delay_us@loop+1)^0,c
  7238  001A30  0E32               	movlw	50
  7239  001A32  6E02               	movwf	delay_us@loop^0,c
  7240  001A34  EC0D  F014         	call	_delay_us	;wreg free
  7241  001A38                     
  7242                           ;../../libraries/lib_lcd/lcd_2x16.c: 163:     return SUCCESS;
  7243  001A38  0E00               	movlw	0
  7244  001A3A  0012               	return		;funcret
  7245  001A3C  FFFF               	dw	65535	; errata NOP
  7246  001A3E                     __end_of_lcd_2x16_write:
  7247                           	opt callstack 0
  7248                           
  7249 ;; *************** function _delay_us *****************
  7250 ;; Defined at:
  7251 ;;		line 27 in file "../../libraries/lib_misc/delays.c"
  7252 ;; Parameters:    Size  Location     Type
  7253 ;;  loop            2    1[COMRAM] unsigned short 
  7254 ;; Auto vars:     Size  Location     Type
  7255 ;;  k               2    0        unsigned short 
  7256 ;;  i               2    3[COMRAM] unsigned short 
  7257 ;; Return value:  Size  Location     Type
  7258 ;;                  1    wreg      void 
  7259 ;; Registers used:
  7260 ;;		wreg, status,2, status,0
  7261 ;; Tracked objects:
  7262 ;;		On entry : 0/0
  7263 ;;		On exit  : 0/0
  7264 ;;		Unchanged: 0/0
  7265 ;; Data sizes:     COMRAM   BANK0   BANK1   BANK2   BANK3   BANK4   BANK5
  7266 ;;      Params:         2       0       0       0       0       0       0
  7267 ;;      Locals:         4       0       0       0       0       0       0
  7268 ;;      Temps:          0       0       0       0       0       0       0
  7269 ;;      Totals:         6       0       0       0       0       0       0
  7270 ;;Total ram usage:        6 bytes
  7271 ;; Hardware stack levels used:    1
  7272 ;; Hardware stack levels required when called:    1
  7273 ;; This function calls:
  7274 ;;		Nothing
  7275 ;; This function is called by:
  7276 ;;		_lcd_2x16_write_4b
  7277 ;;		_lcd_2x16_write
  7278 ;;		_i2c_idle
  7279 ;; This function uses a non-reentrant model
  7280 ;;
  7281                           
  7282                           	psect	text31
  7283  00281A                     __ptext31:
  7284                           	opt callstack 0
  7285  00281A                     _delay_us:
  7286                           	opt callstack 0
  7287  00281A  FFFF               	dw	65535	; assembler added errata NOP
  7288  00281C                     
  7289                           ;../../libraries/lib_misc/delays.c: 27: void delay_us (u16 loop);../../libraries/lib_mis
      +                          c/delays.c: 28: {;../../libraries/lib_misc/delays.c: 29:     u16 i, k;;../../libraries/l
      +                          ib_misc/delays.c: 30:     for (i=loop; i!=0; i--)
  7290  00281C  C002  F004         	movff	delay_us@loop,delay_us@i
  7291  002820  C003  F005         	movff	delay_us@loop+1,delay_us@i+1
  7292  002824                     l6766:
  7293  002824  FFFF               	dw	65535	; assembler added errata NOP
  7294  002826  5004               	movf	delay_us@i^0,w,c
  7295  002828  1005               	iorwf	(delay_us@i+1)^0,w,c
  7296  00282A  A4D8               	btfss	status,2,c
  7297  00282C  EF1A  F014         	goto	u6891
  7298  002830  EF1D  F014         	goto	u6890
  7299  002834                     u6891:
  7300  002834  FFFF               	dw	65535	; assembler added errata NOP
  7301  002836  EF20  F014         	goto	l6770
  7302  00283A                     u6890:
  7303  00283A  FFFF               	dw	65535	; assembler added errata NOP
  7304  00283C  EF26  F014         	goto	l281
  7305  002840                     l6770:
  7306  002840  FFFF               	dw	65535	; assembler added errata NOP
  7307  002842  0604               	decf	delay_us@i^0,f,c
  7308  002844  A0D8               	btfss	status,0,c
  7309  002846  0605               	decf	(delay_us@i+1)^0,f,c
  7310  002848  EF12  F014         	goto	l6766
  7311  00284C                     l281:
  7312  00284C  FFFF               	dw	65535	; assembler added errata NOP
  7313  00284E  0012               	return		;funcret
  7314  002850  FFFF               	dw	65535	; errata NOP
  7315  002852                     __end_of_delay_us:
  7316                           	opt callstack 0
  7317                           
  7318 ;; *************** function _i2c_init *****************
  7319 ;; Defined at:
  7320 ;;		line 14 in file "../../libraries/lib_pic/i2c.c"
  7321 ;; Parameters:    Size  Location     Type
  7322 ;;  bus_id          1    wreg     enum E1909
  7323 ;;  freq            4   14[COMRAM] unsigned long 
  7324 ;;  opt             2   18[COMRAM] unsigned short 
  7325 ;; Auto vars:     Size  Location     Type
  7326 ;;  bus_id          1   24[COMRAM] enum E1909
  7327 ;;  I2C_BRG         4   20[COMRAM] unsigned long 
  7328 ;; Return value:  Size  Location     Type
  7329 ;;                  1    wreg      enum E1898
  7330 ;; Registers used:
  7331 ;;		wreg, status,2, status,0, cstack
  7332 ;; Tracked objects:
  7333 ;;		On entry : 0/0
  7334 ;;		On exit  : 0/0
  7335 ;;		Unchanged: 0/0
  7336 ;; Data sizes:     COMRAM   BANK0   BANK1   BANK2   BANK3   BANK4   BANK5
  7337 ;;      Params:         6       0       0       0       0       0       0
  7338 ;;      Locals:         5       0       0       0       0       0       0
  7339 ;;      Temps:          0       0       0       0       0       0       0
  7340 ;;      Totals:        11       0       0       0       0       0       0
  7341 ;;Total ram usage:       11 bytes
  7342 ;; Hardware stack levels used:    1
  7343 ;; Hardware stack levels required when called:    2
  7344 ;; This function calls:
  7345 ;;		___lldiv
  7346 ;;		_delay_ms
  7347 ;; This function is called by:
  7348 ;;		_main
  7349 ;; This function uses a non-reentrant model
  7350 ;;
  7351                           
  7352                           	psect	text32
  7353  002370                     __ptext32:
  7354                           	opt callstack 0
  7355  002370                     _i2c_init:
  7356                           	opt callstack 0
  7357  002370  FFFF               	dw	65535	; assembler added errata NOP
  7358                           
  7359                           ;incstack = 0
  7360                           ;i2c_init@bus_id stored from wreg
  7361  002372  6E19               	movwf	i2c_init@bus_id^0,c
  7362  002374                     
  7363                           ;../../libraries/lib_pic/i2c.c: 14: result_t i2c_init(I2C_BUS bus_id, u32 freq, u16 opt)
      +                          ;../../libraries/lib_pic/i2c.c: 15: {;../../libraries/lib_pic/i2c.c: 18:         if (bus
      +                          _id == I2C_BUS_1){
  7364  002374  5019               	movf	i2c_init@bus_id^0,w,c
  7365  002376  A4D8               	btfss	status,2,c
  7366  002378  EFC0  F011         	goto	u8321
  7367  00237C  EFC3  F011         	goto	u8320
  7368  002380                     u8321:
  7369  002380  FFFF               	dw	65535	; assembler added errata NOP
  7370  002382  EFEA  F011         	goto	l7690
  7371  002386                     u8320:
  7372  002386  FFFF               	dw	65535	; assembler added errata NOP
  7373  002388                     
  7374                           ;../../libraries/lib_pic/i2c.c: 19:             u32 I2C_BRG = (10000000L / freq) - 1;
  7375  002388  0E80               	movlw	128
  7376  00238A  6E02               	movwf	___lldiv@dividend^0,c
  7377  00238C  0E96               	movlw	150
  7378  00238E  6E03               	movwf	(___lldiv@dividend+1)^0,c
  7379  002390  0E98               	movlw	152
  7380  002392  6E04               	movwf	(___lldiv@dividend+2)^0,c
  7381  002394  0E00               	movlw	0
  7382  002396  6E05               	movwf	(___lldiv@dividend+3)^0,c
  7383  002398  C00F  F006         	movff	i2c_init@freq,___lldiv@divisor
  7384  00239C  C010  F007         	movff	i2c_init@freq+1,___lldiv@divisor+1
  7385  0023A0  C011  F008         	movff	i2c_init@freq+2,___lldiv@divisor+2
  7386  0023A4  C012  F009         	movff	i2c_init@freq+3,___lldiv@divisor+3
  7387  0023A8  EC9F  F00F         	call	___lldiv	;wreg free
  7388  0023AC  0EFF               	movlw	255
  7389  0023AE  2402               	addwf	?___lldiv^0,w,c
  7390  0023B0  6E15               	movwf	i2c_init@I2C_BRG^0,c
  7391  0023B2  0EFF               	movlw	255
  7392  0023B4  2003               	addwfc	(?___lldiv+1)^0,w,c
  7393  0023B6  6E16               	movwf	(i2c_init@I2C_BRG+1)^0,c
  7394  0023B8  0EFF               	movlw	255
  7395  0023BA  2004               	addwfc	(?___lldiv+2)^0,w,c
  7396  0023BC  6E17               	movwf	(i2c_init@I2C_BRG+2)^0,c
  7397  0023BE  0EFF               	movlw	255
  7398  0023C0  2005               	addwfc	(?___lldiv+3)^0,w,c
  7399  0023C2  6E18               	movwf	(i2c_init@I2C_BRG+3)^0,c
  7400  0023C4                     
  7401                           ;../../libraries/lib_pic/i2c.c: 22:             SSPCON1bits.SSPM = 8;
  7402  0023C4  50C6               	movf	198,w,c	;volatile
  7403  0023C6  0BF0               	andlw	-16
  7404  0023C8  0908               	iorlw	8
  7405  0023CA  6EC6               	movwf	198,c	;volatile
  7406  0023CC                     
  7407                           ;../../libraries/lib_pic/i2c.c: 25:             SSPCON1bits.SSPEN = 1;
  7408  0023CC  8AC6               	bsf	198,5,c	;volatile
  7409  0023CE                     
  7410                           ;../../libraries/lib_pic/i2c.c: 28:             SSPADD = I2C_BRG;
  7411  0023CE  C015  FFC8         	movff	i2c_init@I2C_BRG,4040	;volatile
  7412  0023D2                     
  7413                           ;../../libraries/lib_pic/i2c.c: 31:             SSPSTATbits.SMP = 1;
  7414  0023D2  8EC7               	bsf	199,7,c	;volatile
  7415  0023D4                     l7690:
  7416  0023D4  FFFF               	dw	65535	; assembler added errata NOP
  7417                           
  7418                           ;../../libraries/lib_pic/i2c.c: 129:     delay_ms(10);
  7419  0023D6  0E00               	movlw	0
  7420  0023D8  6E03               	movwf	(delay_ms@loop+1)^0,c
  7421  0023DA  0E0A               	movlw	10
  7422  0023DC  6E02               	movwf	delay_ms@loop^0,c
  7423  0023DE  ECF4  F011         	call	_delay_ms	;wreg free
  7424  0023E2                     
  7425                           ;../../libraries/lib_pic/i2c.c: 131:     return SUCCESS;
  7426  0023E2  0E00               	movlw	0
  7427  0023E4  0012               	return		;funcret
  7428  0023E6  FFFF               	dw	65535	; errata NOP
  7429  0023E8                     __end_of_i2c_init:
  7430                           	opt callstack 0
  7431                           
  7432 ;; *************** function _delay_ms *****************
  7433 ;; Defined at:
  7434 ;;		line 39 in file "../../libraries/lib_misc/delays.c"
  7435 ;; Parameters:    Size  Location     Type
  7436 ;;  loop            2    1[COMRAM] unsigned short 
  7437 ;; Auto vars:     Size  Location     Type
  7438 ;;  k               2    5[COMRAM] unsigned short 
  7439 ;;  i               2    3[COMRAM] unsigned short 
  7440 ;; Return value:  Size  Location     Type
  7441 ;;                  1    wreg      void 
  7442 ;; Registers used:
  7443 ;;		wreg, status,2, status,0
  7444 ;; Tracked objects:
  7445 ;;		On entry : 0/0
  7446 ;;		On exit  : 0/0
  7447 ;;		Unchanged: 0/0
  7448 ;; Data sizes:     COMRAM   BANK0   BANK1   BANK2   BANK3   BANK4   BANK5
  7449 ;;      Params:         2       0       0       0       0       0       0
  7450 ;;      Locals:         4       0       0       0       0       0       0
  7451 ;;      Temps:          0       0       0       0       0       0       0
  7452 ;;      Totals:         6       0       0       0       0       0       0
  7453 ;;Total ram usage:        6 bytes
  7454 ;; Hardware stack levels used:    1
  7455 ;; Hardware stack levels required when called:    1
  7456 ;; This function calls:
  7457 ;;		Nothing
  7458 ;; This function is called by:
  7459 ;;		_i2c_init
  7460 ;;		_main
  7461 ;;		_uart_init
  7462 ;;		_lcd_2x16_init
  7463 ;;		_ds1621_read_temp
  7464 ;; This function uses a non-reentrant model
  7465 ;;
  7466                           
  7467                           	psect	text33
  7468  0023E8                     __ptext33:
  7469                           	opt callstack 0
  7470  0023E8                     _delay_ms:
  7471                           	opt callstack 0
  7472  0023E8  FFFF               	dw	65535	; assembler added errata NOP
  7473  0023EA                     
  7474                           ;../../libraries/lib_misc/delays.c: 39: void delay_ms (u16 loop);../../libraries/lib_mis
      +                          c/delays.c: 40: {;../../libraries/lib_misc/delays.c: 47:     u16 i, k;;../../libraries/l
      +                          ib_misc/delays.c: 48:     for (i=loop; i!=0; i--)
  7475  0023EA  C002  F004         	movff	delay_ms@loop,delay_ms@i
  7476  0023EE  C003  F005         	movff	delay_ms@loop+1,delay_ms@i+1
  7477  0023F2                     l6954:
  7478  0023F2  FFFF               	dw	65535	; assembler added errata NOP
  7479  0023F4  5004               	movf	delay_ms@i^0,w,c
  7480  0023F6  1005               	iorwf	(delay_ms@i+1)^0,w,c
  7481  0023F8  A4D8               	btfss	status,2,c
  7482  0023FA  EF01  F012         	goto	u7131
  7483  0023FE  EF04  F012         	goto	u7130
  7484  002402                     u7131:
  7485  002402  FFFF               	dw	65535	; assembler added errata NOP
  7486  002404  EF07  F012         	goto	l6958
  7487  002408                     u7130:
  7488  002408  FFFF               	dw	65535	; assembler added errata NOP
  7489  00240A  EF20  F012         	goto	l288
  7490  00240E                     l6958:
  7491  00240E  FFFF               	dw	65535	; assembler added errata NOP
  7492                           
  7493                           ;../../libraries/lib_misc/delays.c: 49:         for (k=10000000L/80300; k!=0; k--);
  7494  002410  0E00               	movlw	0
  7495  002412  6E07               	movwf	(delay_ms@k+1)^0,c
  7496  002414  0E7C               	movlw	124
  7497  002416  6E06               	movwf	delay_ms@k^0,c
  7498  002418                     l6964:
  7499  002418  FFFF               	dw	65535	; assembler added errata NOP
  7500  00241A  0606               	decf	delay_ms@k^0,f,c
  7501  00241C  A0D8               	btfss	status,0,c
  7502  00241E  0607               	decf	(delay_ms@k+1)^0,f,c
  7503  002420  5006               	movf	delay_ms@k^0,w,c
  7504  002422  1007               	iorwf	(delay_ms@k+1)^0,w,c
  7505  002424  A4D8               	btfss	status,2,c
  7506  002426  EF17  F012         	goto	u7141
  7507  00242A  EF1A  F012         	goto	u7140
  7508  00242E                     u7141:
  7509  00242E  FFFF               	dw	65535	; assembler added errata NOP
  7510  002430  EF0C  F012         	goto	l6964
  7511  002434                     u7140:
  7512  002434  FFFF               	dw	65535	; assembler added errata NOP
  7513  002436  0604               	decf	delay_ms@i^0,f,c
  7514  002438  A0D8               	btfss	status,0,c
  7515  00243A  0605               	decf	(delay_ms@i+1)^0,f,c
  7516  00243C  EFF9  F011         	goto	l6954
  7517  002440                     l288:
  7518  002440  FFFF               	dw	65535	; assembler added errata NOP
  7519  002442  0012               	return		;funcret
  7520  002444  FFFF               	dw	65535	; errata NOP
  7521  002446                     __end_of_delay_ms:
  7522                           	opt callstack 0
  7523                           
  7524 ;; *************** function ___lldiv *****************
  7525 ;; Defined at:
  7526 ;;		line 7 in file "C:\Programs\Microchip\xc8\v2.10\pic\sources\c99\common\__lldiv.c"
  7527 ;; Parameters:    Size  Location     Type
  7528 ;;  dividend        4    1[COMRAM] unsigned long 
  7529 ;;  divisor         4    5[COMRAM] unsigned long 
  7530 ;; Auto vars:     Size  Location     Type
  7531 ;;  quotient        4    9[COMRAM] unsigned long 
  7532 ;;  counter         1   13[COMRAM] unsigned char 
  7533 ;; Return value:  Size  Location     Type
  7534 ;;                  4    1[COMRAM] unsigned long 
  7535 ;; Registers used:
  7536 ;;		wreg, status,2, status,0
  7537 ;; Tracked objects:
  7538 ;;		On entry : 0/0
  7539 ;;		On exit  : 0/0
  7540 ;;		Unchanged: 0/0
  7541 ;; Data sizes:     COMRAM   BANK0   BANK1   BANK2   BANK3   BANK4   BANK5
  7542 ;;      Params:         8       0       0       0       0       0       0
  7543 ;;      Locals:         5       0       0       0       0       0       0
  7544 ;;      Temps:          0       0       0       0       0       0       0
  7545 ;;      Totals:        13       0       0       0       0       0       0
  7546 ;;Total ram usage:       13 bytes
  7547 ;; Hardware stack levels used:    1
  7548 ;; Hardware stack levels required when called:    1
  7549 ;; This function calls:
  7550 ;;		Nothing
  7551 ;; This function is called by:
  7552 ;;		_i2c_init
  7553 ;; This function uses a non-reentrant model
  7554 ;;
  7555                           
  7556                           	psect	text34
  7557  001F3E                     __ptext34:
  7558                           	opt callstack 0
  7559  001F3E                     ___lldiv:
  7560                           	opt callstack 0
  7561  001F3E  FFFF               	dw	65535	; assembler added errata NOP
  7562  001F40  0E00               	movlw	0
  7563  001F42  6E0A               	movwf	___lldiv@quotient^0,c
  7564  001F44  0E00               	movlw	0
  7565  001F46  6E0B               	movwf	(___lldiv@quotient+1)^0,c
  7566  001F48  0E00               	movlw	0
  7567  001F4A  6E0C               	movwf	(___lldiv@quotient+2)^0,c
  7568  001F4C  0E00               	movlw	0
  7569  001F4E  6E0D               	movwf	(___lldiv@quotient+3)^0,c
  7570  001F50  5006               	movf	___lldiv@divisor^0,w,c
  7571  001F52  1007               	iorwf	(___lldiv@divisor+1)^0,w,c
  7572  001F54  1008               	iorwf	(___lldiv@divisor+2)^0,w,c
  7573  001F56  1009               	iorwf	(___lldiv@divisor+3)^0,w,c
  7574  001F58  B4D8               	btfsc	status,2,c
  7575  001F5A  EFB1  F00F         	goto	u7191
  7576  001F5E  EFB4  F00F         	goto	u7190
  7577  001F62                     u7191:
  7578  001F62  FFFF               	dw	65535	; assembler added errata NOP
  7579  001F64  EFF3  F00F         	goto	l1108
  7580  001F68                     u7190:
  7581  001F68  FFFF               	dw	65535	; assembler added errata NOP
  7582  001F6A  0E01               	movlw	1
  7583  001F6C  6E0E               	movwf	___lldiv@counter^0,c
  7584  001F6E  EFC0  F00F         	goto	l7040
  7585  001F72                     l7038:
  7586  001F72  FFFF               	dw	65535	; assembler added errata NOP
  7587  001F74  90D8               	bcf	status,0,c
  7588  001F76  3606               	rlcf	___lldiv@divisor^0,f,c
  7589  001F78  3607               	rlcf	(___lldiv@divisor+1)^0,f,c
  7590  001F7A  3608               	rlcf	(___lldiv@divisor+2)^0,f,c
  7591  001F7C  3609               	rlcf	(___lldiv@divisor+3)^0,f,c
  7592  001F7E  2A0E               	incf	___lldiv@counter^0,f,c
  7593  001F80                     l7040:
  7594  001F80  FFFF               	dw	65535	; assembler added errata NOP
  7595  001F82  AE09               	btfss	(___lldiv@divisor+3)^0,7,c
  7596  001F84  EFC6  F00F         	goto	u7201
  7597  001F88  EFC9  F00F         	goto	u7200
  7598  001F8C                     u7201:
  7599  001F8C  FFFF               	dw	65535	; assembler added errata NOP
  7600  001F8E  EFB9  F00F         	goto	l7038
  7601  001F92                     u7200:
  7602  001F92  FFFF               	dw	65535	; assembler added errata NOP
  7603  001F94                     l7042:
  7604  001F94  FFFF               	dw	65535	; assembler added errata NOP
  7605  001F96  90D8               	bcf	status,0,c
  7606  001F98  360A               	rlcf	___lldiv@quotient^0,f,c
  7607  001F9A  360B               	rlcf	(___lldiv@quotient+1)^0,f,c
  7608  001F9C  360C               	rlcf	(___lldiv@quotient+2)^0,f,c
  7609  001F9E  360D               	rlcf	(___lldiv@quotient+3)^0,f,c
  7610  001FA0  5006               	movf	___lldiv@divisor^0,w,c
  7611  001FA2  5C02               	subwf	___lldiv@dividend^0,w,c
  7612  001FA4  5007               	movf	(___lldiv@divisor+1)^0,w,c
  7613  001FA6  5803               	subwfb	(___lldiv@dividend+1)^0,w,c
  7614  001FA8  5008               	movf	(___lldiv@divisor+2)^0,w,c
  7615  001FAA  5804               	subwfb	(___lldiv@dividend+2)^0,w,c
  7616  001FAC  5009               	movf	(___lldiv@divisor+3)^0,w,c
  7617  001FAE  5805               	subwfb	(___lldiv@dividend+3)^0,w,c
  7618  001FB0  A0D8               	btfss	status,0,c
  7619  001FB2  EFDD  F00F         	goto	u7211
  7620  001FB6  EFE0  F00F         	goto	u7210
  7621  001FBA                     u7211:
  7622  001FBA  FFFF               	dw	65535	; assembler added errata NOP
  7623  001FBC  EFEA  F00F         	goto	l7050
  7624  001FC0                     u7210:
  7625  001FC0  FFFF               	dw	65535	; assembler added errata NOP
  7626  001FC2  5006               	movf	___lldiv@divisor^0,w,c
  7627  001FC4  5E02               	subwf	___lldiv@dividend^0,f,c
  7628  001FC6  5007               	movf	(___lldiv@divisor+1)^0,w,c
  7629  001FC8  5A03               	subwfb	(___lldiv@dividend+1)^0,f,c
  7630  001FCA  5008               	movf	(___lldiv@divisor+2)^0,w,c
  7631  001FCC  5A04               	subwfb	(___lldiv@dividend+2)^0,f,c
  7632  001FCE  5009               	movf	(___lldiv@divisor+3)^0,w,c
  7633  001FD0  5A05               	subwfb	(___lldiv@dividend+3)^0,f,c
  7634  001FD2  800A               	bsf	___lldiv@quotient^0,0,c
  7635  001FD4                     l7050:
  7636  001FD4  FFFF               	dw	65535	; assembler added errata NOP
  7637  001FD6  90D8               	bcf	status,0,c
  7638  001FD8  3209               	rrcf	(___lldiv@divisor+3)^0,f,c
  7639  001FDA  3208               	rrcf	(___lldiv@divisor+2)^0,f,c
  7640  001FDC  3207               	rrcf	(___lldiv@divisor+1)^0,f,c
  7641  001FDE  3206               	rrcf	___lldiv@divisor^0,f,c
  7642  001FE0  2E0E               	decfsz	___lldiv@counter^0,f,c
  7643  001FE2  EFCA  F00F         	goto	l7042
  7644  001FE6                     l1108:
  7645  001FE6  FFFF               	dw	65535	; assembler added errata NOP
  7646  001FE8  C00A  F002         	movff	___lldiv@quotient,?___lldiv
  7647  001FEC  C00B  F003         	movff	___lldiv@quotient+1,?___lldiv+1
  7648  001FF0  C00C  F004         	movff	___lldiv@quotient+2,?___lldiv+2
  7649  001FF4  C00D  F005         	movff	___lldiv@quotient+3,?___lldiv+3
  7650  001FF8  0012               	return		;funcret
  7651  001FFA  FFFF               	dw	65535	; errata NOP
  7652  001FFC                     __end_of___lldiv:
  7653                           	opt callstack 0
  7654                           
  7655 ;; *************** function _datetime_increase_seconds *****************
  7656 ;; Defined at:
  7657 ;;		line 18 in file "../../libraries/lib_misc/date_time.c"
  7658 ;; Parameters:    Size  Location     Type
  7659 ;;  t               2   10[COMRAM] PTR struct .
  7660 ;;		 -> main@t(7), 
  7661 ;; Auto vars:     Size  Location     Type
  7662 ;;		None
  7663 ;; Return value:  Size  Location     Type
  7664 ;;                  1    wreg      void 
  7665 ;; Registers used:
  7666 ;;		wreg, fsr2l, fsr2h, status,2, status,0, cstack
  7667 ;; Tracked objects:
  7668 ;;		On entry : 0/0
  7669 ;;		On exit  : 0/0
  7670 ;;		Unchanged: 0/0
  7671 ;; Data sizes:     COMRAM   BANK0   BANK1   BANK2   BANK3   BANK4   BANK5
  7672 ;;      Params:         2       0       0       0       0       0       0
  7673 ;;      Locals:         0       0       0       0       0       0       0
  7674 ;;      Temps:          1       0       0       0       0       0       0
  7675 ;;      Totals:         3       0       0       0       0       0       0
  7676 ;;Total ram usage:        3 bytes
  7677 ;; Hardware stack levels used:    1
  7678 ;; Hardware stack levels required when called:    4
  7679 ;; This function calls:
  7680 ;;		_datetime_increase_minutes
  7681 ;; This function is called by:
  7682 ;;		_main
  7683 ;; This function uses a non-reentrant model
  7684 ;;
  7685                           
  7686                           	psect	text35
  7687  0024F8                     __ptext35:
  7688                           	opt callstack 0
  7689  0024F8                     _datetime_increase_seconds:
  7690                           	opt callstack 0
  7691  0024F8  FFFF               	dw	65535	; assembler added errata NOP
  7692  0024FA                     
  7693                           ;../../libraries/lib_misc/date_time.c: 18: void datetime_increase_seconds(date_time_t *t
      +                          );../../libraries/lib_misc/date_time.c: 19: {;../../libraries/lib_misc/date_time.c: 20: 
      +                              if (t->sec >= 59)
  7694  0024FA  EE20 F002          	lfsr	2,2
  7695  0024FE  500B               	movf	datetime_increase_seconds@t^0,w,c
  7696  002500  26D9               	addwf	fsr2l,f,c
  7697  002502  500C               	movf	(datetime_increase_seconds@t+1)^0,w,c
  7698  002504  22DA               	addwfc	fsr2h,f,c
  7699  002506  0E3A               	movlw	58
  7700  002508  64DF               	cpfsgt	indf2,c
  7701  00250A  EF89  F012         	goto	u8311
  7702  00250E  EF8C  F012         	goto	u8310
  7703  002512                     u8311:
  7704  002512  FFFF               	dw	65535	; assembler added errata NOP
  7705  002514  EF9D  F012         	goto	l7676
  7706  002518                     u8310:
  7707  002518  FFFF               	dw	65535	; assembler added errata NOP
  7708  00251A                     
  7709                           ;../../libraries/lib_misc/date_time.c: 21:     {;../../libraries/lib_misc/date_time.c: 2
      +                          2:         t->sec = 0;
  7710  00251A  EE20 F002          	lfsr	2,2
  7711  00251E  500B               	movf	datetime_increase_seconds@t^0,w,c
  7712  002520  26D9               	addwf	fsr2l,f,c
  7713  002522  500C               	movf	(datetime_increase_seconds@t+1)^0,w,c
  7714  002524  22DA               	addwfc	fsr2h,f,c
  7715  002526  0E00               	movlw	0
  7716  002528  6EDF               	movwf	indf2,c
  7717  00252A                     
  7718                           ;../../libraries/lib_misc/date_time.c: 23:         datetime_increase_minutes(t);
  7719  00252A  C00B  F008         	movff	datetime_increase_seconds@t,datetime_increase_minutes@t
  7720  00252E  C00C  F009         	movff	datetime_increase_seconds@t+1,datetime_increase_minutes@t+1
  7721  002532  ECA8  F012         	call	_datetime_increase_minutes	;wreg free
  7722                           
  7723                           ;../../libraries/lib_misc/date_time.c: 24:     }
  7724  002536  EFA5  F012         	goto	l244
  7725  00253A                     l7676:
  7726  00253A  FFFF               	dw	65535	; assembler added errata NOP
  7727                           
  7728                           ;../../libraries/lib_misc/date_time.c: 26:     {;../../libraries/lib_misc/date_time.c: 2
      +                          7:         t->sec++;
  7729  00253C  EE20 F002          	lfsr	2,2
  7730  002540  500B               	movf	datetime_increase_seconds@t^0,w,c
  7731  002542  26D9               	addwf	fsr2l,f,c
  7732  002544  500C               	movf	(datetime_increase_seconds@t+1)^0,w,c
  7733  002546  22DA               	addwfc	fsr2h,f,c
  7734  002548  2ADF               	incf	indf2,f,c
  7735  00254A                     l244:
  7736  00254A  FFFF               	dw	65535	; assembler added errata NOP
  7737  00254C  0012               	return		;funcret
  7738  00254E  FFFF               	dw	65535	; errata NOP
  7739  002550                     __end_of_datetime_increase_seconds:
  7740                           	opt callstack 0
  7741                           
  7742 ;; *************** function _datetime_increase_minutes *****************
  7743 ;; Defined at:
  7744 ;;		line 44 in file "../../libraries/lib_misc/date_time.c"
  7745 ;; Parameters:    Size  Location     Type
  7746 ;;  t               2    7[COMRAM] PTR struct .
  7747 ;;		 -> main@t(7), 
  7748 ;; Auto vars:     Size  Location     Type
  7749 ;;		None
  7750 ;; Return value:  Size  Location     Type
  7751 ;;                  1    wreg      void 
  7752 ;; Registers used:
  7753 ;;		wreg, fsr2l, fsr2h, status,2, status,0, cstack
  7754 ;; Tracked objects:
  7755 ;;		On entry : 0/0
  7756 ;;		On exit  : 0/0
  7757 ;;		Unchanged: 0/0
  7758 ;; Data sizes:     COMRAM   BANK0   BANK1   BANK2   BANK3   BANK4   BANK5
  7759 ;;      Params:         2       0       0       0       0       0       0
  7760 ;;      Locals:         0       0       0       0       0       0       0
  7761 ;;      Temps:          1       0       0       0       0       0       0
  7762 ;;      Totals:         3       0       0       0       0       0       0
  7763 ;;Total ram usage:        3 bytes
  7764 ;; Hardware stack levels used:    1
  7765 ;; Hardware stack levels required when called:    3
  7766 ;; This function calls:
  7767 ;;		_datetime_increase_hours
  7768 ;; This function is called by:
  7769 ;;		_datetime_increase_seconds
  7770 ;;		_main
  7771 ;; This function uses a non-reentrant model
  7772 ;;
  7773                           
  7774                           	psect	text36
  7775  002550                     __ptext36:
  7776                           	opt callstack 0
  7777  002550                     _datetime_increase_minutes:
  7778                           	opt callstack 0
  7779  002550  FFFF               	dw	65535	; assembler added errata NOP
  7780  002552                     
  7781                           ;../../libraries/lib_misc/date_time.c: 44: void datetime_increase_minutes(date_time_t *t
      +                          );../../libraries/lib_misc/date_time.c: 45: {;../../libraries/lib_misc/date_time.c: 46: 
      +                              if (t->min >= 59)
  7782  002552  EE20 F001          	lfsr	2,1
  7783  002556  5008               	movf	datetime_increase_minutes@t^0,w,c
  7784  002558  26D9               	addwf	fsr2l,f,c
  7785  00255A  5009               	movf	(datetime_increase_minutes@t+1)^0,w,c
  7786  00255C  22DA               	addwfc	fsr2h,f,c
  7787  00255E  0E3A               	movlw	58
  7788  002560  64DF               	cpfsgt	indf2,c
  7789  002562  EFB5  F012         	goto	u7121
  7790  002566  EFB8  F012         	goto	u7120
  7791  00256A                     u7121:
  7792  00256A  FFFF               	dw	65535	; assembler added errata NOP
  7793  00256C  EFC9  F012         	goto	l6950
  7794  002570                     u7120:
  7795  002570  FFFF               	dw	65535	; assembler added errata NOP
  7796  002572                     
  7797                           ;../../libraries/lib_misc/date_time.c: 47:     {;../../libraries/lib_misc/date_time.c: 4
      +                          8:         t->min = 0;
  7798  002572  EE20 F001          	lfsr	2,1
  7799  002576  5008               	movf	datetime_increase_minutes@t^0,w,c
  7800  002578  26D9               	addwf	fsr2l,f,c
  7801  00257A  5009               	movf	(datetime_increase_minutes@t+1)^0,w,c
  7802  00257C  22DA               	addwfc	fsr2h,f,c
  7803  00257E  0E00               	movlw	0
  7804  002580  6EDF               	movwf	indf2,c
  7805  002582                     
  7806                           ;../../libraries/lib_misc/date_time.c: 49:         datetime_increase_hours(t);
  7807  002582  C008  F005         	movff	datetime_increase_minutes@t,datetime_increase_hours@t
  7808  002586  C009  F006         	movff	datetime_increase_minutes@t+1,datetime_increase_hours@t+1
  7809  00258A  EC23  F013         	call	_datetime_increase_hours	;wreg free
  7810                           
  7811                           ;../../libraries/lib_misc/date_time.c: 50:     }
  7812  00258E  EFD1  F012         	goto	l254
  7813  002592                     l6950:
  7814  002592  FFFF               	dw	65535	; assembler added errata NOP
  7815                           
  7816                           ;../../libraries/lib_misc/date_time.c: 52:     {;../../libraries/lib_misc/date_time.c: 5
      +                          3:         t->min++;
  7817  002594  EE20 F001          	lfsr	2,1
  7818  002598  5008               	movf	datetime_increase_minutes@t^0,w,c
  7819  00259A  26D9               	addwf	fsr2l,f,c
  7820  00259C  5009               	movf	(datetime_increase_minutes@t+1)^0,w,c
  7821  00259E  22DA               	addwfc	fsr2h,f,c
  7822  0025A0  2ADF               	incf	indf2,f,c
  7823  0025A2                     l254:
  7824  0025A2  FFFF               	dw	65535	; assembler added errata NOP
  7825  0025A4  0012               	return		;funcret
  7826  0025A6  FFFF               	dw	65535	; errata NOP
  7827  0025A8                     __end_of_datetime_increase_minutes:
  7828                           	opt callstack 0
  7829                           
  7830 ;; *************** function _datetime_increase_hours *****************
  7831 ;; Defined at:
  7832 ;;		line 70 in file "../../libraries/lib_misc/date_time.c"
  7833 ;; Parameters:    Size  Location     Type
  7834 ;;  t               2    4[COMRAM] PTR struct .
  7835 ;;		 -> main@t(7), 
  7836 ;; Auto vars:     Size  Location     Type
  7837 ;;		None
  7838 ;; Return value:  Size  Location     Type
  7839 ;;                  1    wreg      void 
  7840 ;; Registers used:
  7841 ;;		wreg, fsr2l, fsr2h, status,2, status,0, cstack
  7842 ;; Tracked objects:
  7843 ;;		On entry : 0/0
  7844 ;;		On exit  : 0/0
  7845 ;;		Unchanged: 0/0
  7846 ;; Data sizes:     COMRAM   BANK0   BANK1   BANK2   BANK3   BANK4   BANK5
  7847 ;;      Params:         2       0       0       0       0       0       0
  7848 ;;      Locals:         0       0       0       0       0       0       0
  7849 ;;      Temps:          1       0       0       0       0       0       0
  7850 ;;      Totals:         3       0       0       0       0       0       0
  7851 ;;Total ram usage:        3 bytes
  7852 ;; Hardware stack levels used:    1
  7853 ;; Hardware stack levels required when called:    2
  7854 ;; This function calls:
  7855 ;;		_datetime_increase_days
  7856 ;; This function is called by:
  7857 ;;		_datetime_increase_minutes
  7858 ;; This function uses a non-reentrant model
  7859 ;;
  7860                           
  7861                           	psect	text37
  7862  002646                     __ptext37:
  7863                           	opt callstack 0
  7864  002646                     _datetime_increase_hours:
  7865                           	opt callstack 0
  7866  002646  FFFF               	dw	65535	; assembler added errata NOP
  7867  002648                     
  7868                           ;../../libraries/lib_misc/date_time.c: 70: void datetime_increase_hours(date_time_t *t);
      +                          ../../libraries/lib_misc/date_time.c: 71: {;../../libraries/lib_misc/date_time.c: 72:   
      +                            if (t->hrs >= 23)
  7869  002648  C005  FFD9         	movff	datetime_increase_hours@t,fsr2l
  7870  00264C  C006  FFDA         	movff	datetime_increase_hours@t+1,fsr2h
  7871  002650  0E16               	movlw	22
  7872  002652  64DF               	cpfsgt	indf2,c
  7873  002654  EF2E  F013         	goto	u6971
  7874  002658  EF31  F013         	goto	u6970
  7875  00265C                     u6971:
  7876  00265C  FFFF               	dw	65535	; assembler added errata NOP
  7877  00265E  EF40  F013         	goto	l6850
  7878  002662                     u6970:
  7879  002662  FFFF               	dw	65535	; assembler added errata NOP
  7880  002664                     
  7881                           ;../../libraries/lib_misc/date_time.c: 73:     {;../../libraries/lib_misc/date_time.c: 7
      +                          4:         t->hrs = 0;
  7882  002664  C005  FFD9         	movff	datetime_increase_hours@t,fsr2l
  7883  002668  C006  FFDA         	movff	datetime_increase_hours@t+1,fsr2h
  7884  00266C  0E00               	movlw	0
  7885  00266E  6EDF               	movwf	indf2,c
  7886  002670                     
  7887                           ;../../libraries/lib_misc/date_time.c: 75:         datetime_increase_days(t);
  7888  002670  C005  F002         	movff	datetime_increase_hours@t,datetime_increase_days@t
  7889  002674  C006  F003         	movff	datetime_increase_hours@t+1,datetime_increase_days@t+1
  7890  002678  EC49  F013         	call	_datetime_increase_days	;wreg free
  7891                           
  7892                           ;../../libraries/lib_misc/date_time.c: 76:     }
  7893  00267C  EF46  F013         	goto	l264
  7894  002680                     l6850:
  7895  002680  FFFF               	dw	65535	; assembler added errata NOP
  7896                           
  7897                           ;../../libraries/lib_misc/date_time.c: 78:     {;../../libraries/lib_misc/date_time.c: 7
      +                          9:         t->hrs++;
  7898  002682  C005  FFD9         	movff	datetime_increase_hours@t,fsr2l
  7899  002686  C006  FFDA         	movff	datetime_increase_hours@t+1,fsr2h
  7900  00268A  2ADF               	incf	indf2,f,c
  7901  00268C                     l264:
  7902  00268C  FFFF               	dw	65535	; assembler added errata NOP
  7903  00268E  0012               	return		;funcret
  7904  002690  FFFF               	dw	65535	; errata NOP
  7905  002692                     __end_of_datetime_increase_hours:
  7906                           	opt callstack 0
  7907                           
  7908 ;; *************** function _datetime_increase_days *****************
  7909 ;; Defined at:
  7910 ;;		line 95 in file "../../libraries/lib_misc/date_time.c"
  7911 ;; Parameters:    Size  Location     Type
  7912 ;;  t               2    1[COMRAM] PTR struct .
  7913 ;;		 -> main@t(7), 
  7914 ;; Auto vars:     Size  Location     Type
  7915 ;;		None
  7916 ;; Return value:  Size  Location     Type
  7917 ;;                  1    wreg      void 
  7918 ;; Registers used:
  7919 ;;		wreg, fsr2l, fsr2h, status,2, status,0
  7920 ;; Tracked objects:
  7921 ;;		On entry : 0/0
  7922 ;;		On exit  : 0/0
  7923 ;;		Unchanged: 0/0
  7924 ;; Data sizes:     COMRAM   BANK0   BANK1   BANK2   BANK3   BANK4   BANK5
  7925 ;;      Params:         2       0       0       0       0       0       0
  7926 ;;      Locals:         0       0       0       0       0       0       0
  7927 ;;      Temps:          1       0       0       0       0       0       0
  7928 ;;      Totals:         3       0       0       0       0       0       0
  7929 ;;Total ram usage:        3 bytes
  7930 ;; Hardware stack levels used:    1
  7931 ;; Hardware stack levels required when called:    1
  7932 ;; This function calls:
  7933 ;;		Nothing
  7934 ;; This function is called by:
  7935 ;;		_datetime_increase_hours
  7936 ;; This function uses a non-reentrant model
  7937 ;;
  7938                           
  7939                           	psect	text38
  7940  002692                     __ptext38:
  7941                           	opt callstack 0
  7942  002692                     _datetime_increase_days:
  7943                           	opt callstack 0
  7944  002692  FFFF               	dw	65535	; assembler added errata NOP
  7945  002694                     
  7946                           ;../../libraries/lib_misc/date_time.c: 95: void datetime_increase_days(date_time_t *t);.
      +                          ./../libraries/lib_misc/date_time.c: 96: {;../../libraries/lib_misc/date_time.c: 97:    
      +                           if (t->day >= 23)
  7947  002694  EE20 F004          	lfsr	2,4
  7948  002698  5002               	movf	datetime_increase_days@t^0,w,c
  7949  00269A  26D9               	addwf	fsr2l,f,c
  7950  00269C  5003               	movf	(datetime_increase_days@t+1)^0,w,c
  7951  00269E  22DA               	addwfc	fsr2h,f,c
  7952  0026A0  0E16               	movlw	22
  7953  0026A2  64DF               	cpfsgt	indf2,c
  7954  0026A4  EF56  F013         	goto	u6881
  7955  0026A8  EF59  F013         	goto	u6880
  7956  0026AC                     u6881:
  7957  0026AC  FFFF               	dw	65535	; assembler added errata NOP
  7958  0026AE  EF64  F013         	goto	l6762
  7959  0026B2                     u6880:
  7960  0026B2  FFFF               	dw	65535	; assembler added errata NOP
  7961  0026B4                     
  7962                           ;../../libraries/lib_misc/date_time.c: 98:     {;../../libraries/lib_misc/date_time.c: 9
      +                          9:         t->day = 0;
  7963  0026B4  EE20 F004          	lfsr	2,4
  7964  0026B8  5002               	movf	datetime_increase_days@t^0,w,c
  7965  0026BA  26D9               	addwf	fsr2l,f,c
  7966  0026BC  5003               	movf	(datetime_increase_days@t+1)^0,w,c
  7967  0026BE  22DA               	addwfc	fsr2h,f,c
  7968  0026C0  0E00               	movlw	0
  7969  0026C2  6EDF               	movwf	indf2,c
  7970                           
  7971                           ;../../libraries/lib_misc/date_time.c: 100:     }
  7972  0026C4  EF6C  F013         	goto	l274
  7973  0026C8                     l6762:
  7974  0026C8  FFFF               	dw	65535	; assembler added errata NOP
  7975                           
  7976                           ;../../libraries/lib_misc/date_time.c: 102:     {;../../libraries/lib_misc/date_time.c: 
      +                          103:         t->day++;
  7977  0026CA  EE20 F004          	lfsr	2,4
  7978  0026CE  5002               	movf	datetime_increase_days@t^0,w,c
  7979  0026D0  26D9               	addwf	fsr2l,f,c
  7980  0026D2  5003               	movf	(datetime_increase_days@t+1)^0,w,c
  7981  0026D4  22DA               	addwfc	fsr2h,f,c
  7982  0026D6  2ADF               	incf	indf2,f,c
  7983  0026D8                     l274:
  7984  0026D8  FFFF               	dw	65535	; assembler added errata NOP
  7985  0026DA  0012               	return		;funcret
  7986  0026DC  FFFF               	dw	65535	; errata NOP
  7987  0026DE                     __end_of_datetime_increase_days:
  7988                           	opt callstack 0
  7989                           
  7990 ;; *************** function _timer2_irq *****************
  7991 ;; Defined at:
  7992 ;;		line 62 in file "main.c"
  7993 ;; Parameters:    Size  Location     Type
  7994 ;;		None
  7995 ;; Auto vars:     Size  Location     Type
  7996 ;;		None
  7997 ;; Return value:  Size  Location     Type
  7998 ;;                  1    wreg      void 
  7999 ;; Registers used:
  8000 ;;		wreg, status,2, status,0
  8001 ;; Tracked objects:
  8002 ;;		On entry : 0/0
  8003 ;;		On exit  : 0/0
  8004 ;;		Unchanged: 0/0
  8005 ;; Data sizes:     COMRAM   BANK0   BANK1   BANK2   BANK3   BANK4   BANK5
  8006 ;;      Params:         0       0       0       0       0       0       0
  8007 ;;      Locals:         0       0       0       0       0       0       0
  8008 ;;      Temps:          1       0       0       0       0       0       0
  8009 ;;      Totals:         1       0       0       0       0       0       0
  8010 ;;Total ram usage:        1 bytes
  8011 ;; Hardware stack levels used:    1
  8012 ;; This function calls:
  8013 ;;		Nothing
  8014 ;; This function is called by:
  8015 ;;		Interrupt level 2
  8016 ;; This function uses a non-reentrant model
  8017 ;;
  8018                           
  8019                           	psect	intcode
  8020  000008                     __pintcode:
  8021                           	opt callstack 0
  8022  000008                     _timer2_irq:
  8023                           	opt callstack 0
  8024  000008  FFFF               	dw	65535	; assembler added errata NOP
  8025                           
  8026                           ;incstack = 0
  8027  00000A  8268               	bsf	int$flags,1,c	;set compiler interrupt flag (level 2)
  8028  00000C                     
  8029                           ;main.c: 64:     static u32 CntTmrLedSec = 0;;main.c: 65:     static u32 CntTmrIncSec = 
      +                          0;;main.c: 67:     T2CONbits.TMR2ON = 0;
  8030  00000C  94CA               	bcf	202,2,c	;volatile
  8031                           
  8032                           ;main.c: 68:     PIR1bits.TMR2IF = 0;
  8033  00000E  929E               	bcf	158,1,c	;volatile
  8034                           
  8035                           ;main.c: 70:     {__nop(); __nop(); __nop(); __nop(); __nop(); __nop(); __nop(); __nop()
      +                          ; __nop(); __nop();}; {__nop(); __nop(); __nop(); __nop(); __nop(); __nop(); __nop(); __
      +                          nop(); __nop(); __nop();}; {__nop(); __nop(); __nop(); __nop(); __nop(); __nop(); __nop(
      +                          ); __nop(); __nop(); __nop();}; {__nop(); __nop(); __nop(); __nop(); __nop(); __nop(); _
      +                          _nop(); __nop(); __nop(); __nop();}; {__nop(); __nop(); __nop(); __nop(); __nop(); __nop
      +                          (); __nop(); __nop(); __nop(); __nop();}; {__nop(); __nop(); __nop(); __nop(); __nop(); 
      +                          __nop(); __nop(); __nop(); __nop(); __nop();}; {__nop(); __nop(); __nop(); __nop(); __no
      +                          p(); __nop(); __nop(); __nop(); __nop(); __nop();}; {__nop(); __nop(); __nop(); __nop();
      +                           __nop(); __nop(); __nop(); __nop(); __nop(); __nop();};
  8036  000010  F000               	nop	
  8037  000012  F000               	nop	
  8038  000014  F000               	nop	
  8039  000016  F000               	nop	
  8040  000018  F000               	nop	
  8041  00001A  F000               	nop	
  8042  00001C  F000               	nop	
  8043  00001E  F000               	nop	
  8044  000020  F000               	nop	
  8045  000022  F000               	nop	
  8046  000024  F000               	nop	
  8047  000026  F000               	nop	
  8048  000028  F000               	nop	
  8049  00002A  F000               	nop	
  8050  00002C  F000               	nop	
  8051  00002E  F000               	nop	
  8052  000030  F000               	nop	
  8053  000032  F000               	nop	
  8054  000034  F000               	nop	
  8055  000036  F000               	nop	
  8056  000038  F000               	nop	
  8057  00003A  F000               	nop	
  8058  00003C  F000               	nop	
  8059  00003E  F000               	nop	
  8060  000040  F000               	nop	
  8061  000042  F000               	nop	
  8062  000044  F000               	nop	
  8063  000046  F000               	nop	
  8064  000048  F000               	nop	
  8065  00004A  F000               	nop	
  8066  00004C  F000               	nop	
  8067  00004E  F000               	nop	
  8068  000050  F000               	nop	
  8069  000052  F000               	nop	
  8070  000054  F000               	nop	
  8071  000056  F000               	nop	
  8072  000058  F000               	nop	
  8073  00005A  F000               	nop	
  8074  00005C  F000               	nop	
  8075  00005E  F000               	nop	
  8076  000060  F000               	nop	
  8077  000062  F000               	nop	
  8078  000064  F000               	nop	
  8079  000066  F000               	nop	
  8080  000068  F000               	nop	
  8081  00006A  F000               	nop	
  8082  00006C  F000               	nop	
  8083  00006E  F000               	nop	
  8084  000070  F000               	nop	
  8085  000072  F000               	nop	
  8086  000074  F000               	nop	
  8087  000076  F000               	nop	
  8088  000078  F000               	nop	
  8089  00007A  F000               	nop	
  8090  00007C  F000               	nop	
  8091  00007E  F000               	nop	
  8092  000080  F000               	nop	
  8093  000082  F000               	nop	
  8094  000084  F000               	nop	
  8095  000086  F000               	nop	
  8096  000088  F000               	nop	
  8097  00008A  F000               	nop	
  8098  00008C  F000               	nop	
  8099  00008E  F000               	nop	
  8100  000090  F000               	nop	
  8101  000092  F000               	nop	
  8102  000094  F000               	nop	
  8103  000096  F000               	nop	
  8104  000098  F000               	nop	
  8105  00009A  F000               	nop	
  8106  00009C  F000               	nop	
  8107  00009E  F000               	nop	
  8108  0000A0  F000               	nop	
  8109  0000A2  F000               	nop	
  8110  0000A4  F000               	nop	
  8111  0000A6  F000               	nop	
  8112  0000A8  F000               	nop	
  8113  0000AA  F000               	nop	
  8114  0000AC  F000               	nop	
  8115  0000AE  F000               	nop	
  8116                           
  8117                           ;main.c: 71:     {__nop(); __nop(); __nop(); __nop(); __nop(); __nop(); __nop(); __nop()
      +                          ; __nop(); __nop();}; {__nop(); __nop(); __nop(); __nop(); __nop(); __nop(); __nop(); __
      +                          nop(); __nop(); __nop();}; {__nop(); __nop(); __nop(); __nop(); __nop(); __nop(); __nop(
      +                          ); __nop(); __nop(); __nop();}; {__nop(); __nop(); __nop(); __nop(); __nop(); __nop(); _
      +                          _nop(); __nop(); __nop(); __nop();}; {__nop(); __nop(); __nop(); __nop(); __nop(); __nop
      +                          (); __nop(); __nop(); __nop(); __nop();}; {__nop(); __nop(); __nop(); __nop(); __nop(); 
      +                          __nop(); __nop(); __nop(); __nop(); __nop();}; {__nop(); __nop(); __nop(); __nop(); __no
      +                          p(); __nop(); __nop(); __nop(); __nop(); __nop();}; {__nop(); __nop(); __nop(); __nop();
      +                           __nop(); __nop(); __nop(); __nop(); __nop(); __nop();};
  8118  0000B0  F000               	nop	
  8119  0000B2  F000               	nop	
  8120  0000B4  F000               	nop	
  8121  0000B6  F000               	nop	
  8122  0000B8  F000               	nop	
  8123  0000BA  F000               	nop	
  8124  0000BC  F000               	nop	
  8125  0000BE  F000               	nop	
  8126  0000C0  F000               	nop	
  8127  0000C2  F000               	nop	
  8128  0000C4  F000               	nop	
  8129  0000C6  F000               	nop	
  8130  0000C8  F000               	nop	
  8131  0000CA  F000               	nop	
  8132  0000CC  F000               	nop	
  8133  0000CE  F000               	nop	
  8134  0000D0  F000               	nop	
  8135  0000D2  F000               	nop	
  8136  0000D4  F000               	nop	
  8137  0000D6  F000               	nop	
  8138  0000D8  F000               	nop	
  8139  0000DA  F000               	nop	
  8140  0000DC  F000               	nop	
  8141  0000DE  F000               	nop	
  8142  0000E0  F000               	nop	
  8143  0000E2  F000               	nop	
  8144  0000E4  F000               	nop	
  8145  0000E6  F000               	nop	
  8146  0000E8  F000               	nop	
  8147  0000EA  F000               	nop	
  8148  0000EC  F000               	nop	
  8149  0000EE  F000               	nop	
  8150  0000F0  F000               	nop	
  8151  0000F2  F000               	nop	
  8152  0000F4  F000               	nop	
  8153  0000F6  F000               	nop	
  8154  0000F8  F000               	nop	
  8155  0000FA  F000               	nop	
  8156  0000FC  F000               	nop	
  8157  0000FE  F000               	nop	
  8158  000100  F000               	nop	
  8159  000102  F000               	nop	
  8160  000104  F000               	nop	
  8161  000106  F000               	nop	
  8162  000108  F000               	nop	
  8163  00010A  F000               	nop	
  8164  00010C  F000               	nop	
  8165  00010E  F000               	nop	
  8166  000110  F000               	nop	
  8167  000112  F000               	nop	
  8168  000114  F000               	nop	
  8169  000116  F000               	nop	
  8170  000118  F000               	nop	
  8171  00011A  F000               	nop	
  8172  00011C  F000               	nop	
  8173  00011E  F000               	nop	
  8174  000120  F000               	nop	
  8175  000122  F000               	nop	
  8176  000124  F000               	nop	
  8177  000126  F000               	nop	
  8178  000128  F000               	nop	
  8179  00012A  F000               	nop	
  8180  00012C  F000               	nop	
  8181  00012E  F000               	nop	
  8182  000130  F000               	nop	
  8183  000132  F000               	nop	
  8184  000134  F000               	nop	
  8185  000136  F000               	nop	
  8186  000138  F000               	nop	
  8187  00013A  F000               	nop	
  8188  00013C  F000               	nop	
  8189  00013E  F000               	nop	
  8190  000140  F000               	nop	
  8191  000142  F000               	nop	
  8192  000144  F000               	nop	
  8193  000146  F000               	nop	
  8194  000148  F000               	nop	
  8195  00014A  F000               	nop	
  8196  00014C  F000               	nop	
  8197  00014E  F000               	nop	
  8198                           
  8199                           ;main.c: 72:     {__nop(); __nop(); __nop(); __nop(); __nop(); __nop(); __nop(); __nop()
      +                          ; __nop(); __nop();}; {__nop(); __nop(); __nop(); __nop(); __nop(); __nop(); __nop(); __
      +                          nop(); __nop(); __nop();}; {__nop(); __nop(); __nop(); __nop(); __nop(); __nop(); __nop(
      +                          ); __nop(); __nop(); __nop();}; {__nop(); __nop(); __nop(); __nop(); __nop(); __nop(); _
      +                          _nop(); __nop(); __nop(); __nop();}; {__nop(); __nop(); __nop(); __nop(); __nop(); __nop
      +                          (); __nop(); __nop(); __nop(); __nop();}; {__nop(); __nop(); __nop(); __nop(); __nop(); 
      +                          __nop(); __nop(); __nop(); __nop(); __nop();}; {__nop(); __nop(); __nop(); __nop(); __no
      +                          p(); __nop(); __nop(); __nop(); __nop(); __nop();}; {__nop(); __nop(); __nop(); __nop();
      +                           __nop(); __nop(); __nop(); __nop(); __nop(); __nop();};
  8200  000150  F000               	nop	
  8201  000152  F000               	nop	
  8202  000154  F000               	nop	
  8203  000156  F000               	nop	
  8204  000158  F000               	nop	
  8205  00015A  F000               	nop	
  8206  00015C  F000               	nop	
  8207  00015E  F000               	nop	
  8208  000160  F000               	nop	
  8209  000162  F000               	nop	
  8210  000164  F000               	nop	
  8211  000166  F000               	nop	
  8212  000168  F000               	nop	
  8213  00016A  F000               	nop	
  8214  00016C  F000               	nop	
  8215  00016E  F000               	nop	
  8216  000170  F000               	nop	
  8217  000172  F000               	nop	
  8218  000174  F000               	nop	
  8219  000176  F000               	nop	
  8220  000178  F000               	nop	
  8221  00017A  F000               	nop	
  8222  00017C  F000               	nop	
  8223  00017E  F000               	nop	
  8224  000180  F000               	nop	
  8225  000182  F000               	nop	
  8226  000184  F000               	nop	
  8227  000186  F000               	nop	
  8228  000188  F000               	nop	
  8229  00018A  F000               	nop	
  8230  00018C  F000               	nop	
  8231  00018E  F000               	nop	
  8232  000190  F000               	nop	
  8233  000192  F000               	nop	
  8234  000194  F000               	nop	
  8235  000196  F000               	nop	
  8236  000198  F000               	nop	
  8237  00019A  F000               	nop	
  8238  00019C  F000               	nop	
  8239  00019E  F000               	nop	
  8240  0001A0  F000               	nop	
  8241  0001A2  F000               	nop	
  8242  0001A4  F000               	nop	
  8243  0001A6  F000               	nop	
  8244  0001A8  F000               	nop	
  8245  0001AA  F000               	nop	
  8246  0001AC  F000               	nop	
  8247  0001AE  F000               	nop	
  8248  0001B0  F000               	nop	
  8249  0001B2  F000               	nop	
  8250  0001B4  F000               	nop	
  8251  0001B6  F000               	nop	
  8252  0001B8  F000               	nop	
  8253  0001BA  F000               	nop	
  8254  0001BC  F000               	nop	
  8255  0001BE  F000               	nop	
  8256  0001C0  F000               	nop	
  8257  0001C2  F000               	nop	
  8258  0001C4  F000               	nop	
  8259  0001C6  F000               	nop	
  8260  0001C8  F000               	nop	
  8261  0001CA  F000               	nop	
  8262  0001CC  F000               	nop	
  8263  0001CE  F000               	nop	
  8264  0001D0  F000               	nop	
  8265  0001D2  F000               	nop	
  8266  0001D4  F000               	nop	
  8267  0001D6  F000               	nop	
  8268  0001D8  F000               	nop	
  8269  0001DA  F000               	nop	
  8270  0001DC  F000               	nop	
  8271  0001DE  F000               	nop	
  8272  0001E0  F000               	nop	
  8273  0001E2  F000               	nop	
  8274  0001E4  F000               	nop	
  8275  0001E6  F000               	nop	
  8276  0001E8  F000               	nop	
  8277  0001EA  F000               	nop	
  8278  0001EC  F000               	nop	
  8279  0001EE  F000               	nop	
  8280                           
  8281                           ;main.c: 73:     {__nop(); __nop(); __nop(); __nop(); __nop(); __nop(); __nop(); __nop()
      +                          ; __nop(); __nop();}; {__nop(); __nop(); __nop(); __nop(); __nop(); __nop(); __nop(); __
      +                          nop(); __nop(); __nop();};
  8282  0001F0  F000               	nop	
  8283  0001F2  F000               	nop	
  8284  0001F4  F000               	nop	
  8285  0001F6  F000               	nop	
  8286  0001F8  F000               	nop	
  8287  0001FA  F000               	nop	
  8288  0001FC  F000               	nop	
  8289  0001FE  F000               	nop	
  8290  000200  F000               	nop	
  8291  000202  F000               	nop	
  8292  000204  F000               	nop	
  8293  000206  F000               	nop	
  8294  000208  F000               	nop	
  8295  00020A  F000               	nop	
  8296  00020C  F000               	nop	
  8297  00020E  F000               	nop	
  8298  000210  F000               	nop	
  8299  000212  F000               	nop	
  8300  000214  F000               	nop	
  8301  000216  F000               	nop	
  8302                           
  8303                           ;main.c: 78:     T2CONbits.TMR2ON = 1;
  8304  000218  84CA               	bsf	202,2,c	;volatile
  8305  00021A                     
  8306                           ;main.c: 80:     CntTmrIncSec++;
  8307  00021A  0E01               	movlw	1
  8308  00021C  0100               	movlb	0	; () banked
  8309  00021E  27DD               	addwf	timer2_irq@CntTmrIncSec& (0+255),f,b
  8310  000220  0E00               	movlw	0
  8311  000222  23DE               	addwfc	(timer2_irq@CntTmrIncSec+1)& (0+255),f,b
  8312  000224  23DF               	addwfc	(timer2_irq@CntTmrIncSec+2)& (0+255),f,b
  8313  000226  23E0               	addwfc	(timer2_irq@CntTmrIncSec+3)& (0+255),f,b
  8314                           
  8315                           ;main.c: 81:     CntTmrLedSec++;
  8316  000228  0E01               	movlw	1
  8317  00022A  27E1               	addwf	timer2_irq@CntTmrLedSec& (0+255),f,b
  8318  00022C  0E00               	movlw	0
  8319  00022E  23E2               	addwfc	(timer2_irq@CntTmrLedSec+1)& (0+255),f,b
  8320  000230  23E3               	addwfc	(timer2_irq@CntTmrLedSec+2)& (0+255),f,b
  8321  000232  23E4               	addwfc	(timer2_irq@CntTmrLedSec+3)& (0+255),f,b
  8322                           
  8323                           ;main.c: 83:     if (CntTmrIncSec == 37)
  8324  000234  0E25               	movlw	37
  8325  000236  19DD               	xorwf	timer2_irq@CntTmrIncSec& (0+255),w,b
  8326  000238  11DE               	iorwf	(timer2_irq@CntTmrIncSec+1)& (0+255),w,b
  8327  00023A  11DF               	iorwf	(timer2_irq@CntTmrIncSec+2)& (0+255),w,b
  8328  00023C  11E0               	iorwf	(timer2_irq@CntTmrIncSec+3)& (0+255),w,b
  8329  00023E  A4D8               	btfss	status,2,c
  8330  000240  EF24  F001         	goto	i2u592_41
  8331  000244  EF27  F001         	goto	i2u592_40
  8332  000248                     i2u592_41:
  8333  000248  FFFF               	dw	65535	; assembler added errata NOP
  8334  00024A  EF32  F001         	goto	i2l6002
  8335  00024E                     i2u592_40:
  8336  00024E  FFFF               	dw	65535	; assembler added errata NOP
  8337  000250                     
  8338                           ; BSR set to: 0
  8339                           ;main.c: 84:     {;main.c: 85:         time_has_changed_timer = 1;
  8340  000250  0E01               	movlw	1
  8341  000252  6FE8               	movwf	_time_has_changed_timer& (0+255),b
  8342                           
  8343                           ;main.c: 86:         CntTmrIncSec = 0;
  8344  000254  0E00               	movlw	0
  8345  000256  6FDD               	movwf	timer2_irq@CntTmrIncSec& (0+255),b
  8346  000258  0E00               	movlw	0
  8347  00025A  6FDE               	movwf	(timer2_irq@CntTmrIncSec+1)& (0+255),b
  8348  00025C  0E00               	movlw	0
  8349  00025E  6FDF               	movwf	(timer2_irq@CntTmrIncSec+2)& (0+255),b
  8350  000260  0E00               	movlw	0
  8351  000262  6FE0               	movwf	(timer2_irq@CntTmrIncSec+3)& (0+255),b
  8352  000264                     i2l6002:
  8353  000264  FFFF               	dw	65535	; assembler added errata NOP
  8354                           
  8355                           ; BSR set to: 0
  8356                           ;main.c: 89:     if (CntTmrLedSec == 16)
  8357  000266  0E10               	movlw	16
  8358  000268  19E1               	xorwf	timer2_irq@CntTmrLedSec& (0+255),w,b
  8359  00026A  11E2               	iorwf	(timer2_irq@CntTmrLedSec+1)& (0+255),w,b
  8360  00026C  11E3               	iorwf	(timer2_irq@CntTmrLedSec+2)& (0+255),w,b
  8361  00026E  11E4               	iorwf	(timer2_irq@CntTmrLedSec+3)& (0+255),w,b
  8362  000270  A4D8               	btfss	status,2,c
  8363  000272  EF3D  F001         	goto	i2u593_41
  8364  000276  EF40  F001         	goto	i2u593_40
  8365  00027A                     i2u593_41:
  8366  00027A  FFFF               	dw	65535	; assembler added errata NOP
  8367  00027C  EF5D  F001         	goto	i2l528
  8368  000280                     i2u593_40:
  8369  000280  FFFF               	dw	65535	; assembler added errata NOP
  8370  000282                     
  8371                           ; BSR set to: 0
  8372                           ;main.c: 90:     {;main.c: 91:         LATAbits.LATA1 = !LATAbits.LATA1;
  8373  000282  A289               	btfss	137,1,c	;volatile
  8374  000284  EF46  F001         	goto	i2u594_41
  8375  000288  EF4B  F001         	goto	i2u594_40
  8376  00028C                     i2u594_41:
  8377  00028C  FFFF               	dw	65535	; assembler added errata NOP
  8378  00028E  6A01               	clrf	??_timer2_irq^0,c
  8379  000290  2A01               	incf	??_timer2_irq^0,f,c
  8380  000292  EF4D  F001         	goto	i2u595_48
  8381  000296                     i2u594_40:
  8382  000296  FFFF               	dw	65535	; assembler added errata NOP
  8383  000298  6A01               	clrf	??_timer2_irq^0,c
  8384  00029A                     i2u595_48:
  8385  00029A  FFFF               	dw	65535	; assembler added errata NOP
  8386  00029C  4601               	rlncf	??_timer2_irq^0,f,c
  8387  00029E  5089               	movf	137,w,c	;volatile
  8388  0002A0  1801               	xorwf	??_timer2_irq^0,w,c
  8389  0002A2  0BFD               	andlw	-3
  8390  0002A4  1801               	xorwf	??_timer2_irq^0,w,c
  8391  0002A6  6E89               	movwf	137,c	;volatile
  8392  0002A8                     
  8393                           ;main.c: 92:         CntTmrLedSec = 0;
  8394  0002A8  0E00               	movlw	0
  8395  0002AA  0100               	movlb	0	; () banked
  8396  0002AC  6FE1               	movwf	timer2_irq@CntTmrLedSec& (0+255),b
  8397  0002AE  0E00               	movlw	0
  8398  0002B0  6FE2               	movwf	(timer2_irq@CntTmrLedSec+1)& (0+255),b
  8399  0002B2  0E00               	movlw	0
  8400  0002B4  6FE3               	movwf	(timer2_irq@CntTmrLedSec+2)& (0+255),b
  8401  0002B6  0E00               	movlw	0
  8402  0002B8  6FE4               	movwf	(timer2_irq@CntTmrLedSec+3)& (0+255),b
  8403  0002BA                     i2l528:
  8404  0002BA  FFFF               	dw	65535	; assembler added errata NOP
  8405                           
  8406                           ; BSR set to: 0
  8407  0002BC  9268               	bcf	int$flags,1,c	;clear compiler interrupt flag (level 2)
  8408  0002BE  0011               	retfie		f
  8409  0002C0  FFFF               	dw	65535	; errata NOP
  8410  0002C2                     __end_of_timer2_irq:
  8411                           	opt callstack 0
  8412                           
  8413                           	psect	rparam
  8414  0000                     
  8415                           	psect	temp
  8416  000068                     btemp:
  8417                           	opt callstack 0
  8418  000068                     	ds	1
  8419  0000                     int$flags	set	btemp
  8420  0000                     wtemp8	set	btemp+1
  8421  0000                     ttemp5	set	btemp+1
  8422  0000                     ttemp6	set	btemp+4
  8423  0000                     ttemp7	set	btemp+8
  8424                           tosu	equ	0xFFF
  8425                           tosh	equ	0xFFE
  8426                           tosl	equ	0xFFD
  8427                           stkptr	equ	0xFFC
  8428                           pclatu	equ	0xFFB
  8429                           pclath	equ	0xFFA
  8430                           pcl	equ	0xFF9
  8431                           tblptru	equ	0xFF8
  8432                           tblptrh	equ	0xFF7
  8433                           tblptrl	equ	0xFF6
  8434                           tablat	equ	0xFF5
  8435                           prodh	equ	0xFF4
  8436                           prodl	equ	0xFF3
  8437                           indf0	equ	0xFEF
  8438                           postinc0	equ	0xFEE
  8439                           postdec0	equ	0xFED
  8440                           preinc0	equ	0xFEC
  8441                           plusw0	equ	0xFEB
  8442                           fsr0h	equ	0xFEA
  8443                           fsr0l	equ	0xFE9
  8444                           wreg	equ	0xFE8
  8445                           indf1	equ	0xFE7
  8446                           postinc1	equ	0xFE6
  8447                           postdec1	equ	0xFE5
  8448                           preinc1	equ	0xFE4
  8449                           plusw1	equ	0xFE3
  8450                           fsr1h	equ	0xFE2
  8451                           fsr1l	equ	0xFE1
  8452                           bsr	equ	0xFE0
  8453                           indf2	equ	0xFDF
  8454                           postinc2	equ	0xFDE
  8455                           postdec2	equ	0xFDD
  8456                           preinc2	equ	0xFDC
  8457                           plusw2	equ	0xFDB
  8458                           fsr2h	equ	0xFDA
  8459                           fsr2l	equ	0xFD9
  8460                           status	equ	0xFD8


Data Sizes:
    Strings     435
    Constant    0
    Data        63
    BSS         280
    Persistent  0
    Stack       0

Auto Spaces:
    Space          Size  Autos    Used
    COMRAM          126     98     103
    BANK0           128     23     105
    BANK1           256      0     256
    BANK2           256      0       0
    BANK3           256      0       0
    BANK4           256      0       0
    BANK5           256      0       0

Pointer List with Targets:

    lcd_write_date@month	PTR const unsigned char [12] size(2) Largest target is 4
		 -> STR_65(CODE[4]), STR_64(CODE[4]), STR_63(CODE[4]), STR_62(CODE[4]), 
		 -> STR_61(CODE[4]), STR_60(CODE[4]), STR_59(CODE[4]), STR_58(CODE[4]), 
		 -> STR_57(CODE[4]), STR_56(CODE[4]), STR_55(CODE[4]), STR_54(CODE[4]), 

    lcd_write_date@F2591	PTR const unsigned char [12] size(2) Largest target is 4
		 -> STR_65(CODE[4]), STR_64(CODE[4]), STR_63(CODE[4]), STR_62(CODE[4]), 
		 -> STR_61(CODE[4]), STR_60(CODE[4]), STR_59(CODE[4]), STR_58(CODE[4]), 
		 -> STR_57(CODE[4]), STR_56(CODE[4]), STR_55(CODE[4]), STR_54(CODE[4]), 

    lcd_write_date@day_of_week	PTR const unsigned char [7] size(2) Largest target is 4
		 -> STR_53(CODE[4]), STR_52(CODE[4]), STR_51(CODE[4]), STR_50(CODE[4]), 
		 -> STR_49(CODE[4]), STR_48(CODE[4]), STR_47(CODE[4]), 

    lcd_write_date@F2589	PTR const unsigned char [7] size(2) Largest target is 4
		 -> STR_53(CODE[4]), STR_52(CODE[4]), STR_51(CODE[4]), STR_50(CODE[4]), 
		 -> STR_49(CODE[4]), STR_48(CODE[4]), STR_47(CODE[4]), 

    lcd_2x16_write_string@string	PTR const unsigned char  size(2) Largest target is 4
		 -> STR_72(CODE[2]), STR_71(CODE[2]), STR_70(CODE[2]), STR_69(CODE[2]), 
		 -> STR_68(CODE[2]), STR_67(CODE[2]), STR_66(CODE[2]), STR_65(CODE[4]), 
		 -> STR_64(CODE[4]), STR_63(CODE[4]), STR_62(CODE[4]), STR_61(CODE[4]), 
		 -> STR_60(CODE[4]), STR_59(CODE[4]), STR_58(CODE[4]), STR_57(CODE[4]), 
		 -> STR_56(CODE[4]), STR_55(CODE[4]), STR_54(CODE[4]), STR_53(CODE[4]), 
		 -> STR_52(CODE[4]), STR_51(CODE[4]), STR_50(CODE[4]), STR_49(CODE[4]), 
		 -> STR_48(CODE[4]), STR_47(CODE[4]), 

    uart_write_date@F2553	PTR const unsigned char [7] size(2) Largest target is 10
		 -> STR_46(CODE[7]), STR_45(CODE[9]), STR_44(CODE[7]), STR_43(CODE[9]), 
		 -> STR_42(CODE[10]), STR_41(CODE[8]), STR_40(CODE[7]), 

    uart_write_string@data	PTR const unsigned char  size(2) Largest target is 256
		 -> STR_46(CODE[7]), STR_45(CODE[9]), STR_44(CODE[7]), STR_43(CODE[9]), 
		 -> STR_42(CODE[10]), STR_41(CODE[8]), STR_40(CODE[7]), STR_23(CODE[8]), 
		 -> STR_22(CODE[4]), STR_21(CODE[2]), STR_20(CODE[2]), STR_19(CODE[38]), 
		 -> STR_18(CODE[3]), STR_17(CODE[4]), STR_16(CODE[4]), STR_15(CODE[3]), 
		 -> STR_14(CODE[2]), STR_13(CODE[37]), STR_12(CODE[13]), STR_11(CODE[20]), 
		 -> STR_9(CODE[35]), STR_7(CODE[35]), command_line_interpreter@uart_buff(BANK1[256]), STR_1(CODE[13]), 

    tmp75_read_temp@temp	PTR unsigned short  size(2) Largest target is 2
		 -> main@tmp75_temp(BANK0[2]), 

    sp__u4_to_bin	PTR const unsigned char  size(2) Largest target is 5
		 -> STR_39(CODE[5]), STR_38(CODE[5]), STR_37(CODE[5]), STR_36(CODE[5]), 
		 -> STR_35(CODE[5]), STR_34(CODE[5]), STR_33(CODE[5]), STR_32(CODE[5]), 
		 -> STR_31(CODE[5]), STR_30(CODE[5]), STR_29(CODE[5]), STR_28(CODE[5]), 
		 -> STR_27(CODE[5]), STR_26(CODE[5]), STR_25(CODE[5]), STR_24(CODE[5]), 

    i2c_read@data	PTR unsigned char  size(2) Largest target is 1
		 -> ds1307_get_time@tmp(COMRAM[1]), tmp75_read_temp@i2cbyte2(COMRAM[1]), tmp75_read_temp@i2cbyte1(COMRAM[1]), i2c_dump@i2c_rx(COMRAM[1]), 
		 -> command_line_interpreter@tmp(COMRAM[1]), 

    datetime_increase_days@t	PTR struct . size(2) Largest target is 7
		 -> main@t(BANK0[7]), 

    datetime_increase_hours@t	PTR struct . size(2) Largest target is 7
		 -> main@t(BANK0[7]), 

    datetime_increase_minutes@t	PTR struct . size(2) Largest target is 7
		 -> main@t(BANK0[7]), 

    datetime_increase_seconds@t	PTR struct . size(2) Largest target is 7
		 -> main@t(BANK0[7]), 

    dec_2_bcd@bcd	PTR unsigned char  size(2) Largest target is 5
		 -> lcd_write_date@bcd(COMRAM[5]), lcd_2x16_write_u16@bcd(COMRAM[5]), lcd_2x16_write_u8@bcd(COMRAM[5]), lcd_2x16_write_s16@bcd(COMRAM[5]), 
		 -> lcd_2x16_write_s8@bcd(COMRAM[5]), lcd_2x16_write_2bcd@bcd(COMRAM[5]), uart_write_temperature@bcd(COMRAM[5]), uart_write_date@bcd(COMRAM[5]), 
		 -> uart_write_u16@bcd(COMRAM[5]), uart_write_u8@bcd(COMRAM[5]), uart_write_char@bcd(COMRAM[5]), 


Critical Paths under _main in COMRAM

    _main->_uart_init
    _uart_init->___fltol
    ___fltol->___fladd
    ___flmul->___xxtofl
    ___fldiv->___flmul
    ___fladd->___fldiv
    _tmp75_read_temp->_i2c_read
    _i2c_read->_i2c_send_ack
    _tmp75_configure->_i2c_write_reg
    _i2c_write_reg->_i2c_write
    _pcf8574_write_port->_i2c_write
    _i2c_write->_i2c_wait_ack
    _lcd_write_time->_lcd_2x16_write_2bcd
    _lcd_write_temperature->_lcd_2x16_write_2bcd
    _lcd_write_date->_lcd_2x16_write_2bcd
    _lcd_2x16_write_string->_lcd_2x16_write
    _lcd_2x16_write_2bcd->_lcd_2x16_write
    _lcd_2x16_position->_lcd_2x16_write
    _lcd_2x16_init->_lcd_2x16_write
    _lcd_2x16_write_4b->_delay_us
    _lcd_2x16_write->_delay_us
    _i2c_init->___lldiv
    _datetime_increase_seconds->_datetime_increase_minutes
    _datetime_increase_minutes->_datetime_increase_hours
    _datetime_increase_hours->_datetime_increase_days

Critical Paths under _timer2_irq in COMRAM

    None.

Critical Paths under _main in BANK0

    None.

Critical Paths under _timer2_irq in BANK0

    None.

Critical Paths under _main in BANK1

    None.

Critical Paths under _timer2_irq in BANK1

    None.

Critical Paths under _main in BANK2

    None.

Critical Paths under _timer2_irq in BANK2

    None.

Critical Paths under _main in BANK3

    None.

Critical Paths under _timer2_irq in BANK3

    None.

Critical Paths under _main in BANK4

    None.

Critical Paths under _timer2_irq in BANK4

    None.

Critical Paths under _main in BANK5

    None.

Critical Paths under _timer2_irq in BANK5

    None.

Call Graph Tables:

 ---------------------------------------------------------------------------------
 (Depth) Function   	        Calls       Base Space   Used Autos Params    Refs
 ---------------------------------------------------------------------------------
 (0) _main                                                28    28      0  246792
                                              0 BANK0     23    23      0
          _datetime_increase_minutes
          _datetime_increase_seconds
                           _delay_ms
                           _i2c_init
                      _lcd_2x16_init
                     _lcd_write_date
              _lcd_write_temperature
                     _lcd_write_time
                 _pcf8574_write_port
                           _pwm_init
                         _timer_init
                    _tmp75_configure
                    _tmp75_read_temp
                          _uart_init
                  _uart_write_string
 ---------------------------------------------------------------------------------
 (1) _uart_write_string                                    3     1      2    1685
                                              1 COMRAM     2     0      2
 ---------------------------------------------------------------------------------
 (1) _uart_init                                            7     1      6   10310
                                             91 COMRAM     7     1      6
                            ___fladd
                            ___fldiv
                            ___flmul
                            ___fltol
                           ___xxtofl
                           _delay_ms
 ---------------------------------------------------------------------------------
 (2) ___xxtofl                                            14    10      4     566
                                              1 COMRAM    14    10      4
 ---------------------------------------------------------------------------------
 (2) ___fltol                                             10     6      4     427
                                             81 COMRAM    10     6      4
                            ___fladd (ARG)
                            ___fldiv (ARG)
                            ___flmul (ARG)
                           ___xxtofl (ARG)
 ---------------------------------------------------------------------------------
 (2) ___flmul                                             25    17      8    2513
                                             15 COMRAM    25    17      8
                           ___xxtofl (ARG)
 ---------------------------------------------------------------------------------
 (2) ___fldiv                                             25    17      8    2003
                                             40 COMRAM    25    17      8
                            ___flmul (ARG)
                           ___xxtofl (ARG)
 ---------------------------------------------------------------------------------
 (2) ___fladd                                             16     8      8    3402
                                             65 COMRAM    16     8      8
                            ___fldiv (ARG)
                            ___flmul (ARG)
                           ___xxtofl (ARG)
 ---------------------------------------------------------------------------------
 (1) _tmp75_read_temp                                     11     8      3    5696
                                              8 COMRAM    11     8      3
                           _i2c_read
                         _i2c_rstart
                          _i2c_start
                           _i2c_stop
                          _i2c_write
 ---------------------------------------------------------------------------------
 (2) _i2c_rstart                                           2     2      0      34
                                              1 COMRAM     1     1      0
 ---------------------------------------------------------------------------------
 (2) _i2c_read                                             5     2      3    1487
                                              3 COMRAM     5     2      3
                       _i2c_send_ack
 ---------------------------------------------------------------------------------
 (3) _i2c_send_ack                                         3     2      1     131
                                              1 COMRAM     2     1      1
 ---------------------------------------------------------------------------------
 (1) _tmp75_configure                                      2     1      1    5045
                                              9 COMRAM     2     1      1
                      _i2c_write_reg
 ---------------------------------------------------------------------------------
 (2) _i2c_write_reg                                        4     1      3    4769
                                              5 COMRAM     4     1      3
                          _i2c_start
                           _i2c_stop
                          _i2c_write
 ---------------------------------------------------------------------------------
 (1) _timer_init                                           5     2      3     487
                                              1 COMRAM     5     2      3
 ---------------------------------------------------------------------------------
 (1) _pwm_init                                             5     1      4     242
                                              1 COMRAM     5     1      4
 ---------------------------------------------------------------------------------
 (1) _pcf8574_write_port                                   3     1      2    3807
                                              5 COMRAM     3     1      2
                          _i2c_start
                           _i2c_stop
                          _i2c_write
 ---------------------------------------------------------------------------------
 (2) _i2c_write                                            3     2      1    3407
                                              2 COMRAM     3     2      1
                       _i2c_wait_ack
 ---------------------------------------------------------------------------------
 (3) _i2c_wait_ack                                         2     2      0      68
                                              1 COMRAM     1     1      0
 ---------------------------------------------------------------------------------
 (2) _i2c_stop                                             1     1      0       0
 ---------------------------------------------------------------------------------
 (2) _i2c_start                                            2     2      0      34
                                              1 COMRAM     1     1      0
 ---------------------------------------------------------------------------------
 (1) _lcd_write_time                                       9     0      9   62953
                                             20 COMRAM     9     0      9
                  _lcd_2x16_position
                _lcd_2x16_write_2bcd
              _lcd_2x16_write_string
 ---------------------------------------------------------------------------------
 (1) _lcd_write_temperature                                3     1      2   61920
                                             20 COMRAM     3     1      2
                  _lcd_2x16_position
                     _lcd_2x16_write
                _lcd_2x16_write_2bcd
 ---------------------------------------------------------------------------------
 (1) _lcd_write_date                                      57    47     10   67641
                                             20 COMRAM    57    47     10
                          _dec_2_bcd
                  _lcd_2x16_position
                _lcd_2x16_write_2bcd
              _lcd_2x16_write_string
 ---------------------------------------------------------------------------------
 (2) _lcd_2x16_write_string                                2     0      2   19591
                                             13 COMRAM     2     0      2
                     _lcd_2x16_write
 ---------------------------------------------------------------------------------
 (2) _lcd_2x16_write_2bcd                                  7     5      2   23700
                                             13 COMRAM     7     5      2
                          _dec_2_bcd
                     _lcd_2x16_write
 ---------------------------------------------------------------------------------
 (3) _dec_2_bcd                                            4     0      4    4077
                                              1 COMRAM     4     0      4
 ---------------------------------------------------------------------------------
 (2) _lcd_2x16_position                                    4     3      1   19231
                                             13 COMRAM     4     3      1
                     _lcd_2x16_write
 ---------------------------------------------------------------------------------
 (1) _lcd_2x16_init                                        4     2      2   21520
                                             13 COMRAM     4     2      2
                           _delay_ms
                     _lcd_2x16_write
                  _lcd_2x16_write_4b
 ---------------------------------------------------------------------------------
 (2) _lcd_2x16_write_4b                                    5     2      3    1492
                                              7 COMRAM     5     2      3
                           _delay_us
 ---------------------------------------------------------------------------------
 (3) _lcd_2x16_write                                       6     3      3   18716
                                              7 COMRAM     6     3      3
                           _delay_us
 ---------------------------------------------------------------------------------
 (4) _delay_us                                             6     4      2     617
                                              1 COMRAM     6     4      2
 ---------------------------------------------------------------------------------
 (1) _i2c_init                                            11     5      6    1854
                                             14 COMRAM    11     5      6
                            ___lldiv
                           _delay_ms
 ---------------------------------------------------------------------------------
 (2) _delay_ms                                             6     4      2    1157
                                              1 COMRAM     6     4      2
 ---------------------------------------------------------------------------------
 (2) ___lldiv                                             13     5      8     421
                                              1 COMRAM    13     5      8
 ---------------------------------------------------------------------------------
 (1) _datetime_increase_seconds                            3     1      2     915
                                             10 COMRAM     3     1      2
          _datetime_increase_minutes
 ---------------------------------------------------------------------------------
 (2) _datetime_increase_minutes                            3     1      2     701
                                              7 COMRAM     3     1      2
            _datetime_increase_hours
 ---------------------------------------------------------------------------------
 (3) _datetime_increase_hours                              3     1      2     397
                                              4 COMRAM     3     1      2
             _datetime_increase_days
 ---------------------------------------------------------------------------------
 (4) _datetime_increase_days                               3     1      2     183
                                              1 COMRAM     3     1      2
 ---------------------------------------------------------------------------------
 Estimated maximum stack depth 4
 ---------------------------------------------------------------------------------
 (Depth) Function   	        Calls       Base Space   Used Autos Params    Refs
 ---------------------------------------------------------------------------------
 (5) _timer2_irq                                           1     1      0       0
                                              0 COMRAM     1     1      0
 ---------------------------------------------------------------------------------
 Estimated maximum stack depth 5
 ---------------------------------------------------------------------------------

 Call Graph Graphs:

 _main (ROOT)
   _datetime_increase_minutes
     _datetime_increase_hours
       _datetime_increase_days
   _datetime_increase_seconds
     _datetime_increase_minutes
       _datetime_increase_hours
         _datetime_increase_days
   _delay_ms
   _i2c_init
     ___lldiv
     _delay_ms
   _lcd_2x16_init
     _delay_ms
     _lcd_2x16_write
       _delay_us
     _lcd_2x16_write_4b
       _delay_us
   _lcd_write_date
     _dec_2_bcd
     _lcd_2x16_position
       _lcd_2x16_write
         _delay_us
     _lcd_2x16_write_2bcd
       _dec_2_bcd
       _lcd_2x16_write
         _delay_us
     _lcd_2x16_write_string
       _lcd_2x16_write
         _delay_us
   _lcd_write_temperature
     _lcd_2x16_position
       _lcd_2x16_write
         _delay_us
     _lcd_2x16_write
       _delay_us
     _lcd_2x16_write_2bcd
       _dec_2_bcd
       _lcd_2x16_write
         _delay_us
   _lcd_write_time
     _lcd_2x16_position
       _lcd_2x16_write
         _delay_us
     _lcd_2x16_write_2bcd
       _dec_2_bcd
       _lcd_2x16_write
         _delay_us
     _lcd_2x16_write_string
       _lcd_2x16_write
         _delay_us
   _pcf8574_write_port
     _i2c_start
     _i2c_stop
     _i2c_write
       _i2c_wait_ack
   _pwm_init
   _timer_init
   _tmp75_configure
     _i2c_write_reg
       _i2c_start
       _i2c_stop
       _i2c_write
         _i2c_wait_ack
   _tmp75_read_temp
     _i2c_read
       _i2c_send_ack
     _i2c_rstart
     _i2c_start
     _i2c_stop
     _i2c_write
       _i2c_wait_ack
   _uart_init
     ___fladd
       ___fldiv (ARG)
         ___flmul (ARG)
           ___xxtofl (ARG)
         ___xxtofl (ARG)
       ___flmul (ARG)
         ___xxtofl (ARG)
       ___xxtofl (ARG)
     ___fldiv
       ___flmul (ARG)
         ___xxtofl (ARG)
       ___xxtofl (ARG)
     ___flmul
       ___xxtofl (ARG)
     ___fltol
       ___fladd (ARG)
         ___fldiv (ARG)
           ___flmul (ARG)
             ___xxtofl (ARG)
           ___xxtofl (ARG)
         ___flmul (ARG)
           ___xxtofl (ARG)
         ___xxtofl (ARG)
       ___fldiv (ARG)
         ___flmul (ARG)
           ___xxtofl (ARG)
         ___xxtofl (ARG)
       ___flmul (ARG)
         ___xxtofl (ARG)
       ___xxtofl (ARG)
     ___xxtofl
     _delay_ms
   _uart_write_string

 _timer2_irq (ROOT)

 Address spaces:
Name               Size   Autos  Total    Cost      Usage
BIGRAM             5FF      0       0      17        0.0%
EEDATA             100      0       0       0        0.0%
BITBANK5           100      0       0      16        0.0%
BANK5              100      0       0      14        0.0%
BITBANK4           100      0       0      12        0.0%
BANK4              100      0       0      13        0.0%
BITBANK3           100      0       0      10        0.0%
BANK3              100      0       0      11        0.0%
BITBANK2           100      0       0       8        0.0%
BANK2              100      0       0       9        0.0%
BITBANK1           100      0       0       6        0.0%
BANK1              100      0     100       7      100.0%
BITBANK0            80      0       0       4        0.0%
BANK0               80     17      69       5       82.0%
BITCOMRAM           7E      0       0       0        0.0%
COMRAM              7E     62      67       1       81.7%
BITSFR               0      0       0     200        0.0%
SFR                  0      0       0     200        0.0%
STACK                0      0       0       2        0.0%
NULL                 0      0       0       0        0.0%
ABS                  0      0     1D0      15        0.0%
DATA                 0      0     1D0       3        0.0%
CODE                 0      0       0       0        0.0%


Microchip Technology PIC18 Macro Assembler V2.10 build 88905656 
Symbol Table                                                                                   Sun May 03 20:29:37 2020

                                                                ___fldiv@aexp 0041  
                                                                ___fldiv@bexp 0040  
                                                        lcd_2x16_position@pos 000E  
                                                                ___fldiv@sign 0039  
                                                                 _SSPSTATbits 000FC7  
                                                                          l15 1B78  
                                                                timer_init@id 0006  
                                                                 __CFG_OSC$HS 000000  
                                                      __size_of_i2c_write_reg 00C0  
                                                                         l411 1F38  
                                                                         l244 254A  
                                                                         l254 25A2  
                                                                         l351 28B8  
                                                                         l264 268C  
                                                                         l360 2892  
                                                                         l281 284C  
                                                                         l353 28CC  
                                                                         l274 26D8  
                                                                         l354 28CE  
                                                                         l363 2860  
                                                                         l348 23E4  
                                                                         l372 2460  
                                                                         l620 236A  
                                                                         l380 27FC  
                                                                         l373 2494  
                                                                         l381 2816  
                                                                         l357 287C  
                                                                         l390 28B0  
                                                                         l366 2874  
                                                                         l375 249A  
                                                                         l359 2890  
                                                                         l288 2440  
                                                                         l384 28E6  
                                                                         l369 2448  
                                                                         l378 27E8  
                                                                         l714 1756  
                                                                         l387 289A  
                                                                         l708 21DE  
                                                                         l645 25F2  
                                                                         l751 1E7A  
                                                                         l673 2270  
                                                                         l770 22F0  
                                                                         l931 1DA8  
                                                                         l934 214C  
                                                                         l766 227C  
                                                                         l937 1A3A  
                                                                         l946 20AA  
                                                                         l955 2642  
                                                                         l958 2762  
                                                                         _PR2 000FCB  
                                                                __CFG_BOR$OFF 000000  
                                                  lcd_write_temperature@ligne 0015  
                                                           _lcd_2x16_position 1FFC  
                                                      lcd_2x16_position@ligne 0011  
                                                                         wreg 000FE8  
                                                                ___flmul@aexp 001D  
                                                                ___flmul@bexp 0022  
                                                                ___flmul@sign 001C  
                                                                ___flmul@temp 0027  
                                                                ___flmul@prod 0023  
                                                          ?_lcd_2x16_position 000E  
                                                     ??_lcd_2x16_write_string 0010  
                                                           _lcd_2x16_write_4b 20B0  
                                                                __CFG_LVP$OFF 000000  
                                                                ___fltol@exp1 005B  
                                                                __CFG_WDT$OFF 000000  
                                                                        l1031 18CE  
                                                                        l1034 2720  
                                                                        l1115 1FF8  
                                                                        l1019 27DE  
                                                                        l1108 1FE6  
                                                                        l1610 04F8  
                                                                        l1611 04AE  
                                                                        l1702 0B66  
                                                                        l1712 0CC4  
                                                                        l1704 0BF6  
                                                                        l1609 050E  
                                                                        l1705 0BDE  
                                                                        l1626 0652  
                                                                        l1618 0868  
                                                                        l1378 1CAC  
                                                                        l1635 0756  
                                                                        l1636 073E  
                                                                        l1750 1564  
                                                                        l1663 113E  
                                                                        l1743 14F8  
                                                                        l1736 144C  
                                                                        l1665 0F56  
                                                                        l1674 0FAC  
                                                                        l1739 15DE  
                                                                        l1676 103C  
                                                                        l1668 0F10  
                                                                        l1677 1024  
                                                                        l1695 095A  
                                                                        l7000 2000  
                                                                        l7002 2004  
                                                                        l1699 0D0C  
                                                                        l7004 201E  
                                                                        l7012 206C  
                                                                        l7020 25FE  
                                                                        l7100 03FE  
                                                                        l7006 2038  
                                                                        l7030 274E  
                                                                        l7022 261A  
                                                                        l7110 0414  
                                                                        l7102 0402  
                                                                        l7040 1F80  
                                                                        l7032 1F40  
                                                                        l7008 2052  
                                                                        l7024 261E  
                                                                        l7200 06B4  
                                                                        l7120 0428  
                                                                        l7112 0418  
                                                                        l7104 0408  
                                                                        l7050 1FD4  
                                                                        l7042 1F94  
                                                                        l7034 1F50  
                                                                        l7026 2726  
                                                                        l7018 25FA  
                                                                        l7210 06EE  
                                                                        l7202 06B6  
                                                                        l7130 043C  
                                                                        l7122 042C  
                                                                        l7114 041C  
                                                                        l7106 040C  
                                                                        l7052 1FE0  
                                                                        l7044 1FA0  
                                                                        l7036 1F6A  
                                                                        l7028 273A  
                                                                        l7220 0734  
                                                                        l7204 06CA  
                                                                        l7212 06F0  
                                                                        l7140 04A6  
                                                                        l7124 0430  
                                                                        l7116 0420  
                                                                        l7108 0410  
                                                                        l7132 0440  
                                                                        l7060 02E8  
                                                                        l7300 0E3A  
                                                                        l7046 1FC2  
                                                                        l7038 1F72  
                                                                        l7230 07C8  
                                                                        l7206 06D2  
                                                                        l7214 0702  
                                                                        l7150 04EA  
                                                                        l7142 04C2  
                                                                        l7134 0446  
                                                                        l7126 0434  
                                                                        l7118 0424  
                                                                        l7062 02FE  
                                                                        l7070 032E  
                                                                        l7054 02C8  
                                                                        l7310 0E6A  
                                                                        l7302 0E40  
                                                                        l7048 1FD2  
                                                                        l7240 081C  
                                                                        l7224 076C  
                                                                        l7232 07CA  
                                                                        l7216 0708  
                                                                        l7208 06D8  
                                                                        l7160 054A  
                                                                        l7152 04F6  
                                                                        l7144 04CE  
                                                                        l7136 0474  
                                                                        l7128 0438  
                                                                        l7080 0368  
                                                                        l7072 0340  
                                                                        l7064 0312  
                                                                        l7056 02D4  
                                                                        l7320 0EBA  
                                                                        l7400 0890  
                                                                        l7250 0854  
                                                                        l7242 0830  
                                                                        l7234 07E0  
                                                                        l7226 0778  
                                                                        l7218 071A  
                                                                        l7170 0592  
                                                                        l7162 055C  
                                                                        l7154 0522  
                                                                        l7146 04D4  
                                                                        l7138 0496  
                                                                        l7090 03B6  
                                                                        l7082 037A  
                                                                        l7074 0348  
                                                                        l7066 0322  
                                                                        l7058 02E6  
                                                                        l7330 0F0E  
                                                                        l7322 0ECA  
                                                                        l7314 0E7E  
                                                                        l7306 0E54  
                                                                        l7410 08E4  
                                                                        l7402 08A6  
                                                                        l7252 0856  
                                                                        l7244 0836  
                                                                        l7236 07F2  
                                                                        l7228 078A  
                                                                        l7180 05E6  
                                                                        l7172 05A6  
                                                                        l7164 056E  
                                                                        l7156 0536  
                                                                        l7148 04E8  
                                                                        l7092 03BA  
                                                                        l7084 037C  
                                                                        l7076 035E  
                                                                        l7068 0326  
                                                                        l7340 0F6C  
                                                                        l7332 0F1C  
                                                                        l7324 0ED2  
                                                                        l7316 0E9A  
                                                                        l7308 0E6A  
                                                                        l7260 0D32  
                                                                        l7500 0C54  
                                                                        l7420 091C  
                                                                        l7412 08EC  
                                                                        l7404 08BA  
                                                                        l8300 1348  
                                                                        l7246 083A  
                                                                        l7238 0818  
                                                                        l7190 066E  
                                                                        l7182 061A  
                                                                        l7174 05A8  
                                                                        l7166 0580  
                                                                        l7086 0392  
                                                                        l7094 03C2  
                                                                        l7078 0360  
                                                                        l7342 0F86  
                                                                        l7350 0FBE  
                                                                        l7334 0F40  
                                                                        l7326 0EE8  
                                                                        l7318 0EAA  
                                                                        l7270 0D72  
                                                                        l7262 0D34  
                                                                        l7510 0CCA  
                                                                        l7502 0C58  
                                                                        l7430 0982  
                                                                        l7422 0930  
                                                                        l7414 08F2  
                                                                        l7406 08CA  
                                                                        l8310 139A  
                                                                        l8302 135A  
                                                                        l8230 114C  
                                                                        l7248 0842  
                                                                        l7192 0682  
                                                                        l7184 061C  
                                                                        l7176 05B4  
                                                                        l7168 058C  
                                                                        l7096 03D4  
                                                                        l7088 03A6  
                                                                        l7352 0FD2  
                                                                        l7344 0F8C  
                                                                        l7336 0F42  
                                                                        l7328 0EFC  
                                                                        l7280 0DAC  
                                                                        l7264 0D4A  
                                                                        l7272 0D7A  
                                                                        l7256 0D14  
                                                                        l7520 0CFC  
                                                                        l7512 0CDA  
                                                                        l7504 0C78  
                                                                        l7440 09C6  
                                                                        l7424 0940  
                                                                        l7416 0904  
                                                                        l7408 08D2  
                                                                        l7600 157A  
                                                                        l8312 13A6  
                                                                        l8304 136A  
                                                                        l8240 117E  
                                                                        l8232 115E  
                                                                        l6810 1A4C  
                                                                        l7186 0630  
                                                                        l7178 05BA  
                                                                        l7098 03EC  
                                                                        l7362 1052  
                                                                        l7370 109E  
                                                                        l7354 0FD6  
                                                                        l7346 0F98  
                                                                        l7338 0F52  
                                                                        l7290 0DEC  
                                                                        l7282 0DAE  
                                                                        l7274 0D8C  
                                                                        l7266 0D5E  
                                                                        l7258 0D20  
                                                                        l7514 0CEC  
                                                                        l7506 0C8C  
                                                                        l7450 0A10  
                                                                        l7442 09D2  
                                                                        l7434 0998  
                                                                        l7426 0948  
                                                                        l7418 0906  
                                                                        l7530 1BAE  
                                                                        l7610 15CC  
                                                                        l7602 1580  
                                                                        l8314 13BA  
                                                                        l8306 137C  
                                                                        l8250 11A6  
                                                                        l8242 1186  
                                                                        l8234 1166  
                                                                        l6900 1A1E  
                                                                        l6820 1AA0  
                                                                        l6812 1A5C  
                                                                        l7196 0696  
                                                                        l7188 0640  
                                                                        l7380 1116  
                                                                        l7372 10BE  
                                                                        l7364 105E  
                                                                        l7356 0FE8  
                                                                        l7348 0FAA  
                                                                        l7284 0DC4  
                                                                        l7292 0DF4  
                                                                        l7276 0D94  
                                                                        l7268 0D6E  
                                                                        l7516 0CEE  
                                                                        l7508 0CAC  
                                                                        l7460 0A62  
                                                                        l7452 0A1C  
                                                                        l7444 09EA  
                                                                        l7436 09A6  
                                                                        l7428 0970  
                                                                        l7540 1C06  
                                                                        l7532 1BDE  
                                                                        l7524 1B7E  
                                                                        l7604 15A4  
                                                                        l7700 1E5E  
                                                                        l7620 22B8  
                                                                        l8316 13C6  
                                                                        l8308 1388  
                                                                        l8260 11D0  
                                                                        l8252 11C0  
                                                                        l8244 118E  
                                                                        l8236 116E  
                                                                        l8228 1144  
                                                                        l6902 1A2A  
                                                                        l6830 1B00  
                                                                        l6822 1AA8  
                                                                        l6814 1A6C  
                                                                        l7710 21FC  
                                                                        l6910 1E82  
                                                                        l7198 06A2  
                                                                        l7382 1128  
                                                                        l7374 10D4  
                                                                        l7366 1070  
                                                                        l7358 101A  
                                                                        l7294 0E06  
                                                                        l7286 0DD8  
                                                                        l7278 0D9A  
                                                                        l7518 0CF6  
                                                                        l7470 0AE0  
                                                                        l7462 0A72  
                                                                        l7454 0A2C  
                                                                        l7446 09F6  
                                                                        l7438 09B0  
                                                                        l7550 1C38  
                                                                        l7534 1BE0  
                                                                        l7526 1B98  
                                                                        l7606 15B8  
                                                                        l7702 1E6A  
                                                                        l7614 2278  
                                                                        l8318 13D8  
                                                                        l8270 123C  
                                                                        l8262 11D2  
                                                                        l8254 11C4  
                                                                        l8246 1196  
                                                                        l8238 1176  
                                                                        l6760 26B4  
                                                                        l6904 1A2C  
                                                                        l6840 1B50  
                                                                        l6832 1B10  
                                                                        l6824 1AC8  
                                                                        l6816 1A7C  
                                                                        l6808 1A40  
                                                                        l7800 2316  
                                                                        l6912 1E9C  
                                                                        l7384 112E  
                                                                        l7376 10F4  
                                                                        l7368 109A  
                                                                        l7296 0E22  
                                                                        l7288 0DE8  
                                                                        l7480 0B64  
                                                                        l7472 0B1A  
                                                                        l7464 0A8E  
                                                                        l7456 0A38  
                                                                        l7448 0A02  
                                                                        l7560 1C74  
                                                                        l7536 1BF0  
                                                                        l7608 15CA  
                                                                        l7704 1E78  
                                                                        l7616 2290  
                                                                        l8280 1294  
                                                                        l8272 123E  
                                                                        l8264 11D4  
                                                                        l8256 11C8  
                                                                        l8248 119E  
                                                                        l6762 26C8  
                                                                        l6850 2680  
                                                                        l6770 2840  
                                                                        l6906 1A38  
                                                                        l6842 1B6C  
                                                                        l6834 1B18  
                                                                        l6826 1AD8  
                                                                        l6818 1A90  
                                                                        l7730 225E  
                                                                        l6922 1ECC  
                                                                        l7386 1132  
                                                                        l7378 1110  
                                                                        l7298 0E32  
                                                                        l7490 0BD4  
                                                                        l7482 0B78  
                                                                        l7474 0B28  
                                                                        l7466 0A9A  
                                                                        l7458 0A48  
                                                                        l7394 0870  
                                                                        l7562 1C8A  
                                                                        l7546 1C22  
                                                                        l7538 1BF4  
                                                                        l7570 1404  
                                                                        l7618 22B4  
                                                                        l8290 12E8  
                                                                        l8282 12B6  
                                                                        l8274 1266  
                                                                        l8266 1206  
                                                                        l8258 11CC  
                                                                        l6844 2648  
                                                                        l6780 2842  
                                                                        l6772 2842  
                                                                        l6764 281C  
                                                                        l6836 1B38  
                                                                        l6828 1AE0  
                                                                        l7820 270A  
                                                                        l7812 26E0  
                                                                        l6852 28B6  
                                                                        l6860 28DA  
                                                                        l7804 233E  
                                                                        l7732 2260  
                                                                        l7724 221E  
                                                                        l7716 2204  
                                                                        l7708 21E8  
                                                                        l6940 1F34  
                                                                        l6916 1EA4  
                                                                        l7900 1720  
                                                                        l7484 0B8C  
                                                                        l7476 0B46  
                                                                        l7468 0AB6  
                                                                        l7396 087C  
                                                                        l7564 1C9A  
                                                                        l7556 1C52  
                                                                        l7548 1C2E  
                                                                        l7580 148E  
                                                                        l7572 1416  
                                                                        l8292 12F6  
                                                                        l8284 12B8  
                                                                        l8276 1268  
                                                                        l8268 1208  
                                                                        l6758 2694  
                                                                        l6846 2664  
                                                                        l6950 2592  
                                                                        l7670 24FA  
                                                                        l6766 2824  
                                                                        l6838 1B48  
                                                                        l7830 17A0  
                                                                        l7910 27BE  
                                                                        l7822 2716  
                                                                        l7814 26EA  
                                                                        l6854 28B6  
                                                                        l6870 28AE  
                                                                        l6862 28DC  
                                                                        l7750 25AC  
                                                                        l7726 2236  
                                                                        l7734 2266  
                                                                        l6934 1F14  
                                                                        l7902 1746  
                                                                        l7494 0C0C  
                                                                        l7486 0B90  
                                                                        l7478 0B52  
                                                                        l7398 088E  
                                                                        l7558 1C60  
                                                                        l7590 14EE  
                                                                        l7582 1498  
                                                                        l7574 145E  
                                                                        l8294 1304  
                                                                        l8286 12D8  
                                                                        l8278 1292  
                                                                        l6848 2670  
                                                                        l6944 2552  
                                                                        l7672 251A  
                                                                        l6952 23EA  
                                                                        l7680 2388  
                                                                        l6880 18D6  
                                                                        l7840 1814  
                                                                        l7832 17B2  
                                                                        l7824 175E  
                                                                        l7912 27CE  
                                                                        l7816 26F4  
                                                                        l6792 2474  
                                                                        l6784 2448  
                                                                        l6864 28E4  
                                                                        l6856 28D6  
                                                                        l7808 2362  
                                                                        l7752 25C0  
                                                                        l7728 2240  
                                                                        l6928 1EF0  
                                                                        l7496 0C18  
                                                                        l7488 0BA2  
                                                                        l7592 1530  
                                                                        l7584 14A6  
                                                                        l7576 147A  
                                                                        l7568 13F0  
                                                                        l8296 1308  
                                                                        l8288 12DA  
                                                                        l6946 2572  
                                                                        l7674 252A  
                                                                        l6954 23F2  
                                                                        l7682 23C4  
                                                                        l7690 23D4  
                                                                        l6890 199C  
                                                                        l6882 18E0  
                                                                        l7770 1DA6  
                                                                        l7842 1820  
                                                                        l7834 17C6  
                                                                        l7850 1880  
                                                                        l7826 1782  
                                                                        l7906 27AA  
                                                                        l7818 2700  
                                                                        l6786 245C  
                                                                        l6858 28D6  
                                                                        l7762 25EE  
                                                                        l7754 25C8  
                                                                        l7746 226C  
                                                                        l6874 2854  
                                                                        l7498 0C2A  
                                                                        l7594 153E  
                                                                        l7586 14DE  
                                                                        l8298 1326  
                                                                        l6948 2582  
                                                                        l7676 253A  
                                                                        l6964 2418  
                                                                        l7692 23E2  
                                                                        l7684 23CC  
                                                                        l6892 19CA  
                                                                        l6884 198C  
                                                                        l7860 18B8  
                                                                        l7852 188C  
                                                                        l7844 182A  
                                                                        l7836 17D8  
                                                                        l7828 1796  
                                                                        l7908 27B4  
                                                                        l6868 2898  
                                                                        l6796 247C  
                                                                        l7756 25DE  
                                                                        l7780 2182  
                                                                        l6876 2854  
                                                                        l6980 27FE  
                                                                        l6972 287A  
                                                                        l7596 1552  
                                                                        l7588 14E2  
                                                                        l6966 2420  
                                                                        l6958 240E  
                                                                        l7686 23CE  
                                                                        l7678 2374  
                                                                        l6894 19F0  
                                                                        l6886 198E  
                                                                        l6990 20BC  
                                                                        l7766 1CB4  
                                                                        l7862 18C2  
                                                                        l7854 1896  
                                                                        l7846 1836  
                                                                        l7838 17DE  
                                                                        l6798 2480  
                                                                        l7758 25E6  
                                                                        l7774 2154  
                                                                        l6878 285E  
                                                                        l6982 2808  
                                                                        l6974 287A  
                                                                        l7870 160E  
                                                                        l7598 1578  
                                                                        l6968 2436  
                                                                        l7688 23D2  
                                                                        l6896 1A0A  
                                                                        l6888 199A  
                                                                        l6992 213C  
                                                                        l7768 1CC0  
                                                                        l7856 18A2  
                                                                        l7848 1848  
                                                                        l7792 21DA  
                                                                        l7776 217A  
                                                                        l6984 2814  
                                                                        l6976 27E6  
                                                                        l7864 15E8  
                                                                        l7696 1DB0  
                                                                        l6898 1A1C  
                                                                        l6994 213E  
                                                                        l7858 18AC  
                                                                        l7786 21AE  
                                                                        l6978 27E6  
                                                                        l7890 16CC  
                                                                        l7882 167A  
                                                                        l7874 1636  
                                                                        l7866 15F0  
                                                                        l7698 1E4A  
                                                                        l6996 214A  
                                                                        l6988 20B2  
                                                                        l8828 2082  
                                                                        l7796 22F8  
                                                                        l7894 16F8  
                                                                        l7886 16A0  
                                                                        l7878 165A  
                                                                        l7898 1718  
                                                                        STR_1 7ECD  
                                                                        STR_2 7F1C  
                                                                        STR_3 7EF0  
                                                                        STR_4 7F39  
                                                                        STR_5 7F40  
                                                                        STR_6 7F9E  
                                                                        STR_7 7E96  
                                                                        STR_8 7EDA  
                                                                        _PIE1 000F9D  
                                                                        u7010 2872  
                                                                        u7011 286C  
                                                                        u7100 1F0E  
                                                                        u7101 1F08  
                                                                        u7005 285C  
                                                                        u7110 1F2E  
                                                                        u7006 285E  
                                                                        u7111 1F28  
                                                                        u7120 2570  
                                                                        u7200 1F92  
                                                                        u8000 0C76  
                                                                        u7121 256A  
                                                                        u7201 1F8C  
                                                                        u7025 18DE  
                                                                        u8001 0C70  
                                                                        u7210 1FC0  
                                                                        u7130 2408  
                                                                        u7026 18E0  
                                                                        u8010 0CAA  
                                                                        u7211 1FBA  
                                                                        u7131 2402  
                                                                        u7035 18EC  
                                                                        u8011 0CA4  
                                                                        u7140 2434  
                                                                        u7300 03FC  
                                                                        u7220 02E4  
                                                                        u8020 0CEA  
                                                                        u8100 1402  
                                                                        u7141 242E  
                                                                        u7045 191A  
                                                                        u7301 03F6  
                                                                        u7221 02DE  
                                                                        u8021 0CE4  
                                                                        u8101 13FC  
                                                                        u7070 1E9A  
                                                                        u7150 288E  
                                                                        u7310 0472  
                                                                        u7230 02FC  
                                                                        u8030 1B96  
                                                                        u8110 1414  
                                                                        u7055 1946  
                                                                        u7071 1E94  
                                                                        u7151 2888  
                                                                        u7311 046C  
                                                                        u7231 02F6  
                                                                        u8031 1B90  
                                                                        u8111 140E  
                                                                        u7080 1EC6  
                                                                        u7160 27FA  
                                                                        u7400 057E  
                                                                        u7320 048E  
                                                                        u7240 0310  
                                                                        u8040 1BD2  
                                                                        u8120 1478  
                                                                        u8200 228E  
                                                                        u7065 1970  
                                                                        u7081 1EC0  
                                                                        u7161 27F4  
                                                                        u7401 0578  
                                                                        u7321 0486  
                                                                        u7241 030A  
                                                                        u8121 1472  
                                                                        u8201 2288  
                                                                        u7090 1EEA  
                                                                        u7410 05A4  
                                                                        u7330 0492  
                                                                        u7250 035C  
                                                                        u8050 1C04  
                                                                        u8130 14D8  
                                                                        u8210 22B2  
                                                                        u7091 1EE4  
                                                                        u7411 059E  
                                                                        u7251 0356  
                                                                        u8051 1BFE  
                                                                        u8131 14D2  
                                                                        u7180 2640  
                                                                        u7500 0718  
                                                                        u7420 05E4  
                                                                        u7340 04C0  
                                                                        u7260 0378  
                                                                        u8060 1C1C  
                                                                        u8140 152A  
                                                                        u8220 22DC  
                                                                        u7181 263A  
                                                                        u7501 0712  
                                                                        u7421 05DE  
                                                                        u7341 04BA  
                                                                        u7261 0372  
                                                                        u8061 1C16  
                                                                        u8045 1BC6  
                                                                        u8141 1524  
                                                                        u9101 1312  
                                                                        u9021 1156  
                                                                        u8310 2518  
                                                                        u7190 1F68  
                                                                        u7510 0732  
                                                                        u7430 062E  
                                                                        u7350 04E6  
                                                                        u7270 0390  
                                                                        u8070 1C4C  
                                                                        u8150 1550  
                                                                        u8230 22EE  
                                                                        u8311 2512  
                                                                        u7191 1F62  
                                                                        u7175 20BA  
                                                                        u7511 072C  
                                                                        u7431 0628  
                                                                        u7351 04E0  
                                                                        u7271 038A  
                                                                        u8071 1C46  
                                                                        u8151 154A  
                                                                        u8231 22E8  
                                                                        u9111 1330  
                                                                        u9031 11B8  
                                                                        u8320 2386  
                                                                        u7176 20BC  
                                                                        u8400 21A8  
                                                                        u7600 0852  
                                                                        u7520 0750  
                                                                        u7440 066C  
                                                                        u7360 050E  
                                                                        u7280 03A4  
                                                                        u8080 1C74  
                                                                        u8160 1564  
                                                                        u9120 137A  
                                                                        u9040 1204  
                                                                        u8321 2380  
                                                                        u8401 21A2  
                                                                        u7601 084C  
                                                                        u7521 074A  
                                                                        u7441 0666  
                                                                        u7361 0508  
                                                                        u7281 039E  
                                                                        u8081 1C6E  
                                                                        u8161 155E  
                                                                        u8217 22A8  
                                                                        u9121 1374  
                                                                        u9041 11FE  
                                                                        u8410 21D4  
                                                                        u7530 076A  
                                                                        u7450 0680  
                                                                        u7370 0520  
                                                                        u7290 03EA  
                                                                        u7610 0D30  
                                                                        u8090 1C88  
                                                                        u8170 1576  
                                                                        u8330 1E5C  
                                                                        u9130 1398  
                                                                        u9050 123A  
                                                                        u8411 21CE  
                                                                        u7531 0764  
                                                                        u7451 067A  
                                                                        u7371 051A  
                                                                        u7291 03E4  
                                                                        u7611 0D2A  
                                                                        u8091 1C82  
                                                                        u8171 1570  
                                                                        u8331 1E56  
                                                                        u8227 22D2  
                                                                        u9131 1392  
                                                                        u9051 1234  
                                                                        u6900 245A  
                                                                        u8420 2310  
                                                                        u8340 21FA  
                                                                        u8500 1608  
                                                                        u7540 0788  
                                                                        u7460 06B2  
                                                                        u7380 0534  
                                                                        u7700 0F0C  
                                                                        u7620 0D48  
                                                                        u8180 15B6  
                                                                        u9140 13B8  
                                                                        u9060 1264  
                                                                        u6901 2454  
                                                                        u8421 230A  
                                                                        u8341 21F4  
                                                                        u8501 1602  
                                                                        u7541 0782  
                                                                        u7461 06AC  
                                                                        u7381 052E  
                                                                        u7701 0F06  
                                                                        u7621 0D42  
                                                                        u8181 15B0  
                                                                        u9141 13B2  
                                                                        u9061 125E  
                                                                        u6910 2472  
                                                                        u8430 2338  
                                                                        u8350 2218  
                                                                        u8510 1630  
                                                                        u7550 07C6  
                                                                        u7470 06C8  
                                                                        u7390 056C  
                                                                        u7710 0F3E  
                                                                        u7630 0D5C  
                                                                        u8190 15C8  
                                                                        u9150 13D6  
                                                                        u9070 1290  
                                                                        u6911 246C  
                                                                        u8431 2332  
                                                                        u8351 2212  
                                                                        u8511 162A  
                                                                        u7551 07C0  
                                                                        u7471 06C2  
                                                                        u7391 0566  
                                                                        u7711 0F38  
                                                                        u7631 0D56  
                                                                        u8191 15C2  
                                                                        u9151 13D0  
                                                                        u9071 128A  
                                                                        u6920 2492  
                                                                        u8440 235C  
                                                                        u8360 2234  
                                                                        u8520 1654  
                                                                        u7560 07DE  
                                                                        u7480 06EC  
                                                                        u7800 106E  
                                                                        u7720 0F6A  
                                                                        u7640 0DAA  
                                                                        u9080 12B4  
                                                                        u6921 248C  
                                                                        u8441 2356  
                                                                        u8361 222E  
                                                                        u8521 164E  
                                                                        u7561 07D8  
                                                                        u7481 06E6  
                                                                        u7801 1068  
                                                                        u7721 0F64  
                                                                        u7641 0DA4  
                                                                        u9081 12AE  
                                                                        u6930 1AC2  
                                                                        u8370 25BE  
                                                                        u8530 1674  
                                                                        u7570 07F2  
                                                                        u7490 0702  
                                                                        u7810 10BC  
                                                                        u7730 0F84  
                                                                        u7650 0DC2  
                                                                        u9090 12D6  
                                                                        u6931 1ABC  
                                                                        u8451 1768  
                                                                        u8371 25B8  
                                                                        u8531 166E  
                                                                        u7571 07EC  
                                                                        u7491 06FC  
                                                                        u7811 10B6  
                                                                        u7731 0F7E  
                                                                        u7651 0DBC  
                                                                        u9091 12D0  
                                                                        u6940 1AFA  
                                                                        u8380 25DC  
                                                                        u8540 169A  
                                                                        u7580 0816  
                                                                        u7820 10F2  
                                                                        u7740 0FA8  
                                                                        u7660 0DD6  
                                                                        u7900 096E  
                                                                        u6941 1AF4  
                                                                        u8461 177A  
                                                                        u8381 25D6  
                                                                        u8541 1694  
                                                                        u7581 0810  
                                                                        u7821 10EC  
                                                                        u7741 0FA2  
                                                                        u7661 0DD0  
                                                                        u7901 0968  
                                                                        u6950 1B32  
                                                                        u8470 1794  
                                                                        u8390 2178  
                                                                        u8550 16C6  
                                                                        u7590 082E  
                                                                        u7830 1126  
                                                                        u7750 0FD0  
                                                                        u7670 0E20  
                                                                        u7910 0982  
                                                                        u6951 1B2C  
                                                                        u8471 178E  
                                                                        u8391 2172  
                                                                        u8551 16C0  
                                                                        u7591 0828  
                                                                        u7831 1120  
                                                                        u7751 0FCA  
                                                                        u7671 0E1A  
                                                                        u7911 097C  
                                                                        u6880 26B2  
                                                                        u6960 1B6A  
                                                                        u8480 17C4  
                                                                        u8560 16F2  
                                                                        u7760 0FE6  
                                                                        u7680 0E68  
                                                                        u7920 0B02  
                                                                        u7840 088C  
                                                                        u6881 26AC  
                                                                        u6961 1B64  
                                                                        u8481 17BE  
                                                                        u8561 16EC  
                                                                        u7761 0FE0  
                                                                        u7681 0E62  
                                                                        u7841 0886  
                                                                        u6970 2662  
                                                                        u6890 283A  
                                                                        u8490 17D8  
                                                                        u8570 1712  
                                                                        u7770 1018  
                                                                        u7690 0EE6  
                                                                        u7930 0B62  
                                                                        u7850 08A4  
                                                                        u6971 265C  
                                                                        u6891 2834  
                                                                        u8491 17D2  
                                                                        u8571 170C  
                                                                        u7771 1012  
                                                                        u7691 0EE0  
                                                                        u7931 0B5C  
                                                                        u7851 089E  
                                                                        u6980 28CA  
                                                                        u7780 1036  
                                                                        u7940 0B8A  
                                                                        u7860 08B8  
                                                                        u6981 28C4  
                                                                        u7781 1030  
                                                                        u7941 0B84  
                                                                        u7925 0AF6  
                                                                        u7861 08B2  
                                                                        u6990 28AC  
                                                                        u7790 1050  
                                                                        u7950 0BA0  
                                                                        u7870 0902  
                                                                        u6991 28A6  
                                                                        u7791 104A  
                                                                        u7951 0B9A  
                                                                        u7871 08FC  
                                                                        u7960 0BD2  
                                                                        u7880 091A  
                                                                        u8585 1730  
                                                                        u7961 0BCC  
                                                                        u7881 0914  
                                                                        u7970 0BF0  
                                                                        u7890 092E  
                                                                        u7971 0BEA  
                                                                        u7891 0928  
                                                                        u7980 0C0A  
                                                                        u7981 0C04  
                                                                        u7990 0C28  
                                                                        u7991 0C22  
                                                          ?_lcd_2x16_write_4b 0008  
                                                             lcd_write_date@t 0015  
                                                      __end_of_lcd_write_date 18D4  
                                                         ??_lcd_2x16_position 000F  
                                                                        _main 1144  
                                                      __end_of_lcd_write_time 2724  
                                                                        fsr0h 000FEA  
                                                                        fsr1h 000FE2  
                                                                        indf0 000FEF  
                                                                        fsr2h 000FDA  
                                                                        fsr0l 000FE9  
                                                                        indf2 000FDF  
                                                                        fsr1l 000FE1  
                                                                        fsr2l 000FD9  
                                                                        btemp 0068  
                                                     __size_of_lcd_2x16_write 016A  
                                                             lcd_write_time@t 0015  
                                                                        prodh 000FF4  
                                                                        prodl 000FF3  
                                              __end_of_datetime_increase_days 26DE  
                                                                        start 02C2  
                                                             ___fldiv@new_exp 003A  
                                                         ??_lcd_2x16_write_4b 000B  
                                                    lcd_write_temperature@pos 0016  
                                                               ?_i2c_send_ack 0002  
                                                                ___param_bank 000000  
                                                               ?_i2c_wait_ack 0001  
                                                               ___fltol@sign1 005A  
                                                   __end_of_lcd_2x16_position 20B0  
                                                             __end_of___fladd 086E  
                                                                       ?_main 0001  
                                                    datetime_increase_hours@t 0005  
                                                             __end_of___fldiv 1144  
                                                           i2c_write_reg@data 0008  
                                                                       STR_10 7F47  
                                                                       STR_11 7EB9  
                                                                       STR_13 7E71  
                                                                       STR_22 7FF3  
                                                                       STR_30 7F6C  
                                                                       STR_31 7F94  
                                                                       STR_23 7F14  
                                                                       STR_32 7F53  
                                                                       STR_24 7F4E  
                                                                       STR_40 7F2B  
                                                                       STR_17 7FEF  
                                                                       STR_33 7F7B  
                                                                       STR_25 7F76  
                                                                       STR_41 7F0C  
                                                                       STR_18 7FF7  
                                                                       STR_34 7F67  
                                                                       STR_26 7F62  
                                                                       STR_42 7EE6  
                                                                       STR_50 7FE3  
                                                                       STR_35 7F8F  
                                                                       STR_27 7F8A  
                                                                       STR_19 7E4B  
                                                                       STR_43 7F03  
                                                                       STR_51 7FB7  
                                                                       STR_36 7F5D  
                                                                       STR_28 7F58  
                                                                       STR_44 7F24  
                                                                       STR_52 7FDB  
                                                                       STR_60 7FBB  
                                                                       STR_37 7F85  
                                                                       STR_29 7F80  
                                                                       STR_45 7EFA  
                                                                       STR_53 7FCB  
                                                                       STR_61 7FB3  
                                                                       STR_70 7E6F  
                                                                       STR_38 7F71  
                                                                       STR_46 7F32  
                                                                       STR_62 7FCF  
                                                                       STR_54 7FBF  
                                                                       STR_71 7FFC  
                                                                       STR_39 7F99  
                                                                       STR_47 7FC3  
                                                                       STR_63 7FDF  
                                                                       STR_55 7FA3  
                                                                       STR_72 7FFC  
                                                                       STR_48 7FAF  
                                                                       STR_64 7FE7  
                                                                       STR_56 7FD3  
                                                                       STR_49 7FAB  
                                                                       STR_65 7FA7  
                                                                       STR_57 7FD7  
                                                                       STR_66 7E6F  
                                                                       STR_58 7FEB  
                                                                       STR_67 7E6F  
                                                                       STR_59 7FC7  
                                                                       STR_68 7FFA  
                                                                       STR_69 7FFA  
                                                             __end_of___flmul 0D12  
                                                             __end_of___fltol 1CB2  
                                                             __end_of___lldiv 1FFC  
                                                                 i2c_read@ack 0004  
                                                                 i2c_init@opt 0013  
                                                                       i2l528 02BA  
                                                                       _RCREG 000FAE  
                                                                       _SPBRG 000FAF  
                                                                       _TRISA 000F92  
                                                                       _TRISB 000F93  
                                                                       _TRISC 000F94  
                                                                       _TXREG 000FAD  
                                                   __end_of_lcd_2x16_write_4b 2150  
                                                                main@segments 00BF  
                                                                       main@t 00CF  
                                                                       tablat 000FF5  
                                                         timer_init@prescaler 0002  
                                                                       plusw0 000FEB  
                                                                       plusw1 000FE3  
                                                                       plusw2 000FDB  
                                                  __size_of_uart_write_string 007E  
                                                               _i2c_write_reg 1E7E  
                                                             ?_lcd_write_date 0015  
                                                                       ttemp5 0069  
                                                                       ttemp6 006C  
                                                                       ttemp7 0070  
                                                                       status 000FD8  
                                                                       wtemp8 0069  
                                                             ?_lcd_write_time 0015  
                                                  datetime_increase_minutes@t 0008  
                                                  datetime_increase_seconds@t 000B  
                                                              ??_i2c_send_ack 0003  
                                                             timer_init@timer 0004  
                                                             __initialization 24A0  
                                                              ??_i2c_wait_ack 0002  
                                                     tmp75_configure@dev_addr 000A  
                                                                __end_of_main 13EC  
                                                                  _i2c_rstart 2878  
                                                        uart_write_date@F2553 00A6  
                                                            __end_of_i2c_init 23E8  
                                                            __end_of_i2c_read 281A  
                                                            __end_of_i2c_stop 28B4  
                                                                      ??_main 0063  
                                                         _lcd_2x16_write_2bcd 2724  
                                                       __end_of_lcd_2x16_init 1DAC  
                                                                pwm_init@freq 0002  
                                                               __activetblptr 000002  
                                                                pwm_init@duty 0004  
                                                     tmp75_read_temp@i2cbyte1 0011  
                                                     tmp75_read_temp@i2cbyte2 0012  
                                                                      _ADCON1 000FC1  
                                                                      _CCPR1L 000FBE  
                                                                      _CCPR2L 000FBB  
                                                                i2c_init@freq 000F  
                                                                i2c_read@data 0005  
                                                                      i2l6000 0250  
                                                                      i2l6002 0264  
                                                                      i2l6004 0282  
                                                                      i2l6006 02A8  
                                                                      _INTCON 000FF2  
                                                              ?_i2c_write_reg 0006  
                                                                      i2l5996 000C  
                                                                      i2l5998 021A  
                                                        ?_lcd_2x16_write_2bcd 000E  
                                                                      _SSPADD 000FC8  
                                                                      _SSPBUF 000FC9  
                                                          __size_of_i2c_start 001E  
                                                  ?_datetime_increase_minutes 0008  
                                                  ?_datetime_increase_seconds 000B  
                                                            __end_of___xxtofl 15E4  
                                                          __size_of_i2c_write 0018  
                                                           lcd_write_date@bcd 0049  
                                                           lcd_write_date@pos 001D  
                                                            __end_of_delay_ms 2446  
                                                            __end_of_delay_us 2852  
                                                            lcd_2x16_write@rs 000A  
                                                    uart_write_string@uart_id 0001  
                                                                   ??___fladd 004A  
                                                                   ??___fldiv 0031  
                                                                   ??___flmul 0018  
                                                                   ??___fltol 0056  
                                                                   ??___lldiv 000A  
                                                     tmp75_read_temp@dev_addr 0009  
                                                                      clear_0 24C8  
                                                                      clear_1 24DA  
                                                  __size_of_lcd_2x16_position 00B4  
                                                  __size_of_lcd_2x16_write_4b 00A0  
                                                                __mediumconst 7E4A  
                                                           lcd_write_time@pos 001D  
                                                                      tblptrh 000FF7  
                                                                      tblptrl 000FF6  
                                                                      tblptru 000FF8  
                                                            __end_of_pwm_init 25F8  
                                                          _pcf8574_write_port 22F4  
                                                                ___xxtofl@arg 000C  
                                                                ___xxtofl@exp 000B  
                                                                ___xxtofl@val 0002  
                                                       ??_lcd_2x16_write_2bcd 0010  
                                                                  __accesstop 0080  
                                                     __end_of__initialization 24EA  
                                                         ?_pcf8574_write_port 0006  
                                                          __size_of_dec_2_bcd 013E  
                                                        timer_init@postscaler 0003  
                                                              _lcd_2x16_write 18D4  
                                                               ___rparam_used 000001  
                                                                  ___fltol@f1 0052  
                                                              __pcstackCOMRAM 0001  
                                                 lcd_2x16_write_string@string 000E  
                                                    __size_of_tmp75_configure 0094  
                                                                 ?_i2c_rstart 0001  
                                                                __pidataBANK0 2766  
                                                        ??_pcf8574_write_port 0008  
                                                                dec_2_bcd@bcd 0004  
                                                                dec_2_bcd@dec 0002  
                                                       tmp75_configure@bus_id 000B  
                                                           __end_of_i2c_start 28D2  
                                                           __end_of_i2c_write 28EA  
                                            __size_of_datetime_increase_hours 004C  
                                                    __size_of_tmp75_read_temp 0178  
                                                        __end_of_i2c_send_ack 2878  
                                                         lcd_2x16_init@config 000E  
                                                        __end_of_i2c_wait_ack 24A0  
                                                             ??_i2c_write_reg 0009  
                                                       _lcd_write_temperature 27A6  
                                              __size_of_lcd_2x16_write_string 004E  
                                               __end_of_lcd_2x16_write_string 2646  
                                                                  __pbssBANK0 00D6  
                                                                  __pbssBANK1 0100  
                                                      __end_of_lcd_2x16_write 1A3E  
                                                                   ?_i2c_init 000F  
                                                                   ?_i2c_read 0004  
                                                                   ?_i2c_stop 0001  
                                                      timer2_irq@CntTmrLedSec 00E1  
                                                      timer2_irq@CntTmrIncSec 00DD  
                                                              main@lcd_config 00CD  
                                                             i2c_init@I2C_BRG 0015  
                                                         i2c_write_reg@bus_id 0009  
                                                           __end_of_dec_2_bcd 1B7C  
                                                          __size_of_uart_init 00D2  
                                                       lcd_2x16_write_4b@data 0008  
                                                                   ?___xxtofl 0002  
                                                                   ?_delay_ms 0002  
                                                                   ?_delay_us 0002  
                                                            ??_lcd_write_date 001F  
                                                            ??_lcd_write_time 001E  
                                                                     _SSPCON2 000FC5  
                                                         __size_of_i2c_rstart 001E  
                                                             ?_lcd_2x16_write 0008  
                                                                  ??_i2c_init 0015  
                                                                  ??_i2c_read 0007  
                                                                  ??_i2c_stop 0002  
                                                       i2c_write_reg@adr_chip 0006  
                                                pcf8574_write_port@i2c_bus_id 0008  
                                                  pcf8574_write_port@adr_chip 0006  
                                                         tmp75_read_temp@temp 000A  
                                                              main@tmp75_temp 00CB  
                                                                     __Hparam 0000  
                                                                     __Lparam 0000  
                                                                     ___fladd 02C6  
                                                                     ___fldiv 0D12  
                                                                     ___flmul 086E  
                                                                     ___fltol 1B7C  
                                                                     ___lldiv 1F3E  
                                                                   ?_pwm_init 0002  
                                                                     __pcinit 24A0  
                                                                     __ramtop 0600  
                                                                     __ptext0 1144  
                                                                     __ptext1 2276  
                                                                     __ptext2 1DAC  
                                                                     __ptext3 13EC  
                                                                     __ptext4 1B7C  
                                                                     __ptext5 086E  
                                                                     __ptext6 0D12  
                                                                     __ptext7 02C6  
                                                                     __ptext8 15E4  
                                                                     __ptext9 2878  
                                                           ??_tmp75_configure 000B  
                                                                   _T0CONbits 000FD5  
                                                                   _T2CONbits 000FCA  
                                                                  ??___xxtofl 0006  
                                                               i2c_wait_ack@i 0002  
                                                                  ??_delay_ms 0004  
                                                                  ??_delay_us 0004  
                                                      ?_lcd_write_temperature 0015  
                                                                     main@cnt 00CA  
                                                        end_of_initialization 24EA  
                                                           ??_tmp75_read_temp 000C  
                                                               __Lmediumconst 7E4A  
                                                     lcd_2x16_write_2bcd@data 000E  
                                                 ??_datetime_increase_minutes 000A  
                                                 ??_datetime_increase_seconds 000D  
                                                           __end_of_uart_init 1E7E  
                                                             ___lldiv@divisor 0006  
                                                      _time_has_changed_timer 00E8  
                                                             ___lldiv@counter 000E  
                                                                   _RCSTAbits 000FAB  
                                                                     postdec1 000FE5  
                                                                     postdec2 000FDD  
                                                                  _timer2_irq 0008  
                                                                     postinc0 000FEE  
                                                                     postinc2 000FDE  
                                                                  ??_pwm_init 0006  
                                                            uart_init@uart_id 0062  
                                                       __size_of_i2c_send_ack 0026  
                                                                  _timer_init 21E4  
                                                                   _PORTAbits 000F80  
                                                     _datetime_increase_hours 2646  
                                                       __size_of_i2c_wait_ack 005A  
                                                                 ___fladd@grs 0051  
                                                               i2c_write@data 0003  
                                                               ___xxtofl@sign 000A  
                                                                   _TRISBbits 000F93  
                                                                   _TRISCbits 000F94  
                                                                 ___fldiv@grs 003C  
                                                                 ___fldiv@rem 0035  
                                                    ??_datetime_increase_days 0004  
                                                                 ___flmul@grs 001E  
                                                                 _CCP1CONbits 000FBD  
                                                                 _CCP2CONbits 000FBA  
                                                                   _TXSTAbits 000FAC  
                                                      __size_of_lcd_2x16_init 00FA  
                                                                _i2c_send_ack 2852  
                                                                ??_i2c_rstart 0002  
                                                     datetime_increase_days@t 0002  
                                                        lcd_write_date@format 001E  
                                                                _i2c_wait_ack 2446  
                                                   _datetime_increase_minutes 2550  
                                                   _datetime_increase_seconds 24F8  
                                                       tmp75_read_temp@bus_id 0013  
                                                         start_initialization 24A0  
                                                 __end_of_lcd_2x16_write_2bcd 2766  
                                                                   _i2c_start 28B4  
                                                                   _i2c_write 28D2  
                                           command_line_interpreter@index_buf 0063  
                                                          __end_of_i2c_rstart 2896  
                                                         lcd_2x16_write_4b@rs 000A  
                                                           __size_of_i2c_init 0078  
                                                           __size_of_i2c_read 0038  
                                                           __size_of_i2c_stop 001E  
                                                                 ?_timer2_irq 0001  
                                                                 __pdataBANK0 0080  
                                                   ??_datetime_increase_hours 0007  
                                                                 ?_timer_init 0002  
                                           command_line_interpreter@uart_buff 0100  
                                                             i2c_send_ack@Ack 0002  
                                                 __size_of_pcf8574_write_port 007C  
                                                                   ___fladd@a 0046  
                                                                   ___fladd@b 0042  
                                                               _lcd_2x16_init 1CB2  
                                                                   ___fldiv@a 002D  
                                                                   ___fldiv@b 0029  
                                                                   ___flmul@a 0014  
                                                                   ___flmul@b 0010  
                                                                 __pbssCOMRAM 0063  
                                                              pwm_init@pwm_id 0006  
                                                               __pcstackBANK0 00BF  
                                                            ??_lcd_2x16_write 000B  
                                                                   _dec_2_bcd 1A3E  
                                                                  ?_i2c_start 0001  
                                                                  ?_i2c_write 0003  
                                                           __size_of___xxtofl 01F8  
                                                           __size_of_delay_ms 005E  
                                                           __size_of_delay_us 0038  
                                                                   _addr_flag 0067  
                                             __size_of_datetime_increase_days 004C  
                                                       __end_of_i2c_write_reg 1F3E  
                                                       _lcd_2x16_write_string 25F8  
                                                                   _data_flag 0066  
                                                   lcd_write_date@day_of_week 003B  
                                                             _tmp75_configure 2150  
                                                                   __pintcode 0008  
                                                               __pmediumconst 7E4A  
                                                                    ?___fladd 0042  
                                                                    ?___fldiv 0029  
                                                                    ?___flmul 0010  
                                                                    ?___fltol 0052  
                                                                    ?___lldiv 0002  
                                                           __size_of_pwm_init 0050  
                                                              ?_lcd_2x16_init 000E  
                                                             _tmp75_read_temp 15E4  
                                                     ??_lcd_write_temperature 0017  
                                                        i2c_write_reg@adr_reg 0007  
                                                          tmp75_read_temp@tmp 000F  
                                                                  ?_dec_2_bcd 0002  
                                                              i2c_init@bus_id 0019  
                                                         __size_of_timer2_irq 02BA  
                                             __end_of_datetime_increase_hours 2692  
                                                              i2c_read@bus_id 0008  
                                                          i2c_wait_ack@bus_id 0001  
                                                   lcd_write_temperature@temp 0017  
                                                                    _LATAbits 000F89  
                                                                    _LATBbits 000F8A  
                                                                   delay_ms@i 0004  
                                                                   delay_ms@k 0006  
                                                                   delay_us@i 0004  
                                                         __size_of_timer_init 0092  
                                                                    _PIE1bits 000F9D  
                                                      lcd_2x16_write_2bcd@bcd 0010  
                                                       _time_has_changed_user 00E7  
                                                                    _PIR1bits 000F9E  
                                                                    i2u592_40 024E  
                                                                    i2u592_41 0248  
                                                                    i2u593_40 0280  
                                                                    i2u593_41 027A  
                                                                    i2u594_40 0296  
                                                                    i2u594_41 028C  
                                                                    i2u595_48 029A  
                                                                    _RCONbits 000FD0  
                                                                   main@F2771 00B4  
                                                                   main@F2765 00D6  
                                                                   main@F2767 00E5  
                                                                   _uart_init 1DAC  
                                                      _datetime_increase_days 2692  
                                                         lcd_write_date@F2591 0080  
                                                         lcd_write_date@F2589 0098  
                                                                 ??_i2c_start 0002  
                                                         lcd_write_date@ligne 001C  
                                                                 ??_i2c_write 0004  
                                                         lcd_write_date@month 0023  
                                                       uart_write_string@data 0002  
                                                                delay_ms@loop 0002  
                                          __size_of_datetime_increase_minutes 0058  
                                          __size_of_datetime_increase_seconds 0058  
                                                                   copy_data0 24B4  
                                                      ?_lcd_2x16_write_string 000E  
                                                     __end_of_tmp75_configure 21E4  
                                                                    _i2c_init 2370  
                                                                    _i2c_read 27E2  
                                                                delay_us@loop 0002  
                                                                    _i2c_stop 2896  
                                                          lcd_2x16_write@data 0008  
                                                     __size_of_lcd_write_date 0178  
                                                                    __Hrparam 0000  
                                                     __size_of_lcd_write_time 0046  
                                                                    __Lrparam 0000  
                                                                  ?_uart_init 005C  
                                                     __end_of_tmp75_read_temp 175C  
                                                            __size_of___fladd 05A8  
                                                            __size_of___fldiv 0432  
                                                            __size_of___flmul 04A4  
                                                            __size_of___fltol 0136  
                                                            __size_of___lldiv 00BE  
                                                             ??_lcd_2x16_init 0010  
                                                            i2c_rstart@bus_id 0001  
                                                                    _addr_ptr 0065  
                                                                    ___xxtofl 13EC  
                                                                    _delay_ms 23E8  
                                                                    _delay_us 281A  
                                                                 ??_dec_2_bcd 0006  
                                                                    __ptext10 27E2  
                                                                    __ptext11 2852  
                                                                    __ptext20 28B4  
                                                                    __ptext12 2150  
                                                                    __ptext21 26DE  
                                                                    __ptext13 1E7E  
                                                                    __ptext30 18D4  
                                                                    __ptext22 27A6  
                                                                    __ptext14 21E4  
                                                                    __ptext31 281A  
                                                                    __ptext23 175C  
                                                                    __ptext15 25A8  
                                                                    __ptext32 2370  
                                                                    __ptext24 25F8  
                                                                    __ptext16 22F4  
                                                                    __ptext33 23E8  
                                                                    __ptext25 2724  
                                                                    __ptext17 28D2  
                                                                    __ptext34 1F3E  
                                                                    __ptext26 1A3E  
                                                                    __ptext18 2446  
                                                                    __ptext35 24F8  
                                                                    __ptext27 1FFC  
                                                                    __ptext19 2896  
                                                                    __ptext36 2550  
                                                                    __ptext28 1CB2  
                                                                    __ptext37 2646  
                                                                    __ptext29 20B0  
                                                                    __ptext38 2692  
                                                             i2c_start@bus_id 0001  
                                           __end_of_datetime_increase_minutes 25A8  
                                           __end_of_datetime_increase_seconds 2550  
                                                      pcf8574_write_port@data 0007  
                                                               __size_of_main 02A8  
                                                                ??_timer2_irq 0001  
                                                                    int$flags 0068  
                                                                    _pwm_init 25A8  
                                                                ??_timer_init 0005  
                                                                  _INTCONbits 000FF2  
                                                                    intlevel2 28EA  
                                                          __end_of_timer2_irq 02C2  
                                                            ?_tmp75_configure 000A  
                                                           uart_init@baudrate 005C  
                                                __size_of_lcd_2x16_write_2bcd 0042  
                                                            ___lldiv@dividend 0002  
                                                         lcd_write_time@ligne 001C  
                                                           _uart_write_string 2276  
                                                          __end_of_timer_init 2276  
                                                          ?_uart_write_string 0002  
                                                                 ??_uart_init 0062  
                                                              i2c_stop@bus_id 0001  
                                                            ?_tmp75_read_temp 0009  
                                                  __end_of_pcf8574_write_port 2370  
                                                         ??_uart_write_string 0004  
                                                            ___lldiv@quotient 000A  
                                              __size_of_lcd_write_temperature 003C  
                                               __end_of_lcd_write_temperature 27E2  
                                                                uart_init@opt 0060  
                                                                 _SSPCON1bits 000FC6  
                                                                 _SSPCON2bits 000FC5  
                                                          i2c_send_ack@bus_id 0001  
                                                               ___fladd@signs 004E  
                                                   __end_of_uart_write_string 22F4  
                                                                ___fladd@aexp 004F  
                                                                ___fladd@bexp 0050  
                                                             i2c_write@bus_id 0004  
                                                              _lcd_write_date 175C  
                                                             i2c_write@result 0005  
                                                              _lcd_write_time 26DE  
                                                     ?_datetime_increase_days 0002  
                                                    ?_datetime_increase_hours 0005  
